SF:/Users/saverypop/Documents/programming/secret-network/shade/oracles/contracts/index_oracle/src/contract.rs
FN:133,_RNvNtCs9asPrRpIHo_12index_oracle8contract15build_constants
FN:170,_RNvNtCs9asPrRpIHo_12index_oracle8contract12fetch_prices
FN:208,_RNCNvNtCs9asPrRpIHo_12index_oracle8contract10mod_basket0B5_
FN:269,_RNCNvNtCs9asPrRpIHo_12index_oracle8contract10mod_baskets2_0B5_
FN:302,_RNCNvXNtCs9asPrRpIHo_12index_oracle8contractNtB4_11IndexOracleNtNtNtCs7ttpGOJz6iy_13shade_oracles10interfaces6common6Oracle15try_query_price0B6_
FN:255,_RNCNvNtCs9asPrRpIHo_12index_oracle8contract10mod_baskets1_0B5_
FN:283,_RNvXNtCs9asPrRpIHo_12index_oracle8contractNtB2_11IndexOracleNtNtNtCs7ttpGOJz6iy_13shade_oracles10interfaces6common6Oracle15try_query_price
FN:233,_RNCNvNtCs9asPrRpIHo_12index_oracle8contract10mod_baskets0_0B5_
FN:45,_RNCNvNtCs9asPrRpIHo_12index_oracle8contract11instantiates_0B5_
FN:100,_RNvNtCs9asPrRpIHo_12index_oracle8contract5query
FN:36,_RNCNvNtCs9asPrRpIHo_12index_oracle8contract11instantiate0B5_
FN:214,_RNCNvNtCs9asPrRpIHo_12index_oracle8contract10mod_baskets_0B5_
FN:149,_RNvNtCs9asPrRpIHo_12index_oracle8contract10eval_index
FN:192,_RNCNvNtCs9asPrRpIHo_12index_oracle8contract12fetch_prices0B5_
FN:24,_RNvNtCs9asPrRpIHo_12index_oracle8contract11instantiate
FN:71,_RNvNtCs9asPrRpIHo_12index_oracle8contract7execute
FN:59,_RNCNvNtCs9asPrRpIHo_12index_oracle8contract11instantiates0_0B5_
FN:202,_RNvNtCs9asPrRpIHo_12index_oracle8contract10mod_basket
FN:133,_RNvNtCs5hPCVRE3j1J_12index_oracle8contract15build_constants
FN:170,_RNvNtCs5hPCVRE3j1J_12index_oracle8contract12fetch_prices
FN:208,_RNCNvNtCs5hPCVRE3j1J_12index_oracle8contract10mod_basket0B5_
FN:233,_RNCNvNtCs5hPCVRE3j1J_12index_oracle8contract10mod_baskets0_0B5_
FN:255,_RNCNvNtCs5hPCVRE3j1J_12index_oracle8contract10mod_baskets1_0B5_
FN:302,_RNCNvXNtCs5hPCVRE3j1J_12index_oracle8contractNtB4_11IndexOracleNtNtNtCs7ttpGOJz6iy_13shade_oracles10interfaces6common6Oracle15try_query_price0B6_
FN:192,_RNCNvNtCs5hPCVRE3j1J_12index_oracle8contract12fetch_prices0B5_
FN:269,_RNCNvNtCs5hPCVRE3j1J_12index_oracle8contract10mod_baskets2_0B5_
FN:45,_RNCNvNtCs5hPCVRE3j1J_12index_oracle8contract11instantiates_0B5_
FN:283,_RNvXNtCs5hPCVRE3j1J_12index_oracle8contractNtB2_11IndexOracleNtNtNtCs7ttpGOJz6iy_13shade_oracles10interfaces6common6Oracle15try_query_price
FN:59,_RNCNvNtCs5hPCVRE3j1J_12index_oracle8contract11instantiates0_0B5_
FN:100,_RNvNtCs5hPCVRE3j1J_12index_oracle8contract5query
FN:214,_RNCNvNtCs5hPCVRE3j1J_12index_oracle8contract10mod_baskets_0B5_
FN:149,_RNvNtCs5hPCVRE3j1J_12index_oracle8contract10eval_index
FN:24,_RNvNtCs5hPCVRE3j1J_12index_oracle8contract11instantiate
FN:71,_RNvNtCs5hPCVRE3j1J_12index_oracle8contract7execute
FN:202,_RNvNtCs5hPCVRE3j1J_12index_oracle8contract10mod_basket
FN:36,_RNCNvNtCs5hPCVRE3j1J_12index_oracle8contract11instantiate0B5_
FNDA:0,_RNvNtCs9asPrRpIHo_12index_oracle8contract15build_constants
FNDA:0,_RNvNtCs9asPrRpIHo_12index_oracle8contract12fetch_prices
FNDA:0,_RNCNvNtCs9asPrRpIHo_12index_oracle8contract10mod_basket0B5_
FNDA:0,_RNCNvNtCs9asPrRpIHo_12index_oracle8contract10mod_baskets2_0B5_
FNDA:0,_RNCNvXNtCs9asPrRpIHo_12index_oracle8contractNtB4_11IndexOracleNtNtNtCs7ttpGOJz6iy_13shade_oracles10interfaces6common6Oracle15try_query_price0B6_
FNDA:0,_RNCNvNtCs9asPrRpIHo_12index_oracle8contract10mod_baskets1_0B5_
FNDA:0,_RNvXNtCs9asPrRpIHo_12index_oracle8contractNtB2_11IndexOracleNtNtNtCs7ttpGOJz6iy_13shade_oracles10interfaces6common6Oracle15try_query_price
FNDA:0,_RNCNvNtCs9asPrRpIHo_12index_oracle8contract10mod_baskets0_0B5_
FNDA:0,_RNCNvNtCs9asPrRpIHo_12index_oracle8contract11instantiates_0B5_
FNDA:0,_RNvNtCs9asPrRpIHo_12index_oracle8contract5query
FNDA:0,_RNCNvNtCs9asPrRpIHo_12index_oracle8contract11instantiate0B5_
FNDA:0,_RNCNvNtCs9asPrRpIHo_12index_oracle8contract10mod_baskets_0B5_
FNDA:0,_RNvNtCs9asPrRpIHo_12index_oracle8contract10eval_index
FNDA:0,_RNCNvNtCs9asPrRpIHo_12index_oracle8contract12fetch_prices0B5_
FNDA:0,_RNvNtCs9asPrRpIHo_12index_oracle8contract11instantiate
FNDA:0,_RNvNtCs9asPrRpIHo_12index_oracle8contract7execute
FNDA:0,_RNCNvNtCs9asPrRpIHo_12index_oracle8contract11instantiates0_0B5_
FNDA:0,_RNvNtCs9asPrRpIHo_12index_oracle8contract10mod_basket
FNDA:7,_RNvNtCs5hPCVRE3j1J_12index_oracle8contract15build_constants
FNDA:18,_RNvNtCs5hPCVRE3j1J_12index_oracle8contract12fetch_prices
FNDA:4,_RNCNvNtCs5hPCVRE3j1J_12index_oracle8contract10mod_basket0B5_
FNDA:7,_RNCNvNtCs5hPCVRE3j1J_12index_oracle8contract10mod_baskets0_0B5_
FNDA:4,_RNCNvNtCs5hPCVRE3j1J_12index_oracle8contract10mod_baskets1_0B5_
FNDA:32,_RNCNvXNtCs5hPCVRE3j1J_12index_oracle8contractNtB4_11IndexOracleNtNtNtCs7ttpGOJz6iy_13shade_oracles10interfaces6common6Oracle15try_query_price0B6_
FNDA:0,_RNCNvNtCs5hPCVRE3j1J_12index_oracle8contract12fetch_prices0B5_
FNDA:4,_RNCNvNtCs5hPCVRE3j1J_12index_oracle8contract10mod_baskets2_0B5_
FNDA:24,_RNCNvNtCs5hPCVRE3j1J_12index_oracle8contract11instantiates_0B5_
FNDA:9,_RNvXNtCs5hPCVRE3j1J_12index_oracle8contractNtB2_11IndexOracleNtNtNtCs7ttpGOJz6iy_13shade_oracles10interfaces6common6Oracle15try_query_price
FNDA:24,_RNCNvNtCs5hPCVRE3j1J_12index_oracle8contract11instantiates0_0B5_
FNDA:11,_RNvNtCs5hPCVRE3j1J_12index_oracle8contract5query
FNDA:4,_RNCNvNtCs5hPCVRE3j1J_12index_oracle8contract10mod_baskets_0B5_
FNDA:11,_RNvNtCs5hPCVRE3j1J_12index_oracle8contract10eval_index
FNDA:5,_RNvNtCs5hPCVRE3j1J_12index_oracle8contract11instantiate
FNDA:2,_RNvNtCs5hPCVRE3j1J_12index_oracle8contract7execute
FNDA:2,_RNvNtCs5hPCVRE3j1J_12index_oracle8contract10mod_basket
FNDA:24,_RNCNvNtCs5hPCVRE3j1J_12index_oracle8contract11instantiate0B5_
FNF:18
FNH:17
DA:24,5
DA:25,5
DA:26,5
DA:27,5
DA:28,5
DA:29,5
DA:30,5
DA:32,5
DA:33,0
DA:34,5
DA:35,5
DA:36,24
DA:37,5
DA:38,5
DA:39,0
DA:40,0
DA:41,0
DA:42,0
DA:43,5
DA:44,5
DA:45,24
DA:46,5
DA:47,0
DA:48,0
DA:49,0
DA:50,0
DA:51,5
DA:53,5
DA:54,5
DA:55,5
DA:56,5
DA:57,5
DA:58,5
DA:59,24
DA:60,5
DA:61,5
DA:62,5
DA:63,5
DA:64,5
DA:65,5
DA:67,5
DA:68,5
DA:71,2
DA:72,2
DA:73,2
DA:74,2
DA:75,2
DA:76,2
DA:77,2
DA:79,2
DA:80,0
DA:81,0
DA:83,2
DA:84,0
DA:85,0
DA:86,0
DA:87,0
DA:89,0
DA:90,0
DA:91,0
DA:97,2
DA:100,11
DA:101,11
DA:102,11
DA:104,0
DA:109,9
DA:110,9
DA:112,9
DA:115,0
DA:116,0
DA:119,0
DA:123,2
DA:126,0
DA:131,11
DA:133,7
DA:134,7
DA:135,7
DA:136,7
DA:137,7
DA:138,7
DA:140,35
DA:141,28
DA:142,28
DA:143,28
DA:144,28
DA:145,28
DA:146,7
DA:147,7
DA:149,11
DA:150,11
DA:151,11
DA:152,11
DA:153,11
DA:154,11
DA:155,11
DA:157,47
DA:158,36
DA:159,36
DA:160,36
DA:161,36
DA:162,36
DA:163,11
DA:164,11
DA:165,11
DA:166,11
DA:167,11
DA:168,11
DA:170,18
DA:171,18
DA:172,18
DA:173,18
DA:174,18
DA:175,18
DA:176,18
DA:177,0
DA:179,18
DA:181,18
DA:182,18
DA:183,80
DA:184,62
DA:185,62
DA:187,0
DA:188,0
DA:189,0
DA:190,0
DA:191,0
DA:192,0
DA:193,0
DA:194,0
DA:195,0
DA:196,0
DA:199,18
DA:200,18
DA:202,2
DA:203,2
DA:205,2
DA:207,2
DA:208,4
DA:209,2
DA:211,2
DA:212,2
DA:213,2
DA:214,4
DA:215,2
DA:218,5
DA:220,5
DA:221,0
DA:222,0
DA:223,0
DA:224,0
DA:225,5
DA:226,5
DA:227,5
DA:228,5
DA:229,2
DA:230,3
DA:233,7
DA:234,3
DA:235,3
DA:236,0
DA:237,0
DA:238,0
DA:239,0
DA:240,2
DA:243,5
DA:244,3
DA:245,3
DA:249,2
DA:250,0
DA:251,2
DA:252,2
DA:253,2
DA:254,2
DA:255,4
DA:256,2
DA:257,2
DA:259,0
DA:260,2
DA:261,2
DA:262,2
DA:264,2
DA:265,2
DA:266,2
DA:267,2
DA:268,2
DA:269,4
DA:270,2
DA:271,2
DA:274,2
DA:275,2
DA:276,2
DA:278,2
DA:283,9
DA:284,9
DA:285,9
DA:286,9
DA:287,9
DA:288,9
DA:289,9
DA:290,9
DA:291,0
DA:292,0
DA:293,0
DA:294,0
DA:295,9
DA:297,9
DA:298,9
DA:299,9
DA:300,9
DA:301,9
DA:302,32
DA:303,9
DA:304,9
DA:305,9
DA:306,9
DA:307,9
DA:308,9
BRF:0
BRH:0
LF:227
LH:178
end_of_record
SF:/Users/saverypop/Documents/programming/secret-network/shade/oracles/contracts/index_oracle/src/lib.rs
FN:1,_RNvCs9asPrRpIHo_12index_oracle4main
FNDA:2,_RNvCs9asPrRpIHo_12index_oracle4main
FNF:1
FNH:1
DA:1,2
BRF:0
BRH:0
LF:1
LH:1
end_of_record
SF:/Users/saverypop/Documents/programming/secret-network/shade/oracles/contracts/mock_shade_pair/src/contract.rs
FN:18,_RINvXNvNtCsh5yp3hmPEOm_15mock_shade_pair8contract1__NtB5_14InstantiateMsgNtNtCs6CjExPaL98u_5serde3ser9Serialize9serializeQNtNtCs3JYPxoBuEj2_15serde_json_wasm3ser10SerializerECsdH4gd2aptD6_11integration
FN:41,_RINvXNvNtCsh5yp3hmPEOm_15mock_shade_pair8contracts1_1__NtB5_10ExecuteMsgNtNtCs6CjExPaL98u_5serde3ser9Serialize9serializeQNtNtCs3JYPxoBuEj2_15serde_json_wasm3ser10SerializerECsdH4gd2aptD6_11integration
FN:41,_RINvXNvXNvNtCsh5yp3hmPEOm_15mock_shade_pair8contracts2_1__NtB8_10ExecuteMsgNtNtCs6CjExPaL98u_5serde2de11Deserialize11deserializeNtB3_14___FieldVisitorNtB1d_7Visitor9visit_strNtNtNtCs3JYPxoBuEj2_15serde_json_wasm2de6errors5ErrorECsgkmnL3Ab2bX_24shade_oracles_multi_test
FN:18,_RINvXNvXNvNtCsh5yp3hmPEOm_15mock_shade_pair8contracts_1__NtB8_14InstantiateMsgNtNtCs6CjExPaL98u_5serde2de11Deserialize11deserializeNtB3_14___FieldVisitorNtB1g_7Visitor9visit_strNtNtNtCs3JYPxoBuEj2_15serde_json_wasm2de6errors5ErrorECsgkmnL3Ab2bX_24shade_oracles_multi_test
FN:41,_RINvXs0_NvXNvNtCsh5yp3hmPEOm_15mock_shade_pair8contracts2_1__NtBb_10ExecuteMsgNtNtCs6CjExPaL98u_5serde2de11Deserialize11deserializeNtB6_9___VisitorNtB1g_7Visitor10visit_enumNtNtNtCs3JYPxoBuEj2_15serde_json_wasm2de5enum_17UnitVariantAccessECsgkmnL3Ab2bX_24shade_oracles_multi_test
FN:18,_RINvXNvNtCsh5yp3hmPEOm_15mock_shade_pair8contracts_1__NtB5_14InstantiateMsgNtNtCs6CjExPaL98u_5serde2de11Deserialize11deserializeQNtNtCs3JYPxoBuEj2_15serde_json_wasm2de12DeserializerECsgkmnL3Ab2bX_24shade_oracles_multi_test
FN:41,_RINvXNvNtCsh5yp3hmPEOm_15mock_shade_pair8contracts2_1__NtB5_10ExecuteMsgNtNtCs6CjExPaL98u_5serde2de11Deserialize11deserializeQNtNtCs3JYPxoBuEj2_15serde_json_wasm2de12DeserializerECsgkmnL3Ab2bX_24shade_oracles_multi_test
FN:41,_RINvXNvXs0_NvXNvNtCsh5yp3hmPEOm_15mock_shade_pair8contracts2_1__NtBe_10ExecuteMsgNtNtCs6CjExPaL98u_5serde2de11Deserialize11deserializeNtB9_9___VisitorNtB1j_7Visitor10visit_enumNtB3_14___FieldVisitorB2o_9visit_strNtNtNtCs3JYPxoBuEj2_15serde_json_wasm2de6errors5ErrorECsgkmnL3Ab2bX_24shade_oracles_multi_test
FN:41,_RINvXs_NvXNvNtCsh5yp3hmPEOm_15mock_shade_pair8contracts2_1__NtBa_10ExecuteMsgNtNtCs6CjExPaL98u_5serde2de11Deserialize11deserializeNtB5_7___FieldB1d_11deserializeQNtNtCs3JYPxoBuEj2_15serde_json_wasm2de12DeserializerECsgkmnL3Ab2bX_24shade_oracles_multi_test
FN:41,_RINvXs_NvXs0_NvXNvNtCsh5yp3hmPEOm_15mock_shade_pair8contracts2_1__NtBg_10ExecuteMsgNtNtCs6CjExPaL98u_5serde2de11Deserialize11deserializeNtBb_9___VisitorNtB1l_7Visitor10visit_enumNtB5_7___FieldB1j_11deserializeNtNtNtCs3JYPxoBuEj2_15serde_json_wasm2de3map6MapKeyECsgkmnL3Ab2bX_24shade_oracles_multi_test
FN:18,_RINvXs_NvXNvNtCsh5yp3hmPEOm_15mock_shade_pair8contracts_1__NtBa_14InstantiateMsgNtNtCs6CjExPaL98u_5serde2de11Deserialize11deserializeNtB5_7___FieldB1g_11deserializeNtNtNtCs3JYPxoBuEj2_15serde_json_wasm2de3map6MapKeyECsgkmnL3Ab2bX_24shade_oracles_multi_test
FN:18,_RINvXs0_NvXNvNtCsh5yp3hmPEOm_15mock_shade_pair8contracts_1__NtBb_14InstantiateMsgNtNtCs6CjExPaL98u_5serde2de11Deserialize11deserializeNtB6_9___VisitorNtB1j_7Visitor9visit_mapNtNtNtCs3JYPxoBuEj2_15serde_json_wasm2de3map9MapAccessECsgkmnL3Ab2bX_24shade_oracles_multi_test
FN:41,_RINvXs0_NvXs0_NvXNvNtCsh5yp3hmPEOm_15mock_shade_pair8contracts2_1__NtBh_10ExecuteMsgNtNtCs6CjExPaL98u_5serde2de11Deserialize11deserializeNtBc_9___VisitorNtB1m_7Visitor10visit_enumNtB6_9___VisitorB2r_9visit_mapNtNtNtCs3JYPxoBuEj2_15serde_json_wasm2de3map9MapAccessECsgkmnL3Ab2bX_24shade_oracles_multi_test
FN:41,_RINvXs0_NvXNvNtCsh5yp3hmPEOm_15mock_shade_pair8contracts2_1__NtBb_10ExecuteMsgNtNtCs6CjExPaL98u_5serde2de11Deserialize11deserializeNtB6_9___VisitorNtB1g_7Visitor10visit_enumNtNtNtCs3JYPxoBuEj2_15serde_json_wasm2de5enum_19StructVariantAccessECsgkmnL3Ab2bX_24shade_oracles_multi_test
FN:41,_RINvXNvXs0_NvXNvNtCsh5yp3hmPEOm_15mock_shade_pair8contracts2_1__NtBe_10ExecuteMsgNtNtCs6CjExPaL98u_5serde2de11Deserialize11deserializeNtB9_9___VisitorNtB1j_7Visitor10visit_enumNtB3_14___FieldVisitorB2o_11visit_bytespEBg_
FN:41,_RINvXNvXNvNtCsh5yp3hmPEOm_15mock_shade_pair8contracts2_1__NtB8_10ExecuteMsgNtNtCs6CjExPaL98u_5serde2de11Deserialize11deserializeNtB3_14___FieldVisitorNtB1d_7Visitor11visit_bytespEBa_
FN:41,_RNvXs7_NtCsh5yp3hmPEOm_15mock_shade_pair8contractNtB5_10ExecuteMsgNtNtCs59N989QkIgV_4core3cmp9PartialEq2neB7_
FN:41,_RINvXNvXNvNtCsh5yp3hmPEOm_15mock_shade_pair8contracts2_1__NtB8_10ExecuteMsgNtNtCs6CjExPaL98u_5serde2de11Deserialize11deserializeNtB3_14___FieldVisitorNtB1d_7Visitor9visit_u64pEBa_
FN:18,_RINvXNvXNvNtCsh5yp3hmPEOm_15mock_shade_pair8contracts_1__NtB8_14InstantiateMsgNtNtCs6CjExPaL98u_5serde2de11Deserialize11deserializeNtB3_14___FieldVisitorNtB1g_7Visitor11visit_bytespEBa_
FN:41,_RINvXs0_NvXs0_NvXNvNtCsh5yp3hmPEOm_15mock_shade_pair8contracts2_1__NtBh_10ExecuteMsgNtNtCs6CjExPaL98u_5serde2de11Deserialize11deserializeNtBc_9___VisitorNtB1m_7Visitor10visit_enumNtB6_9___VisitorB2r_9visit_seqpEBj_
FN:18,_RINvXNvXNvNtCsh5yp3hmPEOm_15mock_shade_pair8contracts_1__NtB8_14InstantiateMsgNtNtCs6CjExPaL98u_5serde2de11Deserialize11deserializeNtB3_14___FieldVisitorNtB1g_7Visitor9visit_u64pEBa_
FN:18,_RINvXs0_NvXNvNtCsh5yp3hmPEOm_15mock_shade_pair8contracts_1__NtBb_14InstantiateMsgNtNtCs6CjExPaL98u_5serde2de11Deserialize11deserializeNtB6_9___VisitorNtB1j_7Visitor9visit_mappEBd_
FN:18,_RINvXs_NvXNvNtCsh5yp3hmPEOm_15mock_shade_pair8contracts_1__NtBa_14InstantiateMsgNtNtCs6CjExPaL98u_5serde2de11Deserialize11deserializeNtB5_7___FieldB1g_11deserializepEBc_
FN:41,_RINvXNvNtCsh5yp3hmPEOm_15mock_shade_pair8contracts1_1__NtB5_10ExecuteMsgNtNtCs6CjExPaL98u_5serde3ser9Serialize9serializepEB7_
FN:41,_RINvXNvXs0_NvXNvNtCsh5yp3hmPEOm_15mock_shade_pair8contracts2_1__NtBe_10ExecuteMsgNtNtCs6CjExPaL98u_5serde2de11Deserialize11deserializeNtB9_9___VisitorNtB1j_7Visitor10visit_enumNtB3_14___FieldVisitorB2o_9visit_strpEBg_
FN:41,_RINvXNvXNvNtCsh5yp3hmPEOm_15mock_shade_pair8contracts2_1__NtB8_10ExecuteMsgNtNtCs6CjExPaL98u_5serde2de11Deserialize11deserializeNtB3_14___FieldVisitorNtB1d_7Visitor9visit_strpEBa_
FN:41,_RNvXs7_NtCsh5yp3hmPEOm_15mock_shade_pair8contractNtB5_10ExecuteMsgNtNtCs59N989QkIgV_4core3cmp9PartialEq2eqB7_
FN:41,_RINvXNvNtCsh5yp3hmPEOm_15mock_shade_pair8contracts2_1__NtB5_10ExecuteMsgNtNtCs6CjExPaL98u_5serde2de11Deserialize11deserializepEB7_
FN:41,_RNvXs4_NtCsh5yp3hmPEOm_15mock_shade_pair8contractNtB5_10ExecuteMsgNtNtCs59N989QkIgV_4core5clone5Clone5cloneB7_
FN:41,_RINvXs_NvXs0_NvXNvNtCsh5yp3hmPEOm_15mock_shade_pair8contracts2_1__NtBg_10ExecuteMsgNtNtCs6CjExPaL98u_5serde2de11Deserialize11deserializeNtBb_9___VisitorNtB1l_7Visitor10visit_enumNtB5_7___FieldB1j_11deserializepEBi_
FN:18,_RINvXNvNtCsh5yp3hmPEOm_15mock_shade_pair8contract1__NtB5_14InstantiateMsgNtNtCs6CjExPaL98u_5serde3ser9Serialize9serializepEB7_
FN:18,_RNvXs3_NtCsh5yp3hmPEOm_15mock_shade_pair8contractNtB5_14InstantiateMsgNtNtCs59N989QkIgV_4core3cmp9PartialEq2eqB7_
FN:18,_RINvXNvXNvNtCsh5yp3hmPEOm_15mock_shade_pair8contracts_1__NtB8_14InstantiateMsgNtNtCs6CjExPaL98u_5serde2de11Deserialize11deserializeNtB3_14___FieldVisitorNtB1g_7Visitor9visit_strpEBa_
FN:41,_RINvXs0_NvXNvNtCsh5yp3hmPEOm_15mock_shade_pair8contracts2_1__NtBb_10ExecuteMsgNtNtCs6CjExPaL98u_5serde2de11Deserialize11deserializeNtB6_9___VisitorNtB1g_7Visitor10visit_enumpEBd_
FN:41,_RINvXs_NvXNvNtCsh5yp3hmPEOm_15mock_shade_pair8contracts2_1__NtBa_10ExecuteMsgNtNtCs6CjExPaL98u_5serde2de11Deserialize11deserializeNtB5_7___FieldB1d_11deserializepEBc_
FN:18,_RINvXs0_NvXNvNtCsh5yp3hmPEOm_15mock_shade_pair8contracts_1__NtBb_14InstantiateMsgNtNtCs6CjExPaL98u_5serde2de11Deserialize11deserializeNtB6_9___VisitorNtB1j_7Visitor9visit_seqpEBd_
FN:41,_RINvXs0_NvXs0_NvXNvNtCsh5yp3hmPEOm_15mock_shade_pair8contracts2_1__NtBh_10ExecuteMsgNtNtCs6CjExPaL98u_5serde2de11Deserialize11deserializeNtBc_9___VisitorNtB1m_7Visitor10visit_enumNtB6_9___VisitorB2r_9visit_mappEBj_
FN:41,_RINvXNvXs0_NvXNvNtCsh5yp3hmPEOm_15mock_shade_pair8contracts2_1__NtBe_10ExecuteMsgNtNtCs6CjExPaL98u_5serde2de11Deserialize11deserializeNtB9_9___VisitorNtB1j_7Visitor10visit_enumNtB3_14___FieldVisitorB2o_9visit_u64pEBg_
FN:18,_RNvXs0_NtCsh5yp3hmPEOm_15mock_shade_pair8contractNtB5_14InstantiateMsgNtNtCs59N989QkIgV_4core5clone5Clone5cloneB7_
FN:18,_RINvXNvNtCsh5yp3hmPEOm_15mock_shade_pair8contracts_1__NtB5_14InstantiateMsgNtNtCs6CjExPaL98u_5serde2de11Deserialize11deserializepEB7_
FN:18,_RNvXs0_NvXNvNtCsh5yp3hmPEOm_15mock_shade_pair8contracts_1__NtBa_14InstantiateMsgNtNtCs6CjExPaL98u_5serde2de11Deserialize11deserializeNtB5_9___VisitorNtB1i_7Visitor9expecting
FN:12,_RNvNtCsh5yp3hmPEOm_15mock_shade_pair8contract16pool_take_amount
FN:41,_RNvXNvNtCsh5yp3hmPEOm_15mock_shade_pair8contracts3_1__NtB4_10ExecuteMsgNtCs8g2TqZEio7D_8schemars10JsonSchema11json_schema
FN:41,_RNvXs5_NtCsh5yp3hmPEOm_15mock_shade_pair8contractNtB5_10ExecuteMsgNtNtCs59N989QkIgV_4core3fmt5Debug3fmt
FN:52,_RNvNtCsh5yp3hmPEOm_15mock_shade_pair8contract7execute
FN:41,_RNvXNvXNvNtCsh5yp3hmPEOm_15mock_shade_pair8contracts2_1__NtB7_10ExecuteMsgNtNtCs6CjExPaL98u_5serde2de11Deserialize11deserializeNtB2_14___FieldVisitorNtB1c_7Visitor9expecting
FN:32,_RNvNtCsh5yp3hmPEOm_15mock_shade_pair8contract11instantiate
FN:41,_RNvXNvXs0_NvXNvNtCsh5yp3hmPEOm_15mock_shade_pair8contracts2_1__NtBd_10ExecuteMsgNtNtCs6CjExPaL98u_5serde2de11Deserialize11deserializeNtB8_9___VisitorNtB1i_7Visitor10visit_enumNtB2_14___FieldVisitorB2n_9expecting
FN:18,_RNvXs1_NtCsh5yp3hmPEOm_15mock_shade_pair8contractNtB5_14InstantiateMsgNtNtCs59N989QkIgV_4core3fmt5Debug3fmt
FN:18,_RNvXNvXNvNtCsh5yp3hmPEOm_15mock_shade_pair8contracts_1__NtB7_14InstantiateMsgNtNtCs6CjExPaL98u_5serde2de11Deserialize11deserializeNtB2_14___FieldVisitorNtB1f_7Visitor9expecting
FN:18,_RNvXNvNtCsh5yp3hmPEOm_15mock_shade_pair8contracts0_1__NtB4_14InstantiateMsgNtCs8g2TqZEio7D_8schemars10JsonSchema11json_schema
FN:41,_RNvXs0_NvXNvNtCsh5yp3hmPEOm_15mock_shade_pair8contracts2_1__NtBa_10ExecuteMsgNtNtCs6CjExPaL98u_5serde2de11Deserialize11deserializeNtB5_9___VisitorNtB1f_7Visitor9expecting
FN:41,_RNvXs0_NvXs0_NvXNvNtCsh5yp3hmPEOm_15mock_shade_pair8contracts2_1__NtBg_10ExecuteMsgNtNtCs6CjExPaL98u_5serde2de11Deserialize11deserializeNtBb_9___VisitorNtB1l_7Visitor10visit_enumNtB5_9___VisitorB2q_9expecting
FN:18,_RNvXNvNtCsh5yp3hmPEOm_15mock_shade_pair8contracts0_1__NtB4_14InstantiateMsgNtCs8g2TqZEio7D_8schemars10JsonSchema11schema_name
FN:41,_RNvXNvNtCsh5yp3hmPEOm_15mock_shade_pair8contracts3_1__NtB4_10ExecuteMsgNtCs8g2TqZEio7D_8schemars10JsonSchema11schema_name
FN:101,_RNvNtCsh5yp3hmPEOm_15mock_shade_pair8contract5query
FN:41,_RNvXs4_NtCscOgr9M9zq4D_15mock_shade_pair8contractNtB5_10ExecuteMsgNtNtCs59N989QkIgV_4core5clone5Clone5cloneB7_
FN:41,_RINvXs0_NvXs0_NvXNvNtCscOgr9M9zq4D_15mock_shade_pair8contracts2_1__NtBh_10ExecuteMsgNtNtCs6CjExPaL98u_5serde2de11Deserialize11deserializeNtBc_9___VisitorNtB1m_7Visitor10visit_enumNtB6_9___VisitorB2r_9visit_seqpEBj_
FN:41,_RINvXNvNtCscOgr9M9zq4D_15mock_shade_pair8contracts2_1__NtB5_10ExecuteMsgNtNtCs6CjExPaL98u_5serde2de11Deserialize11deserializepEB7_
FN:12,_RNvNtCscOgr9M9zq4D_15mock_shade_pair8contract16pool_take_amount
FN:18,_RNvXNvNtCscOgr9M9zq4D_15mock_shade_pair8contracts0_1__NtB4_14InstantiateMsgNtCs8g2TqZEio7D_8schemars10JsonSchema11schema_name
FN:18,_RINvXNvNtCscOgr9M9zq4D_15mock_shade_pair8contracts_1__NtB5_14InstantiateMsgNtNtCs6CjExPaL98u_5serde2de11Deserialize11deserializepEB7_
FN:41,_RNvXs5_NtCscOgr9M9zq4D_15mock_shade_pair8contractNtB5_10ExecuteMsgNtNtCs59N989QkIgV_4core3fmt5Debug3fmt
FN:18,_RINvXNvXNvNtCscOgr9M9zq4D_15mock_shade_pair8contracts_1__NtB8_14InstantiateMsgNtNtCs6CjExPaL98u_5serde2de11Deserialize11deserializeNtB3_14___FieldVisitorNtB1g_7Visitor9visit_u64pEBa_
FN:32,_RNvNtCscOgr9M9zq4D_15mock_shade_pair8contract11instantiate
FN:41,_RNvXs7_NtCscOgr9M9zq4D_15mock_shade_pair8contractNtB5_10ExecuteMsgNtNtCs59N989QkIgV_4core3cmp9PartialEq2neB7_
FN:18,_RNvXs3_NtCscOgr9M9zq4D_15mock_shade_pair8contractNtB5_14InstantiateMsgNtNtCs59N989QkIgV_4core3cmp9PartialEq2eqB7_
FN:41,_RNvXs0_NvXs0_NvXNvNtCscOgr9M9zq4D_15mock_shade_pair8contracts2_1__NtBg_10ExecuteMsgNtNtCs6CjExPaL98u_5serde2de11Deserialize11deserializeNtBb_9___VisitorNtB1l_7Visitor10visit_enumNtB5_9___VisitorB2q_9expecting
FN:41,_RNvXNvXNvNtCscOgr9M9zq4D_15mock_shade_pair8contracts2_1__NtB7_10ExecuteMsgNtNtCs6CjExPaL98u_5serde2de11Deserialize11deserializeNtB2_14___FieldVisitorNtB1c_7Visitor9expecting
FN:41,_RINvXs0_NvXs0_NvXNvNtCscOgr9M9zq4D_15mock_shade_pair8contracts2_1__NtBh_10ExecuteMsgNtNtCs6CjExPaL98u_5serde2de11Deserialize11deserializeNtBc_9___VisitorNtB1m_7Visitor10visit_enumNtB6_9___VisitorB2r_9visit_mappEBj_
FN:41,_RINvXNvNtCscOgr9M9zq4D_15mock_shade_pair8contracts1_1__NtB5_10ExecuteMsgNtNtCs6CjExPaL98u_5serde3ser9Serialize9serializepEB7_
FN:41,_RINvXNvXs0_NvXNvNtCscOgr9M9zq4D_15mock_shade_pair8contracts2_1__NtBe_10ExecuteMsgNtNtCs6CjExPaL98u_5serde2de11Deserialize11deserializeNtB9_9___VisitorNtB1j_7Visitor10visit_enumNtB3_14___FieldVisitorB2o_9visit_strpEBg_
FN:41,_RINvXNvXs0_NvXNvNtCscOgr9M9zq4D_15mock_shade_pair8contracts2_1__NtBe_10ExecuteMsgNtNtCs6CjExPaL98u_5serde2de11Deserialize11deserializeNtB9_9___VisitorNtB1j_7Visitor10visit_enumNtB3_14___FieldVisitorB2o_9visit_u64pEBg_
FN:41,_RINvXNvXNvNtCscOgr9M9zq4D_15mock_shade_pair8contracts2_1__NtB8_10ExecuteMsgNtNtCs6CjExPaL98u_5serde2de11Deserialize11deserializeNtB3_14___FieldVisitorNtB1d_7Visitor9visit_strpEBa_
FN:18,_RNvXNvXNvNtCscOgr9M9zq4D_15mock_shade_pair8contracts_1__NtB7_14InstantiateMsgNtNtCs6CjExPaL98u_5serde2de11Deserialize11deserializeNtB2_14___FieldVisitorNtB1f_7Visitor9expecting
FN:41,_RINvXs0_NvXNvNtCscOgr9M9zq4D_15mock_shade_pair8contracts2_1__NtBb_10ExecuteMsgNtNtCs6CjExPaL98u_5serde2de11Deserialize11deserializeNtB6_9___VisitorNtB1g_7Visitor10visit_enumpEBd_
FN:41,_RNvXNvNtCscOgr9M9zq4D_15mock_shade_pair8contracts3_1__NtB4_10ExecuteMsgNtCs8g2TqZEio7D_8schemars10JsonSchema11json_schema
FN:52,_RNvNtCscOgr9M9zq4D_15mock_shade_pair8contract7execute
FN:41,_RINvXs_NvXNvNtCscOgr9M9zq4D_15mock_shade_pair8contracts2_1__NtBa_10ExecuteMsgNtNtCs6CjExPaL98u_5serde2de11Deserialize11deserializeNtB5_7___FieldB1d_11deserializepEBc_
FN:18,_RINvXs0_NvXNvNtCscOgr9M9zq4D_15mock_shade_pair8contracts_1__NtBb_14InstantiateMsgNtNtCs6CjExPaL98u_5serde2de11Deserialize11deserializeNtB6_9___VisitorNtB1j_7Visitor9visit_seqpEBd_
FN:41,_RNvXs0_NvXNvNtCscOgr9M9zq4D_15mock_shade_pair8contracts2_1__NtBa_10ExecuteMsgNtNtCs6CjExPaL98u_5serde2de11Deserialize11deserializeNtB5_9___VisitorNtB1f_7Visitor9expecting
FN:18,_RINvXs0_NvXNvNtCscOgr9M9zq4D_15mock_shade_pair8contracts_1__NtBb_14InstantiateMsgNtNtCs6CjExPaL98u_5serde2de11Deserialize11deserializeNtB6_9___VisitorNtB1j_7Visitor9visit_mappEBd_
FN:18,_RNvXs1_NtCscOgr9M9zq4D_15mock_shade_pair8contractNtB5_14InstantiateMsgNtNtCs59N989QkIgV_4core3fmt5Debug3fmt
FN:18,_RNvXs0_NtCscOgr9M9zq4D_15mock_shade_pair8contractNtB5_14InstantiateMsgNtNtCs59N989QkIgV_4core5clone5Clone5cloneB7_
FN:41,_RINvXNvXs0_NvXNvNtCscOgr9M9zq4D_15mock_shade_pair8contracts2_1__NtBe_10ExecuteMsgNtNtCs6CjExPaL98u_5serde2de11Deserialize11deserializeNtB9_9___VisitorNtB1j_7Visitor10visit_enumNtB3_14___FieldVisitorB2o_11visit_bytespEBg_
FN:41,_RNvXNvXs0_NvXNvNtCscOgr9M9zq4D_15mock_shade_pair8contracts2_1__NtBd_10ExecuteMsgNtNtCs6CjExPaL98u_5serde2de11Deserialize11deserializeNtB8_9___VisitorNtB1i_7Visitor10visit_enumNtB2_14___FieldVisitorB2n_9expecting
FN:18,_RNvXNvNtCscOgr9M9zq4D_15mock_shade_pair8contracts0_1__NtB4_14InstantiateMsgNtCs8g2TqZEio7D_8schemars10JsonSchema11json_schema
FN:41,_RINvXs_NvXs0_NvXNvNtCscOgr9M9zq4D_15mock_shade_pair8contracts2_1__NtBg_10ExecuteMsgNtNtCs6CjExPaL98u_5serde2de11Deserialize11deserializeNtBb_9___VisitorNtB1l_7Visitor10visit_enumNtB5_7___FieldB1j_11deserializepEBi_
FN:18,_RINvXs_NvXNvNtCscOgr9M9zq4D_15mock_shade_pair8contracts_1__NtBa_14InstantiateMsgNtNtCs6CjExPaL98u_5serde2de11Deserialize11deserializeNtB5_7___FieldB1g_11deserializepEBc_
FN:41,_RNvXNvNtCscOgr9M9zq4D_15mock_shade_pair8contracts3_1__NtB4_10ExecuteMsgNtCs8g2TqZEio7D_8schemars10JsonSchema11schema_name
FN:41,_RINvXNvXNvNtCscOgr9M9zq4D_15mock_shade_pair8contracts2_1__NtB8_10ExecuteMsgNtNtCs6CjExPaL98u_5serde2de11Deserialize11deserializeNtB3_14___FieldVisitorNtB1d_7Visitor11visit_bytespEBa_
FN:18,_RNvXs0_NvXNvNtCscOgr9M9zq4D_15mock_shade_pair8contracts_1__NtBa_14InstantiateMsgNtNtCs6CjExPaL98u_5serde2de11Deserialize11deserializeNtB5_9___VisitorNtB1i_7Visitor9expecting
FN:41,_RNvXs7_NtCscOgr9M9zq4D_15mock_shade_pair8contractNtB5_10ExecuteMsgNtNtCs59N989QkIgV_4core3cmp9PartialEq2eqB7_
FN:41,_RINvXNvXNvNtCscOgr9M9zq4D_15mock_shade_pair8contracts2_1__NtB8_10ExecuteMsgNtNtCs6CjExPaL98u_5serde2de11Deserialize11deserializeNtB3_14___FieldVisitorNtB1d_7Visitor9visit_u64pEBa_
FN:101,_RNvNtCscOgr9M9zq4D_15mock_shade_pair8contract5query
FN:18,_RINvXNvNtCscOgr9M9zq4D_15mock_shade_pair8contract1__NtB5_14InstantiateMsgNtNtCs6CjExPaL98u_5serde3ser9Serialize9serializepEB7_
FN:18,_RINvXNvXNvNtCscOgr9M9zq4D_15mock_shade_pair8contracts_1__NtB8_14InstantiateMsgNtNtCs6CjExPaL98u_5serde2de11Deserialize11deserializeNtB3_14___FieldVisitorNtB1g_7Visitor9visit_strpEBa_
FN:18,_RINvXNvXNvNtCscOgr9M9zq4D_15mock_shade_pair8contracts_1__NtB8_14InstantiateMsgNtNtCs6CjExPaL98u_5serde2de11Deserialize11deserializeNtB3_14___FieldVisitorNtB1g_7Visitor11visit_bytespEBa_
FNDA:3,_RINvXNvNtCsh5yp3hmPEOm_15mock_shade_pair8contract1__NtB5_14InstantiateMsgNtNtCs6CjExPaL98u_5serde3ser9Serialize9serializeQNtNtCs3JYPxoBuEj2_15serde_json_wasm3ser10SerializerECsdH4gd2aptD6_11integration
FNDA:3,_RINvXNvNtCsh5yp3hmPEOm_15mock_shade_pair8contracts1_1__NtB5_10ExecuteMsgNtNtCs6CjExPaL98u_5serde3ser9Serialize9serializeQNtNtCs3JYPxoBuEj2_15serde_json_wasm3ser10SerializerECsdH4gd2aptD6_11integration
FNDA:3,_RINvXNvXNvNtCsh5yp3hmPEOm_15mock_shade_pair8contracts2_1__NtB8_10ExecuteMsgNtNtCs6CjExPaL98u_5serde2de11Deserialize11deserializeNtB3_14___FieldVisitorNtB1d_7Visitor9visit_strNtNtNtCs3JYPxoBuEj2_15serde_json_wasm2de6errors5ErrorECsgkmnL3Ab2bX_24shade_oracles_multi_test
FNDA:0,_RINvXNvXNvNtCsh5yp3hmPEOm_15mock_shade_pair8contracts_1__NtB8_14InstantiateMsgNtNtCs6CjExPaL98u_5serde2de11Deserialize11deserializeNtB3_14___FieldVisitorNtB1g_7Visitor9visit_strNtNtNtCs3JYPxoBuEj2_15serde_json_wasm2de6errors5ErrorECsgkmnL3Ab2bX_24shade_oracles_multi_test
FNDA:0,_RINvXs0_NvXNvNtCsh5yp3hmPEOm_15mock_shade_pair8contracts2_1__NtBb_10ExecuteMsgNtNtCs6CjExPaL98u_5serde2de11Deserialize11deserializeNtB6_9___VisitorNtB1g_7Visitor10visit_enumNtNtNtCs3JYPxoBuEj2_15serde_json_wasm2de5enum_17UnitVariantAccessECsgkmnL3Ab2bX_24shade_oracles_multi_test
FNDA:3,_RINvXNvNtCsh5yp3hmPEOm_15mock_shade_pair8contracts_1__NtB5_14InstantiateMsgNtNtCs6CjExPaL98u_5serde2de11Deserialize11deserializeQNtNtCs3JYPxoBuEj2_15serde_json_wasm2de12DeserializerECsgkmnL3Ab2bX_24shade_oracles_multi_test
FNDA:3,_RINvXNvNtCsh5yp3hmPEOm_15mock_shade_pair8contracts2_1__NtB5_10ExecuteMsgNtNtCs6CjExPaL98u_5serde2de11Deserialize11deserializeQNtNtCs3JYPxoBuEj2_15serde_json_wasm2de12DeserializerECsgkmnL3Ab2bX_24shade_oracles_multi_test
FNDA:12,_RINvXNvXs0_NvXNvNtCsh5yp3hmPEOm_15mock_shade_pair8contracts2_1__NtBe_10ExecuteMsgNtNtCs6CjExPaL98u_5serde2de11Deserialize11deserializeNtB9_9___VisitorNtB1j_7Visitor10visit_enumNtB3_14___FieldVisitorB2o_9visit_strNtNtNtCs3JYPxoBuEj2_15serde_json_wasm2de6errors5ErrorECsgkmnL3Ab2bX_24shade_oracles_multi_test
FNDA:3,_RINvXs_NvXNvNtCsh5yp3hmPEOm_15mock_shade_pair8contracts2_1__NtBa_10ExecuteMsgNtNtCs6CjExPaL98u_5serde2de11Deserialize11deserializeNtB5_7___FieldB1d_11deserializeQNtNtCs3JYPxoBuEj2_15serde_json_wasm2de12DeserializerECsgkmnL3Ab2bX_24shade_oracles_multi_test
FNDA:12,_RINvXs_NvXs0_NvXNvNtCsh5yp3hmPEOm_15mock_shade_pair8contracts2_1__NtBg_10ExecuteMsgNtNtCs6CjExPaL98u_5serde2de11Deserialize11deserializeNtBb_9___VisitorNtB1l_7Visitor10visit_enumNtB5_7___FieldB1j_11deserializeNtNtNtCs3JYPxoBuEj2_15serde_json_wasm2de3map6MapKeyECsgkmnL3Ab2bX_24shade_oracles_multi_test
FNDA:0,_RINvXs_NvXNvNtCsh5yp3hmPEOm_15mock_shade_pair8contracts_1__NtBa_14InstantiateMsgNtNtCs6CjExPaL98u_5serde2de11Deserialize11deserializeNtB5_7___FieldB1g_11deserializeNtNtNtCs3JYPxoBuEj2_15serde_json_wasm2de3map6MapKeyECsgkmnL3Ab2bX_24shade_oracles_multi_test
FNDA:0,_RINvXs0_NvXNvNtCsh5yp3hmPEOm_15mock_shade_pair8contracts_1__NtBb_14InstantiateMsgNtNtCs6CjExPaL98u_5serde2de11Deserialize11deserializeNtB6_9___VisitorNtB1j_7Visitor9visit_mapNtNtNtCs3JYPxoBuEj2_15serde_json_wasm2de3map9MapAccessECsgkmnL3Ab2bX_24shade_oracles_multi_test
FNDA:15,_RINvXs0_NvXs0_NvXNvNtCsh5yp3hmPEOm_15mock_shade_pair8contracts2_1__NtBh_10ExecuteMsgNtNtCs6CjExPaL98u_5serde2de11Deserialize11deserializeNtBc_9___VisitorNtB1m_7Visitor10visit_enumNtB6_9___VisitorB2r_9visit_mapNtNtNtCs3JYPxoBuEj2_15serde_json_wasm2de3map9MapAccessECsgkmnL3Ab2bX_24shade_oracles_multi_test
FNDA:3,_RINvXs0_NvXNvNtCsh5yp3hmPEOm_15mock_shade_pair8contracts2_1__NtBb_10ExecuteMsgNtNtCs6CjExPaL98u_5serde2de11Deserialize11deserializeNtB6_9___VisitorNtB1g_7Visitor10visit_enumNtNtNtCs3JYPxoBuEj2_15serde_json_wasm2de5enum_19StructVariantAccessECsgkmnL3Ab2bX_24shade_oracles_multi_test
FNDA:0,_RINvXNvXs0_NvXNvNtCsh5yp3hmPEOm_15mock_shade_pair8contracts2_1__NtBe_10ExecuteMsgNtNtCs6CjExPaL98u_5serde2de11Deserialize11deserializeNtB9_9___VisitorNtB1j_7Visitor10visit_enumNtB3_14___FieldVisitorB2o_11visit_bytespEBg_
FNDA:0,_RINvXNvXNvNtCsh5yp3hmPEOm_15mock_shade_pair8contracts2_1__NtB8_10ExecuteMsgNtNtCs6CjExPaL98u_5serde2de11Deserialize11deserializeNtB3_14___FieldVisitorNtB1d_7Visitor11visit_bytespEBa_
FNDA:0,_RNvXs7_NtCsh5yp3hmPEOm_15mock_shade_pair8contractNtB5_10ExecuteMsgNtNtCs59N989QkIgV_4core3cmp9PartialEq2neB7_
FNDA:0,_RINvXNvXNvNtCsh5yp3hmPEOm_15mock_shade_pair8contracts2_1__NtB8_10ExecuteMsgNtNtCs6CjExPaL98u_5serde2de11Deserialize11deserializeNtB3_14___FieldVisitorNtB1d_7Visitor9visit_u64pEBa_
FNDA:0,_RINvXNvXNvNtCsh5yp3hmPEOm_15mock_shade_pair8contracts_1__NtB8_14InstantiateMsgNtNtCs6CjExPaL98u_5serde2de11Deserialize11deserializeNtB3_14___FieldVisitorNtB1g_7Visitor11visit_bytespEBa_
FNDA:0,_RINvXs0_NvXs0_NvXNvNtCsh5yp3hmPEOm_15mock_shade_pair8contracts2_1__NtBh_10ExecuteMsgNtNtCs6CjExPaL98u_5serde2de11Deserialize11deserializeNtBc_9___VisitorNtB1m_7Visitor10visit_enumNtB6_9___VisitorB2r_9visit_seqpEBj_
FNDA:0,_RINvXNvXNvNtCsh5yp3hmPEOm_15mock_shade_pair8contracts_1__NtB8_14InstantiateMsgNtNtCs6CjExPaL98u_5serde2de11Deserialize11deserializeNtB3_14___FieldVisitorNtB1g_7Visitor9visit_u64pEBa_
FNDA:0,_RINvXs0_NvXNvNtCsh5yp3hmPEOm_15mock_shade_pair8contracts_1__NtBb_14InstantiateMsgNtNtCs6CjExPaL98u_5serde2de11Deserialize11deserializeNtB6_9___VisitorNtB1j_7Visitor9visit_mappEBd_
FNDA:0,_RINvXs_NvXNvNtCsh5yp3hmPEOm_15mock_shade_pair8contracts_1__NtBa_14InstantiateMsgNtNtCs6CjExPaL98u_5serde2de11Deserialize11deserializeNtB5_7___FieldB1g_11deserializepEBc_
FNDA:0,_RINvXNvNtCsh5yp3hmPEOm_15mock_shade_pair8contracts1_1__NtB5_10ExecuteMsgNtNtCs6CjExPaL98u_5serde3ser9Serialize9serializepEB7_
FNDA:0,_RINvXNvXs0_NvXNvNtCsh5yp3hmPEOm_15mock_shade_pair8contracts2_1__NtBe_10ExecuteMsgNtNtCs6CjExPaL98u_5serde2de11Deserialize11deserializeNtB9_9___VisitorNtB1j_7Visitor10visit_enumNtB3_14___FieldVisitorB2o_9visit_strpEBg_
FNDA:0,_RINvXNvXNvNtCsh5yp3hmPEOm_15mock_shade_pair8contracts2_1__NtB8_10ExecuteMsgNtNtCs6CjExPaL98u_5serde2de11Deserialize11deserializeNtB3_14___FieldVisitorNtB1d_7Visitor9visit_strpEBa_
FNDA:0,_RNvXs7_NtCsh5yp3hmPEOm_15mock_shade_pair8contractNtB5_10ExecuteMsgNtNtCs59N989QkIgV_4core3cmp9PartialEq2eqB7_
FNDA:0,_RINvXNvNtCsh5yp3hmPEOm_15mock_shade_pair8contracts2_1__NtB5_10ExecuteMsgNtNtCs6CjExPaL98u_5serde2de11Deserialize11deserializepEB7_
FNDA:0,_RNvXs4_NtCsh5yp3hmPEOm_15mock_shade_pair8contractNtB5_10ExecuteMsgNtNtCs59N989QkIgV_4core5clone5Clone5cloneB7_
FNDA:0,_RINvXs_NvXs0_NvXNvNtCsh5yp3hmPEOm_15mock_shade_pair8contracts2_1__NtBg_10ExecuteMsgNtNtCs6CjExPaL98u_5serde2de11Deserialize11deserializeNtBb_9___VisitorNtB1l_7Visitor10visit_enumNtB5_7___FieldB1j_11deserializepEBi_
FNDA:0,_RINvXNvNtCsh5yp3hmPEOm_15mock_shade_pair8contract1__NtB5_14InstantiateMsgNtNtCs6CjExPaL98u_5serde3ser9Serialize9serializepEB7_
FNDA:0,_RNvXs3_NtCsh5yp3hmPEOm_15mock_shade_pair8contractNtB5_14InstantiateMsgNtNtCs59N989QkIgV_4core3cmp9PartialEq2eqB7_
FNDA:0,_RINvXNvXNvNtCsh5yp3hmPEOm_15mock_shade_pair8contracts_1__NtB8_14InstantiateMsgNtNtCs6CjExPaL98u_5serde2de11Deserialize11deserializeNtB3_14___FieldVisitorNtB1g_7Visitor9visit_strpEBa_
FNDA:0,_RINvXs0_NvXNvNtCsh5yp3hmPEOm_15mock_shade_pair8contracts2_1__NtBb_10ExecuteMsgNtNtCs6CjExPaL98u_5serde2de11Deserialize11deserializeNtB6_9___VisitorNtB1g_7Visitor10visit_enumpEBd_
FNDA:0,_RINvXs_NvXNvNtCsh5yp3hmPEOm_15mock_shade_pair8contracts2_1__NtBa_10ExecuteMsgNtNtCs6CjExPaL98u_5serde2de11Deserialize11deserializeNtB5_7___FieldB1d_11deserializepEBc_
FNDA:0,_RINvXs0_NvXNvNtCsh5yp3hmPEOm_15mock_shade_pair8contracts_1__NtBb_14InstantiateMsgNtNtCs6CjExPaL98u_5serde2de11Deserialize11deserializeNtB6_9___VisitorNtB1j_7Visitor9visit_seqpEBd_
FNDA:0,_RINvXs0_NvXs0_NvXNvNtCsh5yp3hmPEOm_15mock_shade_pair8contracts2_1__NtBh_10ExecuteMsgNtNtCs6CjExPaL98u_5serde2de11Deserialize11deserializeNtBc_9___VisitorNtB1m_7Visitor10visit_enumNtB6_9___VisitorB2r_9visit_mappEBj_
FNDA:0,_RINvXNvXs0_NvXNvNtCsh5yp3hmPEOm_15mock_shade_pair8contracts2_1__NtBe_10ExecuteMsgNtNtCs6CjExPaL98u_5serde2de11Deserialize11deserializeNtB9_9___VisitorNtB1j_7Visitor10visit_enumNtB3_14___FieldVisitorB2o_9visit_u64pEBg_
FNDA:0,_RNvXs0_NtCsh5yp3hmPEOm_15mock_shade_pair8contractNtB5_14InstantiateMsgNtNtCs59N989QkIgV_4core5clone5Clone5cloneB7_
FNDA:0,_RINvXNvNtCsh5yp3hmPEOm_15mock_shade_pair8contracts_1__NtB5_14InstantiateMsgNtNtCs6CjExPaL98u_5serde2de11Deserialize11deserializepEB7_
FNDA:0,_RNvXs0_NvXNvNtCsh5yp3hmPEOm_15mock_shade_pair8contracts_1__NtBa_14InstantiateMsgNtNtCs6CjExPaL98u_5serde2de11Deserialize11deserializeNtB5_9___VisitorNtB1i_7Visitor9expecting
FNDA:3,_RNvNtCsh5yp3hmPEOm_15mock_shade_pair8contract16pool_take_amount
FNDA:0,_RNvXNvNtCsh5yp3hmPEOm_15mock_shade_pair8contracts3_1__NtB4_10ExecuteMsgNtCs8g2TqZEio7D_8schemars10JsonSchema11json_schema
FNDA:0,_RNvXs5_NtCsh5yp3hmPEOm_15mock_shade_pair8contractNtB5_10ExecuteMsgNtNtCs59N989QkIgV_4core3fmt5Debug3fmt
FNDA:3,_RNvNtCsh5yp3hmPEOm_15mock_shade_pair8contract7execute
FNDA:0,_RNvXNvXNvNtCsh5yp3hmPEOm_15mock_shade_pair8contracts2_1__NtB7_10ExecuteMsgNtNtCs6CjExPaL98u_5serde2de11Deserialize11deserializeNtB2_14___FieldVisitorNtB1c_7Visitor9expecting
FNDA:3,_RNvNtCsh5yp3hmPEOm_15mock_shade_pair8contract11instantiate
FNDA:0,_RNvXNvXs0_NvXNvNtCsh5yp3hmPEOm_15mock_shade_pair8contracts2_1__NtBd_10ExecuteMsgNtNtCs6CjExPaL98u_5serde2de11Deserialize11deserializeNtB8_9___VisitorNtB1i_7Visitor10visit_enumNtB2_14___FieldVisitorB2n_9expecting
FNDA:0,_RNvXs1_NtCsh5yp3hmPEOm_15mock_shade_pair8contractNtB5_14InstantiateMsgNtNtCs59N989QkIgV_4core3fmt5Debug3fmt
FNDA:0,_RNvXNvXNvNtCsh5yp3hmPEOm_15mock_shade_pair8contracts_1__NtB7_14InstantiateMsgNtNtCs6CjExPaL98u_5serde2de11Deserialize11deserializeNtB2_14___FieldVisitorNtB1f_7Visitor9expecting
FNDA:0,_RNvXNvNtCsh5yp3hmPEOm_15mock_shade_pair8contracts0_1__NtB4_14InstantiateMsgNtCs8g2TqZEio7D_8schemars10JsonSchema11json_schema
FNDA:0,_RNvXs0_NvXNvNtCsh5yp3hmPEOm_15mock_shade_pair8contracts2_1__NtBa_10ExecuteMsgNtNtCs6CjExPaL98u_5serde2de11Deserialize11deserializeNtB5_9___VisitorNtB1f_7Visitor9expecting
FNDA:0,_RNvXs0_NvXs0_NvXNvNtCsh5yp3hmPEOm_15mock_shade_pair8contracts2_1__NtBg_10ExecuteMsgNtNtCs6CjExPaL98u_5serde2de11Deserialize11deserializeNtBb_9___VisitorNtB1l_7Visitor10visit_enumNtB5_9___VisitorB2q_9expecting
FNDA:0,_RNvXNvNtCsh5yp3hmPEOm_15mock_shade_pair8contracts0_1__NtB4_14InstantiateMsgNtCs8g2TqZEio7D_8schemars10JsonSchema11schema_name
FNDA:0,_RNvXNvNtCsh5yp3hmPEOm_15mock_shade_pair8contracts3_1__NtB4_10ExecuteMsgNtCs8g2TqZEio7D_8schemars10JsonSchema11schema_name
FNDA:6,_RNvNtCsh5yp3hmPEOm_15mock_shade_pair8contract5query
FNDA:0,_RNvXs4_NtCscOgr9M9zq4D_15mock_shade_pair8contractNtB5_10ExecuteMsgNtNtCs59N989QkIgV_4core5clone5Clone5cloneB7_
FNDA:0,_RINvXs0_NvXs0_NvXNvNtCscOgr9M9zq4D_15mock_shade_pair8contracts2_1__NtBh_10ExecuteMsgNtNtCs6CjExPaL98u_5serde2de11Deserialize11deserializeNtBc_9___VisitorNtB1m_7Visitor10visit_enumNtB6_9___VisitorB2r_9visit_seqpEBj_
FNDA:0,_RINvXNvNtCscOgr9M9zq4D_15mock_shade_pair8contracts2_1__NtB5_10ExecuteMsgNtNtCs6CjExPaL98u_5serde2de11Deserialize11deserializepEB7_
FNDA:0,_RNvNtCscOgr9M9zq4D_15mock_shade_pair8contract16pool_take_amount
FNDA:0,_RNvXNvNtCscOgr9M9zq4D_15mock_shade_pair8contracts0_1__NtB4_14InstantiateMsgNtCs8g2TqZEio7D_8schemars10JsonSchema11schema_name
FNDA:0,_RINvXNvNtCscOgr9M9zq4D_15mock_shade_pair8contracts_1__NtB5_14InstantiateMsgNtNtCs6CjExPaL98u_5serde2de11Deserialize11deserializepEB7_
FNDA:0,_RNvXs5_NtCscOgr9M9zq4D_15mock_shade_pair8contractNtB5_10ExecuteMsgNtNtCs59N989QkIgV_4core3fmt5Debug3fmt
FNDA:0,_RINvXNvXNvNtCscOgr9M9zq4D_15mock_shade_pair8contracts_1__NtB8_14InstantiateMsgNtNtCs6CjExPaL98u_5serde2de11Deserialize11deserializeNtB3_14___FieldVisitorNtB1g_7Visitor9visit_u64pEBa_
FNDA:0,_RNvNtCscOgr9M9zq4D_15mock_shade_pair8contract11instantiate
FNDA:0,_RNvXs7_NtCscOgr9M9zq4D_15mock_shade_pair8contractNtB5_10ExecuteMsgNtNtCs59N989QkIgV_4core3cmp9PartialEq2neB7_
FNDA:0,_RNvXs3_NtCscOgr9M9zq4D_15mock_shade_pair8contractNtB5_14InstantiateMsgNtNtCs59N989QkIgV_4core3cmp9PartialEq2eqB7_
FNDA:0,_RNvXs0_NvXs0_NvXNvNtCscOgr9M9zq4D_15mock_shade_pair8contracts2_1__NtBg_10ExecuteMsgNtNtCs6CjExPaL98u_5serde2de11Deserialize11deserializeNtBb_9___VisitorNtB1l_7Visitor10visit_enumNtB5_9___VisitorB2q_9expecting
FNDA:0,_RNvXNvXNvNtCscOgr9M9zq4D_15mock_shade_pair8contracts2_1__NtB7_10ExecuteMsgNtNtCs6CjExPaL98u_5serde2de11Deserialize11deserializeNtB2_14___FieldVisitorNtB1c_7Visitor9expecting
FNDA:0,_RINvXs0_NvXs0_NvXNvNtCscOgr9M9zq4D_15mock_shade_pair8contracts2_1__NtBh_10ExecuteMsgNtNtCs6CjExPaL98u_5serde2de11Deserialize11deserializeNtBc_9___VisitorNtB1m_7Visitor10visit_enumNtB6_9___VisitorB2r_9visit_mappEBj_
FNDA:0,_RINvXNvNtCscOgr9M9zq4D_15mock_shade_pair8contracts1_1__NtB5_10ExecuteMsgNtNtCs6CjExPaL98u_5serde3ser9Serialize9serializepEB7_
FNDA:0,_RINvXNvXs0_NvXNvNtCscOgr9M9zq4D_15mock_shade_pair8contracts2_1__NtBe_10ExecuteMsgNtNtCs6CjExPaL98u_5serde2de11Deserialize11deserializeNtB9_9___VisitorNtB1j_7Visitor10visit_enumNtB3_14___FieldVisitorB2o_9visit_strpEBg_
FNDA:0,_RINvXNvXs0_NvXNvNtCscOgr9M9zq4D_15mock_shade_pair8contracts2_1__NtBe_10ExecuteMsgNtNtCs6CjExPaL98u_5serde2de11Deserialize11deserializeNtB9_9___VisitorNtB1j_7Visitor10visit_enumNtB3_14___FieldVisitorB2o_9visit_u64pEBg_
FNDA:0,_RINvXNvXNvNtCscOgr9M9zq4D_15mock_shade_pair8contracts2_1__NtB8_10ExecuteMsgNtNtCs6CjExPaL98u_5serde2de11Deserialize11deserializeNtB3_14___FieldVisitorNtB1d_7Visitor9visit_strpEBa_
FNDA:0,_RNvXNvXNvNtCscOgr9M9zq4D_15mock_shade_pair8contracts_1__NtB7_14InstantiateMsgNtNtCs6CjExPaL98u_5serde2de11Deserialize11deserializeNtB2_14___FieldVisitorNtB1f_7Visitor9expecting
FNDA:0,_RINvXs0_NvXNvNtCscOgr9M9zq4D_15mock_shade_pair8contracts2_1__NtBb_10ExecuteMsgNtNtCs6CjExPaL98u_5serde2de11Deserialize11deserializeNtB6_9___VisitorNtB1g_7Visitor10visit_enumpEBd_
FNDA:0,_RNvXNvNtCscOgr9M9zq4D_15mock_shade_pair8contracts3_1__NtB4_10ExecuteMsgNtCs8g2TqZEio7D_8schemars10JsonSchema11json_schema
FNDA:0,_RNvNtCscOgr9M9zq4D_15mock_shade_pair8contract7execute
FNDA:0,_RINvXs_NvXNvNtCscOgr9M9zq4D_15mock_shade_pair8contracts2_1__NtBa_10ExecuteMsgNtNtCs6CjExPaL98u_5serde2de11Deserialize11deserializeNtB5_7___FieldB1d_11deserializepEBc_
FNDA:0,_RINvXs0_NvXNvNtCscOgr9M9zq4D_15mock_shade_pair8contracts_1__NtBb_14InstantiateMsgNtNtCs6CjExPaL98u_5serde2de11Deserialize11deserializeNtB6_9___VisitorNtB1j_7Visitor9visit_seqpEBd_
FNDA:0,_RNvXs0_NvXNvNtCscOgr9M9zq4D_15mock_shade_pair8contracts2_1__NtBa_10ExecuteMsgNtNtCs6CjExPaL98u_5serde2de11Deserialize11deserializeNtB5_9___VisitorNtB1f_7Visitor9expecting
FNDA:0,_RINvXs0_NvXNvNtCscOgr9M9zq4D_15mock_shade_pair8contracts_1__NtBb_14InstantiateMsgNtNtCs6CjExPaL98u_5serde2de11Deserialize11deserializeNtB6_9___VisitorNtB1j_7Visitor9visit_mappEBd_
FNDA:0,_RNvXs1_NtCscOgr9M9zq4D_15mock_shade_pair8contractNtB5_14InstantiateMsgNtNtCs59N989QkIgV_4core3fmt5Debug3fmt
FNDA:0,_RNvXs0_NtCscOgr9M9zq4D_15mock_shade_pair8contractNtB5_14InstantiateMsgNtNtCs59N989QkIgV_4core5clone5Clone5cloneB7_
FNDA:0,_RINvXNvXs0_NvXNvNtCscOgr9M9zq4D_15mock_shade_pair8contracts2_1__NtBe_10ExecuteMsgNtNtCs6CjExPaL98u_5serde2de11Deserialize11deserializeNtB9_9___VisitorNtB1j_7Visitor10visit_enumNtB3_14___FieldVisitorB2o_11visit_bytespEBg_
FNDA:0,_RNvXNvXs0_NvXNvNtCscOgr9M9zq4D_15mock_shade_pair8contracts2_1__NtBd_10ExecuteMsgNtNtCs6CjExPaL98u_5serde2de11Deserialize11deserializeNtB8_9___VisitorNtB1i_7Visitor10visit_enumNtB2_14___FieldVisitorB2n_9expecting
FNDA:0,_RNvXNvNtCscOgr9M9zq4D_15mock_shade_pair8contracts0_1__NtB4_14InstantiateMsgNtCs8g2TqZEio7D_8schemars10JsonSchema11json_schema
FNDA:0,_RINvXs_NvXs0_NvXNvNtCscOgr9M9zq4D_15mock_shade_pair8contracts2_1__NtBg_10ExecuteMsgNtNtCs6CjExPaL98u_5serde2de11Deserialize11deserializeNtBb_9___VisitorNtB1l_7Visitor10visit_enumNtB5_7___FieldB1j_11deserializepEBi_
FNDA:0,_RINvXs_NvXNvNtCscOgr9M9zq4D_15mock_shade_pair8contracts_1__NtBa_14InstantiateMsgNtNtCs6CjExPaL98u_5serde2de11Deserialize11deserializeNtB5_7___FieldB1g_11deserializepEBc_
FNDA:0,_RNvXNvNtCscOgr9M9zq4D_15mock_shade_pair8contracts3_1__NtB4_10ExecuteMsgNtCs8g2TqZEio7D_8schemars10JsonSchema11schema_name
FNDA:0,_RINvXNvXNvNtCscOgr9M9zq4D_15mock_shade_pair8contracts2_1__NtB8_10ExecuteMsgNtNtCs6CjExPaL98u_5serde2de11Deserialize11deserializeNtB3_14___FieldVisitorNtB1d_7Visitor11visit_bytespEBa_
FNDA:0,_RNvXs0_NvXNvNtCscOgr9M9zq4D_15mock_shade_pair8contracts_1__NtBa_14InstantiateMsgNtNtCs6CjExPaL98u_5serde2de11Deserialize11deserializeNtB5_9___VisitorNtB1i_7Visitor9expecting
FNDA:0,_RNvXs7_NtCscOgr9M9zq4D_15mock_shade_pair8contractNtB5_10ExecuteMsgNtNtCs59N989QkIgV_4core3cmp9PartialEq2eqB7_
FNDA:0,_RINvXNvXNvNtCscOgr9M9zq4D_15mock_shade_pair8contracts2_1__NtB8_10ExecuteMsgNtNtCs6CjExPaL98u_5serde2de11Deserialize11deserializeNtB3_14___FieldVisitorNtB1d_7Visitor9visit_u64pEBa_
FNDA:0,_RNvNtCscOgr9M9zq4D_15mock_shade_pair8contract5query
FNDA:0,_RINvXNvNtCscOgr9M9zq4D_15mock_shade_pair8contract1__NtB5_14InstantiateMsgNtNtCs6CjExPaL98u_5serde3ser9Serialize9serializepEB7_
FNDA:0,_RINvXNvXNvNtCscOgr9M9zq4D_15mock_shade_pair8contracts_1__NtB8_14InstantiateMsgNtNtCs6CjExPaL98u_5serde2de11Deserialize11deserializeNtB3_14___FieldVisitorNtB1g_7Visitor9visit_strpEBa_
FNDA:0,_RINvXNvXNvNtCscOgr9M9zq4D_15mock_shade_pair8contracts_1__NtB8_14InstantiateMsgNtNtCs6CjExPaL98u_5serde2de11Deserialize11deserializeNtB3_14___FieldVisitorNtB1g_7Visitor11visit_bytespEBa_
FNF:6
FNH:6
DA:12,3
DA:13,3
DA:14,3
DA:15,3
DA:16,3
DA:18,3
DA:32,3
DA:33,3
DA:34,3
DA:35,3
DA:36,3
DA:37,3
DA:38,3
DA:39,3
DA:41,36
DA:52,3
DA:53,3
DA:54,3
DA:55,3
DA:56,3
DA:57,3
DA:58,3
DA:59,3
DA:60,3
DA:61,3
DA:62,3
DA:63,3
DA:64,3
DA:65,3
DA:66,3
DA:67,3
DA:68,3
DA:69,3
DA:70,3
DA:71,3
DA:72,3
DA:73,3
DA:74,3
DA:75,3
DA:76,3
DA:77,3
DA:78,3
DA:79,3
DA:80,3
DA:81,3
DA:82,3
DA:83,3
DA:84,3
DA:85,3
DA:86,3
DA:87,3
DA:88,3
DA:89,3
DA:90,3
DA:91,3
DA:93,3
DA:98,3
DA:101,6
DA:102,6
DA:103,3
DA:104,3
DA:107,3
DA:109,3
DA:110,3
DA:111,3
DA:112,3
DA:113,3
DA:114,3
DA:116,0
DA:120,3
DA:122,3
DA:124,3
DA:125,3
DA:126,3
DA:127,3
DA:128,3
DA:129,3
DA:130,3
DA:131,3
DA:132,3
DA:133,3
DA:134,3
DA:135,0
DA:138,0
DA:142,0
DA:144,0
DA:145,0
DA:146,0
DA:147,0
DA:148,0
DA:149,0
DA:150,0
DA:151,0
DA:152,0
DA:153,0
DA:154,0
DA:155,0
DA:158,0
DA:162,0
DA:165,6
BRF:0
BRH:0
LF:100
LH:82
end_of_record
SF:/Users/saverypop/Documents/programming/secret-network/shade/oracles/contracts/mock_shade_pair/src/lib.rs
FN:1,_RNvCscOgr9M9zq4D_15mock_shade_pair4main
FNDA:2,_RNvCscOgr9M9zq4D_15mock_shade_pair4main
FNF:1
FNH:1
DA:1,2
BRF:0
BRH:0
LF:1
LH:1
end_of_record
SF:/Users/saverypop/Documents/programming/secret-network/shade/oracles/contracts/mock_sienna_pair/src/contract.rs
FN:21,_RINvXNvXNvNtCsgdCcd701khX_16mock_sienna_pair8contracts_1__NtB8_14InstantiateMsgNtNtCs6CjExPaL98u_5serde2de11Deserialize11deserializeNtB3_14___FieldVisitorNtB1h_7Visitor9visit_strNtNtNtCs3JYPxoBuEj2_15serde_json_wasm2de6errors5ErrorECsgkmnL3Ab2bX_24shade_oracles_multi_test
FN:52,_RINvXs0_NvXNvNtCsgdCcd701khX_16mock_sienna_pair8contracts2_1__NtBb_10ExecuteMsgNtNtCs6CjExPaL98u_5serde2de11Deserialize11deserializeNtB6_9___VisitorNtB1h_7Visitor10visit_enumNtNtNtCs3JYPxoBuEj2_15serde_json_wasm2de5enum_19StructVariantAccessECsgkmnL3Ab2bX_24shade_oracles_multi_test
FN:21,_RINvXs_NvXNvNtCsgdCcd701khX_16mock_sienna_pair8contracts_1__NtBa_14InstantiateMsgNtNtCs6CjExPaL98u_5serde2de11Deserialize11deserializeNtB5_7___FieldB1h_11deserializeNtNtNtCs3JYPxoBuEj2_15serde_json_wasm2de3map6MapKeyECsgkmnL3Ab2bX_24shade_oracles_multi_test
FN:52,_RINvXs0_NvXNvNtCsgdCcd701khX_16mock_sienna_pair8contracts2_1__NtBb_10ExecuteMsgNtNtCs6CjExPaL98u_5serde2de11Deserialize11deserializeNtB6_9___VisitorNtB1h_7Visitor10visit_enumNtNtNtCs3JYPxoBuEj2_15serde_json_wasm2de5enum_17UnitVariantAccessECsgkmnL3Ab2bX_24shade_oracles_multi_test
FN:52,_RINvXNvNtCsgdCcd701khX_16mock_sienna_pair8contracts2_1__NtB5_10ExecuteMsgNtNtCs6CjExPaL98u_5serde2de11Deserialize11deserializeQNtNtCs3JYPxoBuEj2_15serde_json_wasm2de12DeserializerECsgkmnL3Ab2bX_24shade_oracles_multi_test
FN:52,_RINvXs_NvXNvNtCsgdCcd701khX_16mock_sienna_pair8contracts2_1__NtBa_10ExecuteMsgNtNtCs6CjExPaL98u_5serde2de11Deserialize11deserializeNtB5_7___FieldB1e_11deserializeQNtNtCs3JYPxoBuEj2_15serde_json_wasm2de12DeserializerECsgkmnL3Ab2bX_24shade_oracles_multi_test
FN:52,_RINvXNvXNvNtCsgdCcd701khX_16mock_sienna_pair8contracts2_1__NtB8_10ExecuteMsgNtNtCs6CjExPaL98u_5serde2de11Deserialize11deserializeNtB3_14___FieldVisitorNtB1e_7Visitor9visit_strNtNtNtCs3JYPxoBuEj2_15serde_json_wasm2de6errors5ErrorECsgkmnL3Ab2bX_24shade_oracles_multi_test
FN:21,_RINvXNvNtCsgdCcd701khX_16mock_sienna_pair8contracts_1__NtB5_14InstantiateMsgNtNtCs6CjExPaL98u_5serde2de11Deserialize11deserializeQNtNtCs3JYPxoBuEj2_15serde_json_wasm2de12DeserializerECsgkmnL3Ab2bX_24shade_oracles_multi_test
FN:52,_RINvXs0_NvXs0_NvXNvNtCsgdCcd701khX_16mock_sienna_pair8contracts2_1__NtBh_10ExecuteMsgNtNtCs6CjExPaL98u_5serde2de11Deserialize11deserializeNtBc_9___VisitorNtB1n_7Visitor10visit_enumNtB6_9___VisitorB2s_9visit_mapNtNtNtCs3JYPxoBuEj2_15serde_json_wasm2de3map9MapAccessECsgkmnL3Ab2bX_24shade_oracles_multi_test
FN:52,_RINvXs_NvXs0_NvXNvNtCsgdCcd701khX_16mock_sienna_pair8contracts2_1__NtBg_10ExecuteMsgNtNtCs6CjExPaL98u_5serde2de11Deserialize11deserializeNtBb_9___VisitorNtB1m_7Visitor10visit_enumNtB5_7___FieldB1k_11deserializeNtNtNtCs3JYPxoBuEj2_15serde_json_wasm2de3map6MapKeyECsgkmnL3Ab2bX_24shade_oracles_multi_test
FN:21,_RINvXs0_NvXNvNtCsgdCcd701khX_16mock_sienna_pair8contracts_1__NtBb_14InstantiateMsgNtNtCs6CjExPaL98u_5serde2de11Deserialize11deserializeNtB6_9___VisitorNtB1k_7Visitor9visit_mapNtNtNtCs3JYPxoBuEj2_15serde_json_wasm2de3map9MapAccessECsgkmnL3Ab2bX_24shade_oracles_multi_test
FN:52,_RINvXNvXs0_NvXNvNtCsgdCcd701khX_16mock_sienna_pair8contracts2_1__NtBe_10ExecuteMsgNtNtCs6CjExPaL98u_5serde2de11Deserialize11deserializeNtB9_9___VisitorNtB1k_7Visitor10visit_enumNtB3_14___FieldVisitorB2p_9visit_strNtNtNtCs3JYPxoBuEj2_15serde_json_wasm2de6errors5ErrorECsgkmnL3Ab2bX_24shade_oracles_multi_test
FN:52,_RNvXs7_NtCsgdCcd701khX_16mock_sienna_pair8contractNtB5_10ExecuteMsgNtNtCs59N989QkIgV_4core3cmp9PartialEq2neB7_
FN:21,_RINvXNvNtCsgdCcd701khX_16mock_sienna_pair8contracts_1__NtB5_14InstantiateMsgNtNtCs6CjExPaL98u_5serde2de11Deserialize11deserializepEB7_
FN:21,_RINvXs0_NvXNvNtCsgdCcd701khX_16mock_sienna_pair8contracts_1__NtBb_14InstantiateMsgNtNtCs6CjExPaL98u_5serde2de11Deserialize11deserializeNtB6_9___VisitorNtB1k_7Visitor9visit_seqpEBd_
FN:52,_RNvXs7_NtCsgdCcd701khX_16mock_sienna_pair8contractNtB5_10ExecuteMsgNtNtCs59N989QkIgV_4core3cmp9PartialEq2eqB7_
FN:52,_RINvXNvXNvNtCsgdCcd701khX_16mock_sienna_pair8contracts2_1__NtB8_10ExecuteMsgNtNtCs6CjExPaL98u_5serde2de11Deserialize11deserializeNtB3_14___FieldVisitorNtB1e_7Visitor9visit_strpEBa_
FN:21,_RINvXNvXNvNtCsgdCcd701khX_16mock_sienna_pair8contracts_1__NtB8_14InstantiateMsgNtNtCs6CjExPaL98u_5serde2de11Deserialize11deserializeNtB3_14___FieldVisitorNtB1h_7Visitor11visit_bytespEBa_
FN:52,_RINvXNvNtCsgdCcd701khX_16mock_sienna_pair8contracts2_1__NtB5_10ExecuteMsgNtNtCs6CjExPaL98u_5serde2de11Deserialize11deserializepEB7_
FN:52,_RINvXs0_NvXs0_NvXNvNtCsgdCcd701khX_16mock_sienna_pair8contracts2_1__NtBh_10ExecuteMsgNtNtCs6CjExPaL98u_5serde2de11Deserialize11deserializeNtBc_9___VisitorNtB1n_7Visitor10visit_enumNtB6_9___VisitorB2s_9visit_seqpEBj_
FN:52,_RNvXs4_NtCsgdCcd701khX_16mock_sienna_pair8contractNtB5_10ExecuteMsgNtNtCs59N989QkIgV_4core5clone5Clone5cloneB7_
FN:52,_RINvXNvXs0_NvXNvNtCsgdCcd701khX_16mock_sienna_pair8contracts2_1__NtBe_10ExecuteMsgNtNtCs6CjExPaL98u_5serde2de11Deserialize11deserializeNtB9_9___VisitorNtB1k_7Visitor10visit_enumNtB3_14___FieldVisitorB2p_9visit_u64pEBg_
FN:52,_RINvXNvXs0_NvXNvNtCsgdCcd701khX_16mock_sienna_pair8contracts2_1__NtBe_10ExecuteMsgNtNtCs6CjExPaL98u_5serde2de11Deserialize11deserializeNtB9_9___VisitorNtB1k_7Visitor10visit_enumNtB3_14___FieldVisitorB2p_11visit_bytespEBg_
FN:21,_RNvXs3_NtCsgdCcd701khX_16mock_sienna_pair8contractNtB5_14InstantiateMsgNtNtCs59N989QkIgV_4core3cmp9PartialEq2eqB7_
FN:21,_RINvXNvXNvNtCsgdCcd701khX_16mock_sienna_pair8contracts_1__NtB8_14InstantiateMsgNtNtCs6CjExPaL98u_5serde2de11Deserialize11deserializeNtB3_14___FieldVisitorNtB1h_7Visitor9visit_strpEBa_
FN:52,_RINvXs_NvXNvNtCsgdCcd701khX_16mock_sienna_pair8contracts2_1__NtBa_10ExecuteMsgNtNtCs6CjExPaL98u_5serde2de11Deserialize11deserializeNtB5_7___FieldB1e_11deserializepEBc_
FN:52,_RINvXNvXNvNtCsgdCcd701khX_16mock_sienna_pair8contracts2_1__NtB8_10ExecuteMsgNtNtCs6CjExPaL98u_5serde2de11Deserialize11deserializeNtB3_14___FieldVisitorNtB1e_7Visitor9visit_u64pEBa_
FN:21,_RINvXNvXNvNtCsgdCcd701khX_16mock_sienna_pair8contracts_1__NtB8_14InstantiateMsgNtNtCs6CjExPaL98u_5serde2de11Deserialize11deserializeNtB3_14___FieldVisitorNtB1h_7Visitor9visit_u64pEBa_
FN:21,_RNvXs0_NtCsgdCcd701khX_16mock_sienna_pair8contractNtB5_14InstantiateMsgNtNtCs59N989QkIgV_4core5clone5Clone5cloneB7_
FN:52,_RINvXs0_NvXNvNtCsgdCcd701khX_16mock_sienna_pair8contracts2_1__NtBb_10ExecuteMsgNtNtCs6CjExPaL98u_5serde2de11Deserialize11deserializeNtB6_9___VisitorNtB1h_7Visitor10visit_enumpEBd_
FN:52,_RINvXNvNtCsgdCcd701khX_16mock_sienna_pair8contracts1_1__NtB5_10ExecuteMsgNtNtCs6CjExPaL98u_5serde3ser9Serialize9serializepEB7_
FN:21,_RINvXs0_NvXNvNtCsgdCcd701khX_16mock_sienna_pair8contracts_1__NtBb_14InstantiateMsgNtNtCs6CjExPaL98u_5serde2de11Deserialize11deserializeNtB6_9___VisitorNtB1k_7Visitor9visit_mappEBd_
FN:21,_RINvXs_NvXNvNtCsgdCcd701khX_16mock_sienna_pair8contracts_1__NtBa_14InstantiateMsgNtNtCs6CjExPaL98u_5serde2de11Deserialize11deserializeNtB5_7___FieldB1h_11deserializepEBc_
FN:52,_RINvXs_NvXs0_NvXNvNtCsgdCcd701khX_16mock_sienna_pair8contracts2_1__NtBg_10ExecuteMsgNtNtCs6CjExPaL98u_5serde2de11Deserialize11deserializeNtBb_9___VisitorNtB1m_7Visitor10visit_enumNtB5_7___FieldB1k_11deserializepEBi_
FN:21,_RINvXNvNtCsgdCcd701khX_16mock_sienna_pair8contract1__NtB5_14InstantiateMsgNtNtCs6CjExPaL98u_5serde3ser9Serialize9serializepEB7_
FN:52,_RINvXNvXs0_NvXNvNtCsgdCcd701khX_16mock_sienna_pair8contracts2_1__NtBe_10ExecuteMsgNtNtCs6CjExPaL98u_5serde2de11Deserialize11deserializeNtB9_9___VisitorNtB1k_7Visitor10visit_enumNtB3_14___FieldVisitorB2p_9visit_strpEBg_
FN:52,_RINvXNvXNvNtCsgdCcd701khX_16mock_sienna_pair8contracts2_1__NtB8_10ExecuteMsgNtNtCs6CjExPaL98u_5serde2de11Deserialize11deserializeNtB3_14___FieldVisitorNtB1e_7Visitor11visit_bytespEBa_
FN:52,_RINvXs0_NvXs0_NvXNvNtCsgdCcd701khX_16mock_sienna_pair8contracts2_1__NtBh_10ExecuteMsgNtNtCs6CjExPaL98u_5serde2de11Deserialize11deserializeNtBc_9___VisitorNtB1n_7Visitor10visit_enumNtB6_9___VisitorB2s_9visit_mappEBj_
FN:38,_RNvNtCsgdCcd701khX_16mock_sienna_pair8contract11pair_info_w
FN:52,_RNvXNvNtCsgdCcd701khX_16mock_sienna_pair8contracts3_1__NtB4_10ExecuteMsgNtCs8g2TqZEio7D_8schemars10JsonSchema11schema_name
FN:21,_RNvXNvNtCsgdCcd701khX_16mock_sienna_pair8contracts0_1__NtB4_14InstantiateMsgNtCs8g2TqZEio7D_8schemars10JsonSchema11schema_name
FN:111,_RNvNtCsgdCcd701khX_16mock_sienna_pair8contract5query
FN:52,_RNvXNvXs0_NvXNvNtCsgdCcd701khX_16mock_sienna_pair8contracts2_1__NtBd_10ExecuteMsgNtNtCs6CjExPaL98u_5serde2de11Deserialize11deserializeNtB8_9___VisitorNtB1j_7Visitor10visit_enumNtB2_14___FieldVisitorB2o_9expecting
FN:63,_RNvNtCsgdCcd701khX_16mock_sienna_pair8contract7execute
FN:52,_RNvXNvXNvNtCsgdCcd701khX_16mock_sienna_pair8contracts2_1__NtB7_10ExecuteMsgNtNtCs6CjExPaL98u_5serde2de11Deserialize11deserializeNtB2_14___FieldVisitorNtB1d_7Visitor9expecting
FN:15,_RNvNtCsgdCcd701khX_16mock_sienna_pair8contract16pool_take_amount
FN:52,_RNvXs5_NtCsgdCcd701khX_16mock_sienna_pair8contractNtB5_10ExecuteMsgNtNtCs59N989QkIgV_4core3fmt5Debug3fmt
FN:21,_RNvXs0_NvXNvNtCsgdCcd701khX_16mock_sienna_pair8contracts_1__NtBa_14InstantiateMsgNtNtCs6CjExPaL98u_5serde2de11Deserialize11deserializeNtB5_9___VisitorNtB1j_7Visitor9expecting
FN:34,_RNvNtCsgdCcd701khX_16mock_sienna_pair8contract11pair_info_r
FN:43,_RNvNtCsgdCcd701khX_16mock_sienna_pair8contract11instantiate
FN:21,_RNvXNvXNvNtCsgdCcd701khX_16mock_sienna_pair8contracts_1__NtB7_14InstantiateMsgNtNtCs6CjExPaL98u_5serde2de11Deserialize11deserializeNtB2_14___FieldVisitorNtB1g_7Visitor9expecting
FN:52,_RNvXNvNtCsgdCcd701khX_16mock_sienna_pair8contracts3_1__NtB4_10ExecuteMsgNtCs8g2TqZEio7D_8schemars10JsonSchema11json_schema
FN:52,_RNvXs0_NvXNvNtCsgdCcd701khX_16mock_sienna_pair8contracts2_1__NtBa_10ExecuteMsgNtNtCs6CjExPaL98u_5serde2de11Deserialize11deserializeNtB5_9___VisitorNtB1g_7Visitor9expecting
FN:52,_RNvXs0_NvXs0_NvXNvNtCsgdCcd701khX_16mock_sienna_pair8contracts2_1__NtBg_10ExecuteMsgNtNtCs6CjExPaL98u_5serde2de11Deserialize11deserializeNtBb_9___VisitorNtB1m_7Visitor10visit_enumNtB5_9___VisitorB2r_9expecting
FN:21,_RNvXs1_NtCsgdCcd701khX_16mock_sienna_pair8contractNtB5_14InstantiateMsgNtNtCs59N989QkIgV_4core3fmt5Debug3fmt
FN:21,_RNvXNvNtCsgdCcd701khX_16mock_sienna_pair8contracts0_1__NtB4_14InstantiateMsgNtCs8g2TqZEio7D_8schemars10JsonSchema11json_schema
FN:52,_RINvXNvNtCsgdCcd701khX_16mock_sienna_pair8contracts1_1__NtB5_10ExecuteMsgNtNtCs6CjExPaL98u_5serde3ser9Serialize9serializeQNtNtCs3JYPxoBuEj2_15serde_json_wasm3ser10SerializerECscXJ5j0Fo77E_11integration
FN:21,_RINvXNvNtCsgdCcd701khX_16mock_sienna_pair8contract1__NtB5_14InstantiateMsgNtNtCs6CjExPaL98u_5serde3ser9Serialize9serializeQNtNtCs3JYPxoBuEj2_15serde_json_wasm3ser10SerializerECscXJ5j0Fo77E_11integration
FN:38,_RNvNtCsfBjL6Mf0KIy_16mock_sienna_pair8contract11pair_info_w
FN:52,_RNvXs7_NtCsfBjL6Mf0KIy_16mock_sienna_pair8contractNtB5_10ExecuteMsgNtNtCs59N989QkIgV_4core3cmp9PartialEq2neB7_
FN:52,_RINvXNvXNvNtCsfBjL6Mf0KIy_16mock_sienna_pair8contracts2_1__NtB8_10ExecuteMsgNtNtCs6CjExPaL98u_5serde2de11Deserialize11deserializeNtB3_14___FieldVisitorNtB1e_7Visitor11visit_bytespEBa_
FN:21,_RNvXNvXNvNtCsfBjL6Mf0KIy_16mock_sienna_pair8contracts_1__NtB7_14InstantiateMsgNtNtCs6CjExPaL98u_5serde2de11Deserialize11deserializeNtB2_14___FieldVisitorNtB1g_7Visitor9expecting
FN:21,_RINvXs0_NvXNvNtCsfBjL6Mf0KIy_16mock_sienna_pair8contracts_1__NtBb_14InstantiateMsgNtNtCs6CjExPaL98u_5serde2de11Deserialize11deserializeNtB6_9___VisitorNtB1k_7Visitor9visit_seqpEBd_
FN:21,_RINvXNvXNvNtCsfBjL6Mf0KIy_16mock_sienna_pair8contracts_1__NtB8_14InstantiateMsgNtNtCs6CjExPaL98u_5serde2de11Deserialize11deserializeNtB3_14___FieldVisitorNtB1h_7Visitor9visit_u64pEBa_
FN:21,_RINvXs0_NvXNvNtCsfBjL6Mf0KIy_16mock_sienna_pair8contracts_1__NtBb_14InstantiateMsgNtNtCs6CjExPaL98u_5serde2de11Deserialize11deserializeNtB6_9___VisitorNtB1k_7Visitor9visit_mappEBd_
FN:52,_RINvXs0_NvXNvNtCsfBjL6Mf0KIy_16mock_sienna_pair8contracts2_1__NtBb_10ExecuteMsgNtNtCs6CjExPaL98u_5serde2de11Deserialize11deserializeNtB6_9___VisitorNtB1h_7Visitor10visit_enumpEBd_
FN:52,_RINvXs0_NvXs0_NvXNvNtCsfBjL6Mf0KIy_16mock_sienna_pair8contracts2_1__NtBh_10ExecuteMsgNtNtCs6CjExPaL98u_5serde2de11Deserialize11deserializeNtBc_9___VisitorNtB1n_7Visitor10visit_enumNtB6_9___VisitorB2s_9visit_mappEBj_
FN:63,_RNvNtCsfBjL6Mf0KIy_16mock_sienna_pair8contract7execute
FN:52,_RINvXs_NvXNvNtCsfBjL6Mf0KIy_16mock_sienna_pair8contracts2_1__NtBa_10ExecuteMsgNtNtCs6CjExPaL98u_5serde2de11Deserialize11deserializeNtB5_7___FieldB1e_11deserializepEBc_
FN:52,_RNvXs0_NvXNvNtCsfBjL6Mf0KIy_16mock_sienna_pair8contracts2_1__NtBa_10ExecuteMsgNtNtCs6CjExPaL98u_5serde2de11Deserialize11deserializeNtB5_9___VisitorNtB1g_7Visitor9expecting
FN:21,_RINvXNvXNvNtCsfBjL6Mf0KIy_16mock_sienna_pair8contracts_1__NtB8_14InstantiateMsgNtNtCs6CjExPaL98u_5serde2de11Deserialize11deserializeNtB3_14___FieldVisitorNtB1h_7Visitor11visit_bytespEBa_
FN:34,_RNvNtCsfBjL6Mf0KIy_16mock_sienna_pair8contract11pair_info_r
FN:21,_RINvXNvNtCsfBjL6Mf0KIy_16mock_sienna_pair8contracts_1__NtB5_14InstantiateMsgNtNtCs6CjExPaL98u_5serde2de11Deserialize11deserializepEB7_
FN:52,_RINvXs0_NvXs0_NvXNvNtCsfBjL6Mf0KIy_16mock_sienna_pair8contracts2_1__NtBh_10ExecuteMsgNtNtCs6CjExPaL98u_5serde2de11Deserialize11deserializeNtBc_9___VisitorNtB1n_7Visitor10visit_enumNtB6_9___VisitorB2s_9visit_seqpEBj_
FN:21,_RINvXs_NvXNvNtCsfBjL6Mf0KIy_16mock_sienna_pair8contracts_1__NtBa_14InstantiateMsgNtNtCs6CjExPaL98u_5serde2de11Deserialize11deserializeNtB5_7___FieldB1h_11deserializepEBc_
FN:21,_RNvXs0_NtCsfBjL6Mf0KIy_16mock_sienna_pair8contractNtB5_14InstantiateMsgNtNtCs59N989QkIgV_4core5clone5Clone5cloneB7_
FN:52,_RNvXs7_NtCsfBjL6Mf0KIy_16mock_sienna_pair8contractNtB5_10ExecuteMsgNtNtCs59N989QkIgV_4core3cmp9PartialEq2eqB7_
FN:21,_RINvXNvNtCsfBjL6Mf0KIy_16mock_sienna_pair8contract1__NtB5_14InstantiateMsgNtNtCs6CjExPaL98u_5serde3ser9Serialize9serializepEB7_
FN:21,_RNvXs1_NtCsfBjL6Mf0KIy_16mock_sienna_pair8contractNtB5_14InstantiateMsgNtNtCs59N989QkIgV_4core3fmt5Debug3fmt
FN:52,_RINvXNvXs0_NvXNvNtCsfBjL6Mf0KIy_16mock_sienna_pair8contracts2_1__NtBe_10ExecuteMsgNtNtCs6CjExPaL98u_5serde2de11Deserialize11deserializeNtB9_9___VisitorNtB1k_7Visitor10visit_enumNtB3_14___FieldVisitorB2p_9visit_u64pEBg_
FN:52,_RINvXNvXs0_NvXNvNtCsfBjL6Mf0KIy_16mock_sienna_pair8contracts2_1__NtBe_10ExecuteMsgNtNtCs6CjExPaL98u_5serde2de11Deserialize11deserializeNtB9_9___VisitorNtB1k_7Visitor10visit_enumNtB3_14___FieldVisitorB2p_9visit_strpEBg_
FN:21,_RNvXNvNtCsfBjL6Mf0KIy_16mock_sienna_pair8contracts0_1__NtB4_14InstantiateMsgNtCs8g2TqZEio7D_8schemars10JsonSchema11json_schema
FN:52,_RINvXNvXs0_NvXNvNtCsfBjL6Mf0KIy_16mock_sienna_pair8contracts2_1__NtBe_10ExecuteMsgNtNtCs6CjExPaL98u_5serde2de11Deserialize11deserializeNtB9_9___VisitorNtB1k_7Visitor10visit_enumNtB3_14___FieldVisitorB2p_11visit_bytespEBg_
FN:52,_RNvXNvNtCsfBjL6Mf0KIy_16mock_sienna_pair8contracts3_1__NtB4_10ExecuteMsgNtCs8g2TqZEio7D_8schemars10JsonSchema11schema_name
FN:21,_RNvXNvNtCsfBjL6Mf0KIy_16mock_sienna_pair8contracts0_1__NtB4_14InstantiateMsgNtCs8g2TqZEio7D_8schemars10JsonSchema11schema_name
FN:21,_RNvXs0_NvXNvNtCsfBjL6Mf0KIy_16mock_sienna_pair8contracts_1__NtBa_14InstantiateMsgNtNtCs6CjExPaL98u_5serde2de11Deserialize11deserializeNtB5_9___VisitorNtB1j_7Visitor9expecting
FN:52,_RINvXNvNtCsfBjL6Mf0KIy_16mock_sienna_pair8contracts2_1__NtB5_10ExecuteMsgNtNtCs6CjExPaL98u_5serde2de11Deserialize11deserializepEB7_
FN:52,_RINvXs_NvXs0_NvXNvNtCsfBjL6Mf0KIy_16mock_sienna_pair8contracts2_1__NtBg_10ExecuteMsgNtNtCs6CjExPaL98u_5serde2de11Deserialize11deserializeNtBb_9___VisitorNtB1m_7Visitor10visit_enumNtB5_7___FieldB1k_11deserializepEBi_
FN:52,_RNvXs4_NtCsfBjL6Mf0KIy_16mock_sienna_pair8contractNtB5_10ExecuteMsgNtNtCs59N989QkIgV_4core5clone5Clone5cloneB7_
FN:52,_RNvXs0_NvXs0_NvXNvNtCsfBjL6Mf0KIy_16mock_sienna_pair8contracts2_1__NtBg_10ExecuteMsgNtNtCs6CjExPaL98u_5serde2de11Deserialize11deserializeNtBb_9___VisitorNtB1m_7Visitor10visit_enumNtB5_9___VisitorB2r_9expecting
FN:52,_RINvXNvNtCsfBjL6Mf0KIy_16mock_sienna_pair8contracts1_1__NtB5_10ExecuteMsgNtNtCs6CjExPaL98u_5serde3ser9Serialize9serializepEB7_
FN:111,_RNvNtCsfBjL6Mf0KIy_16mock_sienna_pair8contract5query
FN:15,_RNvNtCsfBjL6Mf0KIy_16mock_sienna_pair8contract16pool_take_amount
FN:52,_RNvXs5_NtCsfBjL6Mf0KIy_16mock_sienna_pair8contractNtB5_10ExecuteMsgNtNtCs59N989QkIgV_4core3fmt5Debug3fmt
FN:52,_RINvXNvXNvNtCsfBjL6Mf0KIy_16mock_sienna_pair8contracts2_1__NtB8_10ExecuteMsgNtNtCs6CjExPaL98u_5serde2de11Deserialize11deserializeNtB3_14___FieldVisitorNtB1e_7Visitor9visit_strpEBa_
FN:43,_RNvNtCsfBjL6Mf0KIy_16mock_sienna_pair8contract11instantiate
FN:52,_RNvXNvNtCsfBjL6Mf0KIy_16mock_sienna_pair8contracts3_1__NtB4_10ExecuteMsgNtCs8g2TqZEio7D_8schemars10JsonSchema11json_schema
FN:21,_RNvXs3_NtCsfBjL6Mf0KIy_16mock_sienna_pair8contractNtB5_14InstantiateMsgNtNtCs59N989QkIgV_4core3cmp9PartialEq2eqB7_
FN:52,_RNvXNvXs0_NvXNvNtCsfBjL6Mf0KIy_16mock_sienna_pair8contracts2_1__NtBd_10ExecuteMsgNtNtCs6CjExPaL98u_5serde2de11Deserialize11deserializeNtB8_9___VisitorNtB1j_7Visitor10visit_enumNtB2_14___FieldVisitorB2o_9expecting
FN:52,_RNvXNvXNvNtCsfBjL6Mf0KIy_16mock_sienna_pair8contracts2_1__NtB7_10ExecuteMsgNtNtCs6CjExPaL98u_5serde2de11Deserialize11deserializeNtB2_14___FieldVisitorNtB1d_7Visitor9expecting
FN:21,_RINvXNvXNvNtCsfBjL6Mf0KIy_16mock_sienna_pair8contracts_1__NtB8_14InstantiateMsgNtNtCs6CjExPaL98u_5serde2de11Deserialize11deserializeNtB3_14___FieldVisitorNtB1h_7Visitor9visit_strpEBa_
FN:52,_RINvXNvXNvNtCsfBjL6Mf0KIy_16mock_sienna_pair8contracts2_1__NtB8_10ExecuteMsgNtNtCs6CjExPaL98u_5serde2de11Deserialize11deserializeNtB3_14___FieldVisitorNtB1e_7Visitor9visit_u64pEBa_
FNDA:0,_RINvXNvXNvNtCsgdCcd701khX_16mock_sienna_pair8contracts_1__NtB8_14InstantiateMsgNtNtCs6CjExPaL98u_5serde2de11Deserialize11deserializeNtB3_14___FieldVisitorNtB1h_7Visitor9visit_strNtNtNtCs3JYPxoBuEj2_15serde_json_wasm2de6errors5ErrorECsgkmnL3Ab2bX_24shade_oracles_multi_test
FNDA:3,_RINvXs0_NvXNvNtCsgdCcd701khX_16mock_sienna_pair8contracts2_1__NtBb_10ExecuteMsgNtNtCs6CjExPaL98u_5serde2de11Deserialize11deserializeNtB6_9___VisitorNtB1h_7Visitor10visit_enumNtNtNtCs3JYPxoBuEj2_15serde_json_wasm2de5enum_19StructVariantAccessECsgkmnL3Ab2bX_24shade_oracles_multi_test
FNDA:0,_RINvXs_NvXNvNtCsgdCcd701khX_16mock_sienna_pair8contracts_1__NtBa_14InstantiateMsgNtNtCs6CjExPaL98u_5serde2de11Deserialize11deserializeNtB5_7___FieldB1h_11deserializeNtNtNtCs3JYPxoBuEj2_15serde_json_wasm2de3map6MapKeyECsgkmnL3Ab2bX_24shade_oracles_multi_test
FNDA:0,_RINvXs0_NvXNvNtCsgdCcd701khX_16mock_sienna_pair8contracts2_1__NtBb_10ExecuteMsgNtNtCs6CjExPaL98u_5serde2de11Deserialize11deserializeNtB6_9___VisitorNtB1h_7Visitor10visit_enumNtNtNtCs3JYPxoBuEj2_15serde_json_wasm2de5enum_17UnitVariantAccessECsgkmnL3Ab2bX_24shade_oracles_multi_test
FNDA:3,_RINvXNvNtCsgdCcd701khX_16mock_sienna_pair8contracts2_1__NtB5_10ExecuteMsgNtNtCs6CjExPaL98u_5serde2de11Deserialize11deserializeQNtNtCs3JYPxoBuEj2_15serde_json_wasm2de12DeserializerECsgkmnL3Ab2bX_24shade_oracles_multi_test
FNDA:3,_RINvXs_NvXNvNtCsgdCcd701khX_16mock_sienna_pair8contracts2_1__NtBa_10ExecuteMsgNtNtCs6CjExPaL98u_5serde2de11Deserialize11deserializeNtB5_7___FieldB1e_11deserializeQNtNtCs3JYPxoBuEj2_15serde_json_wasm2de12DeserializerECsgkmnL3Ab2bX_24shade_oracles_multi_test
FNDA:3,_RINvXNvXNvNtCsgdCcd701khX_16mock_sienna_pair8contracts2_1__NtB8_10ExecuteMsgNtNtCs6CjExPaL98u_5serde2de11Deserialize11deserializeNtB3_14___FieldVisitorNtB1e_7Visitor9visit_strNtNtNtCs3JYPxoBuEj2_15serde_json_wasm2de6errors5ErrorECsgkmnL3Ab2bX_24shade_oracles_multi_test
FNDA:3,_RINvXNvNtCsgdCcd701khX_16mock_sienna_pair8contracts_1__NtB5_14InstantiateMsgNtNtCs6CjExPaL98u_5serde2de11Deserialize11deserializeQNtNtCs3JYPxoBuEj2_15serde_json_wasm2de12DeserializerECsgkmnL3Ab2bX_24shade_oracles_multi_test
FNDA:15,_RINvXs0_NvXs0_NvXNvNtCsgdCcd701khX_16mock_sienna_pair8contracts2_1__NtBh_10ExecuteMsgNtNtCs6CjExPaL98u_5serde2de11Deserialize11deserializeNtBc_9___VisitorNtB1n_7Visitor10visit_enumNtB6_9___VisitorB2s_9visit_mapNtNtNtCs3JYPxoBuEj2_15serde_json_wasm2de3map9MapAccessECsgkmnL3Ab2bX_24shade_oracles_multi_test
FNDA:12,_RINvXs_NvXs0_NvXNvNtCsgdCcd701khX_16mock_sienna_pair8contracts2_1__NtBg_10ExecuteMsgNtNtCs6CjExPaL98u_5serde2de11Deserialize11deserializeNtBb_9___VisitorNtB1m_7Visitor10visit_enumNtB5_7___FieldB1k_11deserializeNtNtNtCs3JYPxoBuEj2_15serde_json_wasm2de3map6MapKeyECsgkmnL3Ab2bX_24shade_oracles_multi_test
FNDA:0,_RINvXs0_NvXNvNtCsgdCcd701khX_16mock_sienna_pair8contracts_1__NtBb_14InstantiateMsgNtNtCs6CjExPaL98u_5serde2de11Deserialize11deserializeNtB6_9___VisitorNtB1k_7Visitor9visit_mapNtNtNtCs3JYPxoBuEj2_15serde_json_wasm2de3map9MapAccessECsgkmnL3Ab2bX_24shade_oracles_multi_test
FNDA:12,_RINvXNvXs0_NvXNvNtCsgdCcd701khX_16mock_sienna_pair8contracts2_1__NtBe_10ExecuteMsgNtNtCs6CjExPaL98u_5serde2de11Deserialize11deserializeNtB9_9___VisitorNtB1k_7Visitor10visit_enumNtB3_14___FieldVisitorB2p_9visit_strNtNtNtCs3JYPxoBuEj2_15serde_json_wasm2de6errors5ErrorECsgkmnL3Ab2bX_24shade_oracles_multi_test
FNDA:0,_RNvXs7_NtCsgdCcd701khX_16mock_sienna_pair8contractNtB5_10ExecuteMsgNtNtCs59N989QkIgV_4core3cmp9PartialEq2neB7_
FNDA:0,_RINvXNvNtCsgdCcd701khX_16mock_sienna_pair8contracts_1__NtB5_14InstantiateMsgNtNtCs6CjExPaL98u_5serde2de11Deserialize11deserializepEB7_
FNDA:0,_RINvXs0_NvXNvNtCsgdCcd701khX_16mock_sienna_pair8contracts_1__NtBb_14InstantiateMsgNtNtCs6CjExPaL98u_5serde2de11Deserialize11deserializeNtB6_9___VisitorNtB1k_7Visitor9visit_seqpEBd_
FNDA:0,_RNvXs7_NtCsgdCcd701khX_16mock_sienna_pair8contractNtB5_10ExecuteMsgNtNtCs59N989QkIgV_4core3cmp9PartialEq2eqB7_
FNDA:0,_RINvXNvXNvNtCsgdCcd701khX_16mock_sienna_pair8contracts2_1__NtB8_10ExecuteMsgNtNtCs6CjExPaL98u_5serde2de11Deserialize11deserializeNtB3_14___FieldVisitorNtB1e_7Visitor9visit_strpEBa_
FNDA:0,_RINvXNvXNvNtCsgdCcd701khX_16mock_sienna_pair8contracts_1__NtB8_14InstantiateMsgNtNtCs6CjExPaL98u_5serde2de11Deserialize11deserializeNtB3_14___FieldVisitorNtB1h_7Visitor11visit_bytespEBa_
FNDA:0,_RINvXNvNtCsgdCcd701khX_16mock_sienna_pair8contracts2_1__NtB5_10ExecuteMsgNtNtCs6CjExPaL98u_5serde2de11Deserialize11deserializepEB7_
FNDA:0,_RINvXs0_NvXs0_NvXNvNtCsgdCcd701khX_16mock_sienna_pair8contracts2_1__NtBh_10ExecuteMsgNtNtCs6CjExPaL98u_5serde2de11Deserialize11deserializeNtBc_9___VisitorNtB1n_7Visitor10visit_enumNtB6_9___VisitorB2s_9visit_seqpEBj_
FNDA:0,_RNvXs4_NtCsgdCcd701khX_16mock_sienna_pair8contractNtB5_10ExecuteMsgNtNtCs59N989QkIgV_4core5clone5Clone5cloneB7_
FNDA:0,_RINvXNvXs0_NvXNvNtCsgdCcd701khX_16mock_sienna_pair8contracts2_1__NtBe_10ExecuteMsgNtNtCs6CjExPaL98u_5serde2de11Deserialize11deserializeNtB9_9___VisitorNtB1k_7Visitor10visit_enumNtB3_14___FieldVisitorB2p_9visit_u64pEBg_
FNDA:0,_RINvXNvXs0_NvXNvNtCsgdCcd701khX_16mock_sienna_pair8contracts2_1__NtBe_10ExecuteMsgNtNtCs6CjExPaL98u_5serde2de11Deserialize11deserializeNtB9_9___VisitorNtB1k_7Visitor10visit_enumNtB3_14___FieldVisitorB2p_11visit_bytespEBg_
FNDA:0,_RNvXs3_NtCsgdCcd701khX_16mock_sienna_pair8contractNtB5_14InstantiateMsgNtNtCs59N989QkIgV_4core3cmp9PartialEq2eqB7_
FNDA:0,_RINvXNvXNvNtCsgdCcd701khX_16mock_sienna_pair8contracts_1__NtB8_14InstantiateMsgNtNtCs6CjExPaL98u_5serde2de11Deserialize11deserializeNtB3_14___FieldVisitorNtB1h_7Visitor9visit_strpEBa_
FNDA:0,_RINvXs_NvXNvNtCsgdCcd701khX_16mock_sienna_pair8contracts2_1__NtBa_10ExecuteMsgNtNtCs6CjExPaL98u_5serde2de11Deserialize11deserializeNtB5_7___FieldB1e_11deserializepEBc_
FNDA:0,_RINvXNvXNvNtCsgdCcd701khX_16mock_sienna_pair8contracts2_1__NtB8_10ExecuteMsgNtNtCs6CjExPaL98u_5serde2de11Deserialize11deserializeNtB3_14___FieldVisitorNtB1e_7Visitor9visit_u64pEBa_
FNDA:0,_RINvXNvXNvNtCsgdCcd701khX_16mock_sienna_pair8contracts_1__NtB8_14InstantiateMsgNtNtCs6CjExPaL98u_5serde2de11Deserialize11deserializeNtB3_14___FieldVisitorNtB1h_7Visitor9visit_u64pEBa_
FNDA:0,_RNvXs0_NtCsgdCcd701khX_16mock_sienna_pair8contractNtB5_14InstantiateMsgNtNtCs59N989QkIgV_4core5clone5Clone5cloneB7_
FNDA:0,_RINvXs0_NvXNvNtCsgdCcd701khX_16mock_sienna_pair8contracts2_1__NtBb_10ExecuteMsgNtNtCs6CjExPaL98u_5serde2de11Deserialize11deserializeNtB6_9___VisitorNtB1h_7Visitor10visit_enumpEBd_
FNDA:0,_RINvXNvNtCsgdCcd701khX_16mock_sienna_pair8contracts1_1__NtB5_10ExecuteMsgNtNtCs6CjExPaL98u_5serde3ser9Serialize9serializepEB7_
FNDA:0,_RINvXs0_NvXNvNtCsgdCcd701khX_16mock_sienna_pair8contracts_1__NtBb_14InstantiateMsgNtNtCs6CjExPaL98u_5serde2de11Deserialize11deserializeNtB6_9___VisitorNtB1k_7Visitor9visit_mappEBd_
FNDA:0,_RINvXs_NvXNvNtCsgdCcd701khX_16mock_sienna_pair8contracts_1__NtBa_14InstantiateMsgNtNtCs6CjExPaL98u_5serde2de11Deserialize11deserializeNtB5_7___FieldB1h_11deserializepEBc_
FNDA:0,_RINvXs_NvXs0_NvXNvNtCsgdCcd701khX_16mock_sienna_pair8contracts2_1__NtBg_10ExecuteMsgNtNtCs6CjExPaL98u_5serde2de11Deserialize11deserializeNtBb_9___VisitorNtB1m_7Visitor10visit_enumNtB5_7___FieldB1k_11deserializepEBi_
FNDA:0,_RINvXNvNtCsgdCcd701khX_16mock_sienna_pair8contract1__NtB5_14InstantiateMsgNtNtCs6CjExPaL98u_5serde3ser9Serialize9serializepEB7_
FNDA:0,_RINvXNvXs0_NvXNvNtCsgdCcd701khX_16mock_sienna_pair8contracts2_1__NtBe_10ExecuteMsgNtNtCs6CjExPaL98u_5serde2de11Deserialize11deserializeNtB9_9___VisitorNtB1k_7Visitor10visit_enumNtB3_14___FieldVisitorB2p_9visit_strpEBg_
FNDA:0,_RINvXNvXNvNtCsgdCcd701khX_16mock_sienna_pair8contracts2_1__NtB8_10ExecuteMsgNtNtCs6CjExPaL98u_5serde2de11Deserialize11deserializeNtB3_14___FieldVisitorNtB1e_7Visitor11visit_bytespEBa_
FNDA:0,_RINvXs0_NvXs0_NvXNvNtCsgdCcd701khX_16mock_sienna_pair8contracts2_1__NtBh_10ExecuteMsgNtNtCs6CjExPaL98u_5serde2de11Deserialize11deserializeNtBc_9___VisitorNtB1n_7Visitor10visit_enumNtB6_9___VisitorB2s_9visit_mappEBj_
FNDA:3,_RNvNtCsgdCcd701khX_16mock_sienna_pair8contract11pair_info_w
FNDA:0,_RNvXNvNtCsgdCcd701khX_16mock_sienna_pair8contracts3_1__NtB4_10ExecuteMsgNtCs8g2TqZEio7D_8schemars10JsonSchema11schema_name
FNDA:0,_RNvXNvNtCsgdCcd701khX_16mock_sienna_pair8contracts0_1__NtB4_14InstantiateMsgNtCs8g2TqZEio7D_8schemars10JsonSchema11schema_name
FNDA:6,_RNvNtCsgdCcd701khX_16mock_sienna_pair8contract5query
FNDA:0,_RNvXNvXs0_NvXNvNtCsgdCcd701khX_16mock_sienna_pair8contracts2_1__NtBd_10ExecuteMsgNtNtCs6CjExPaL98u_5serde2de11Deserialize11deserializeNtB8_9___VisitorNtB1j_7Visitor10visit_enumNtB2_14___FieldVisitorB2o_9expecting
FNDA:3,_RNvNtCsgdCcd701khX_16mock_sienna_pair8contract7execute
FNDA:0,_RNvXNvXNvNtCsgdCcd701khX_16mock_sienna_pair8contracts2_1__NtB7_10ExecuteMsgNtNtCs6CjExPaL98u_5serde2de11Deserialize11deserializeNtB2_14___FieldVisitorNtB1d_7Visitor9expecting
FNDA:3,_RNvNtCsgdCcd701khX_16mock_sienna_pair8contract16pool_take_amount
FNDA:0,_RNvXs5_NtCsgdCcd701khX_16mock_sienna_pair8contractNtB5_10ExecuteMsgNtNtCs59N989QkIgV_4core3fmt5Debug3fmt
FNDA:0,_RNvXs0_NvXNvNtCsgdCcd701khX_16mock_sienna_pair8contracts_1__NtBa_14InstantiateMsgNtNtCs6CjExPaL98u_5serde2de11Deserialize11deserializeNtB5_9___VisitorNtB1j_7Visitor9expecting
FNDA:6,_RNvNtCsgdCcd701khX_16mock_sienna_pair8contract11pair_info_r
FNDA:3,_RNvNtCsgdCcd701khX_16mock_sienna_pair8contract11instantiate
FNDA:0,_RNvXNvXNvNtCsgdCcd701khX_16mock_sienna_pair8contracts_1__NtB7_14InstantiateMsgNtNtCs6CjExPaL98u_5serde2de11Deserialize11deserializeNtB2_14___FieldVisitorNtB1g_7Visitor9expecting
FNDA:0,_RNvXNvNtCsgdCcd701khX_16mock_sienna_pair8contracts3_1__NtB4_10ExecuteMsgNtCs8g2TqZEio7D_8schemars10JsonSchema11json_schema
FNDA:0,_RNvXs0_NvXNvNtCsgdCcd701khX_16mock_sienna_pair8contracts2_1__NtBa_10ExecuteMsgNtNtCs6CjExPaL98u_5serde2de11Deserialize11deserializeNtB5_9___VisitorNtB1g_7Visitor9expecting
FNDA:0,_RNvXs0_NvXs0_NvXNvNtCsgdCcd701khX_16mock_sienna_pair8contracts2_1__NtBg_10ExecuteMsgNtNtCs6CjExPaL98u_5serde2de11Deserialize11deserializeNtBb_9___VisitorNtB1m_7Visitor10visit_enumNtB5_9___VisitorB2r_9expecting
FNDA:0,_RNvXs1_NtCsgdCcd701khX_16mock_sienna_pair8contractNtB5_14InstantiateMsgNtNtCs59N989QkIgV_4core3fmt5Debug3fmt
FNDA:0,_RNvXNvNtCsgdCcd701khX_16mock_sienna_pair8contracts0_1__NtB4_14InstantiateMsgNtCs8g2TqZEio7D_8schemars10JsonSchema11json_schema
FNDA:3,_RINvXNvNtCsgdCcd701khX_16mock_sienna_pair8contracts1_1__NtB5_10ExecuteMsgNtNtCs6CjExPaL98u_5serde3ser9Serialize9serializeQNtNtCs3JYPxoBuEj2_15serde_json_wasm3ser10SerializerECscXJ5j0Fo77E_11integration
FNDA:3,_RINvXNvNtCsgdCcd701khX_16mock_sienna_pair8contract1__NtB5_14InstantiateMsgNtNtCs6CjExPaL98u_5serde3ser9Serialize9serializeQNtNtCs3JYPxoBuEj2_15serde_json_wasm3ser10SerializerECscXJ5j0Fo77E_11integration
FNDA:0,_RNvNtCsfBjL6Mf0KIy_16mock_sienna_pair8contract11pair_info_w
FNDA:0,_RNvXs7_NtCsfBjL6Mf0KIy_16mock_sienna_pair8contractNtB5_10ExecuteMsgNtNtCs59N989QkIgV_4core3cmp9PartialEq2neB7_
FNDA:0,_RINvXNvXNvNtCsfBjL6Mf0KIy_16mock_sienna_pair8contracts2_1__NtB8_10ExecuteMsgNtNtCs6CjExPaL98u_5serde2de11Deserialize11deserializeNtB3_14___FieldVisitorNtB1e_7Visitor11visit_bytespEBa_
FNDA:0,_RNvXNvXNvNtCsfBjL6Mf0KIy_16mock_sienna_pair8contracts_1__NtB7_14InstantiateMsgNtNtCs6CjExPaL98u_5serde2de11Deserialize11deserializeNtB2_14___FieldVisitorNtB1g_7Visitor9expecting
FNDA:0,_RINvXs0_NvXNvNtCsfBjL6Mf0KIy_16mock_sienna_pair8contracts_1__NtBb_14InstantiateMsgNtNtCs6CjExPaL98u_5serde2de11Deserialize11deserializeNtB6_9___VisitorNtB1k_7Visitor9visit_seqpEBd_
FNDA:0,_RINvXNvXNvNtCsfBjL6Mf0KIy_16mock_sienna_pair8contracts_1__NtB8_14InstantiateMsgNtNtCs6CjExPaL98u_5serde2de11Deserialize11deserializeNtB3_14___FieldVisitorNtB1h_7Visitor9visit_u64pEBa_
FNDA:0,_RINvXs0_NvXNvNtCsfBjL6Mf0KIy_16mock_sienna_pair8contracts_1__NtBb_14InstantiateMsgNtNtCs6CjExPaL98u_5serde2de11Deserialize11deserializeNtB6_9___VisitorNtB1k_7Visitor9visit_mappEBd_
FNDA:0,_RINvXs0_NvXNvNtCsfBjL6Mf0KIy_16mock_sienna_pair8contracts2_1__NtBb_10ExecuteMsgNtNtCs6CjExPaL98u_5serde2de11Deserialize11deserializeNtB6_9___VisitorNtB1h_7Visitor10visit_enumpEBd_
FNDA:0,_RINvXs0_NvXs0_NvXNvNtCsfBjL6Mf0KIy_16mock_sienna_pair8contracts2_1__NtBh_10ExecuteMsgNtNtCs6CjExPaL98u_5serde2de11Deserialize11deserializeNtBc_9___VisitorNtB1n_7Visitor10visit_enumNtB6_9___VisitorB2s_9visit_mappEBj_
FNDA:0,_RNvNtCsfBjL6Mf0KIy_16mock_sienna_pair8contract7execute
FNDA:0,_RINvXs_NvXNvNtCsfBjL6Mf0KIy_16mock_sienna_pair8contracts2_1__NtBa_10ExecuteMsgNtNtCs6CjExPaL98u_5serde2de11Deserialize11deserializeNtB5_7___FieldB1e_11deserializepEBc_
FNDA:0,_RNvXs0_NvXNvNtCsfBjL6Mf0KIy_16mock_sienna_pair8contracts2_1__NtBa_10ExecuteMsgNtNtCs6CjExPaL98u_5serde2de11Deserialize11deserializeNtB5_9___VisitorNtB1g_7Visitor9expecting
FNDA:0,_RINvXNvXNvNtCsfBjL6Mf0KIy_16mock_sienna_pair8contracts_1__NtB8_14InstantiateMsgNtNtCs6CjExPaL98u_5serde2de11Deserialize11deserializeNtB3_14___FieldVisitorNtB1h_7Visitor11visit_bytespEBa_
FNDA:0,_RNvNtCsfBjL6Mf0KIy_16mock_sienna_pair8contract11pair_info_r
FNDA:0,_RINvXNvNtCsfBjL6Mf0KIy_16mock_sienna_pair8contracts_1__NtB5_14InstantiateMsgNtNtCs6CjExPaL98u_5serde2de11Deserialize11deserializepEB7_
FNDA:0,_RINvXs0_NvXs0_NvXNvNtCsfBjL6Mf0KIy_16mock_sienna_pair8contracts2_1__NtBh_10ExecuteMsgNtNtCs6CjExPaL98u_5serde2de11Deserialize11deserializeNtBc_9___VisitorNtB1n_7Visitor10visit_enumNtB6_9___VisitorB2s_9visit_seqpEBj_
FNDA:0,_RINvXs_NvXNvNtCsfBjL6Mf0KIy_16mock_sienna_pair8contracts_1__NtBa_14InstantiateMsgNtNtCs6CjExPaL98u_5serde2de11Deserialize11deserializeNtB5_7___FieldB1h_11deserializepEBc_
FNDA:0,_RNvXs0_NtCsfBjL6Mf0KIy_16mock_sienna_pair8contractNtB5_14InstantiateMsgNtNtCs59N989QkIgV_4core5clone5Clone5cloneB7_
FNDA:0,_RNvXs7_NtCsfBjL6Mf0KIy_16mock_sienna_pair8contractNtB5_10ExecuteMsgNtNtCs59N989QkIgV_4core3cmp9PartialEq2eqB7_
FNDA:0,_RINvXNvNtCsfBjL6Mf0KIy_16mock_sienna_pair8contract1__NtB5_14InstantiateMsgNtNtCs6CjExPaL98u_5serde3ser9Serialize9serializepEB7_
FNDA:0,_RNvXs1_NtCsfBjL6Mf0KIy_16mock_sienna_pair8contractNtB5_14InstantiateMsgNtNtCs59N989QkIgV_4core3fmt5Debug3fmt
FNDA:0,_RINvXNvXs0_NvXNvNtCsfBjL6Mf0KIy_16mock_sienna_pair8contracts2_1__NtBe_10ExecuteMsgNtNtCs6CjExPaL98u_5serde2de11Deserialize11deserializeNtB9_9___VisitorNtB1k_7Visitor10visit_enumNtB3_14___FieldVisitorB2p_9visit_u64pEBg_
FNDA:0,_RINvXNvXs0_NvXNvNtCsfBjL6Mf0KIy_16mock_sienna_pair8contracts2_1__NtBe_10ExecuteMsgNtNtCs6CjExPaL98u_5serde2de11Deserialize11deserializeNtB9_9___VisitorNtB1k_7Visitor10visit_enumNtB3_14___FieldVisitorB2p_9visit_strpEBg_
FNDA:0,_RNvXNvNtCsfBjL6Mf0KIy_16mock_sienna_pair8contracts0_1__NtB4_14InstantiateMsgNtCs8g2TqZEio7D_8schemars10JsonSchema11json_schema
FNDA:0,_RINvXNvXs0_NvXNvNtCsfBjL6Mf0KIy_16mock_sienna_pair8contracts2_1__NtBe_10ExecuteMsgNtNtCs6CjExPaL98u_5serde2de11Deserialize11deserializeNtB9_9___VisitorNtB1k_7Visitor10visit_enumNtB3_14___FieldVisitorB2p_11visit_bytespEBg_
FNDA:0,_RNvXNvNtCsfBjL6Mf0KIy_16mock_sienna_pair8contracts3_1__NtB4_10ExecuteMsgNtCs8g2TqZEio7D_8schemars10JsonSchema11schema_name
FNDA:0,_RNvXNvNtCsfBjL6Mf0KIy_16mock_sienna_pair8contracts0_1__NtB4_14InstantiateMsgNtCs8g2TqZEio7D_8schemars10JsonSchema11schema_name
FNDA:0,_RNvXs0_NvXNvNtCsfBjL6Mf0KIy_16mock_sienna_pair8contracts_1__NtBa_14InstantiateMsgNtNtCs6CjExPaL98u_5serde2de11Deserialize11deserializeNtB5_9___VisitorNtB1j_7Visitor9expecting
FNDA:0,_RINvXNvNtCsfBjL6Mf0KIy_16mock_sienna_pair8contracts2_1__NtB5_10ExecuteMsgNtNtCs6CjExPaL98u_5serde2de11Deserialize11deserializepEB7_
FNDA:0,_RINvXs_NvXs0_NvXNvNtCsfBjL6Mf0KIy_16mock_sienna_pair8contracts2_1__NtBg_10ExecuteMsgNtNtCs6CjExPaL98u_5serde2de11Deserialize11deserializeNtBb_9___VisitorNtB1m_7Visitor10visit_enumNtB5_7___FieldB1k_11deserializepEBi_
FNDA:0,_RNvXs4_NtCsfBjL6Mf0KIy_16mock_sienna_pair8contractNtB5_10ExecuteMsgNtNtCs59N989QkIgV_4core5clone5Clone5cloneB7_
FNDA:0,_RNvXs0_NvXs0_NvXNvNtCsfBjL6Mf0KIy_16mock_sienna_pair8contracts2_1__NtBg_10ExecuteMsgNtNtCs6CjExPaL98u_5serde2de11Deserialize11deserializeNtBb_9___VisitorNtB1m_7Visitor10visit_enumNtB5_9___VisitorB2r_9expecting
FNDA:0,_RINvXNvNtCsfBjL6Mf0KIy_16mock_sienna_pair8contracts1_1__NtB5_10ExecuteMsgNtNtCs6CjExPaL98u_5serde3ser9Serialize9serializepEB7_
FNDA:0,_RNvNtCsfBjL6Mf0KIy_16mock_sienna_pair8contract5query
FNDA:0,_RNvNtCsfBjL6Mf0KIy_16mock_sienna_pair8contract16pool_take_amount
FNDA:0,_RNvXs5_NtCsfBjL6Mf0KIy_16mock_sienna_pair8contractNtB5_10ExecuteMsgNtNtCs59N989QkIgV_4core3fmt5Debug3fmt
FNDA:0,_RINvXNvXNvNtCsfBjL6Mf0KIy_16mock_sienna_pair8contracts2_1__NtB8_10ExecuteMsgNtNtCs6CjExPaL98u_5serde2de11Deserialize11deserializeNtB3_14___FieldVisitorNtB1e_7Visitor9visit_strpEBa_
FNDA:0,_RNvNtCsfBjL6Mf0KIy_16mock_sienna_pair8contract11instantiate
FNDA:0,_RNvXNvNtCsfBjL6Mf0KIy_16mock_sienna_pair8contracts3_1__NtB4_10ExecuteMsgNtCs8g2TqZEio7D_8schemars10JsonSchema11json_schema
FNDA:0,_RNvXs3_NtCsfBjL6Mf0KIy_16mock_sienna_pair8contractNtB5_14InstantiateMsgNtNtCs59N989QkIgV_4core3cmp9PartialEq2eqB7_
FNDA:0,_RNvXNvXs0_NvXNvNtCsfBjL6Mf0KIy_16mock_sienna_pair8contracts2_1__NtBd_10ExecuteMsgNtNtCs6CjExPaL98u_5serde2de11Deserialize11deserializeNtB8_9___VisitorNtB1j_7Visitor10visit_enumNtB2_14___FieldVisitorB2o_9expecting
FNDA:0,_RNvXNvXNvNtCsfBjL6Mf0KIy_16mock_sienna_pair8contracts2_1__NtB7_10ExecuteMsgNtNtCs6CjExPaL98u_5serde2de11Deserialize11deserializeNtB2_14___FieldVisitorNtB1d_7Visitor9expecting
FNDA:0,_RINvXNvXNvNtCsfBjL6Mf0KIy_16mock_sienna_pair8contracts_1__NtB8_14InstantiateMsgNtNtCs6CjExPaL98u_5serde2de11Deserialize11deserializeNtB3_14___FieldVisitorNtB1h_7Visitor9visit_strpEBa_
FNDA:0,_RINvXNvXNvNtCsfBjL6Mf0KIy_16mock_sienna_pair8contracts2_1__NtB8_10ExecuteMsgNtNtCs6CjExPaL98u_5serde2de11Deserialize11deserializeNtB3_14___FieldVisitorNtB1e_7Visitor9visit_u64pEBa_
FNF:8
FNH:8
DA:15,3
DA:16,3
DA:17,3
DA:18,3
DA:19,3
DA:21,3
DA:34,6
DA:35,6
DA:36,6
DA:38,3
DA:39,3
DA:40,3
DA:43,3
DA:44,3
DA:45,3
DA:46,3
DA:47,3
DA:48,3
DA:49,3
DA:50,3
DA:52,36
DA:63,3
DA:64,3
DA:65,3
DA:66,3
DA:67,3
DA:68,3
DA:69,3
DA:70,3
DA:71,3
DA:72,3
DA:73,3
DA:74,3
DA:75,3
DA:76,3
DA:77,3
DA:78,3
DA:79,3
DA:80,3
DA:81,3
DA:82,3
DA:83,3
DA:84,3
DA:85,3
DA:86,3
DA:87,3
DA:88,3
DA:89,3
DA:90,3
DA:91,3
DA:92,3
DA:93,3
DA:94,3
DA:95,3
DA:96,3
DA:97,3
DA:98,3
DA:99,3
DA:100,3
DA:101,3
DA:103,3
DA:108,3
DA:111,6
DA:112,6
DA:114,3
DA:116,3
DA:119,3
DA:121,3
DA:122,3
DA:123,3
DA:124,3
DA:125,3
DA:126,3
DA:128,0
DA:132,3
DA:134,3
DA:136,3
DA:137,3
DA:138,3
DA:139,3
DA:140,3
DA:141,3
DA:142,3
DA:143,3
DA:144,3
DA:145,3
DA:146,3
DA:147,3
DA:148,3
DA:149,0
DA:152,0
DA:156,0
DA:158,0
DA:159,0
DA:160,0
DA:161,0
DA:162,0
DA:163,0
DA:164,0
DA:165,0
DA:166,0
DA:167,0
DA:168,0
DA:169,0
DA:170,0
DA:171,0
DA:174,0
DA:178,0
DA:181,6
BRF:0
BRH:0
LF:109
LH:89
end_of_record
SF:/Users/saverypop/Documents/programming/secret-network/shade/oracles/contracts/mock_sienna_pair/src/lib.rs
FN:1,_RNvCsfBjL6Mf0KIy_16mock_sienna_pair4main
FNDA:2,_RNvCsfBjL6Mf0KIy_16mock_sienna_pair4main
FNF:1
FNH:1
DA:1,2
BRF:0
BRH:0
LF:1
LH:1
end_of_record
SF:/Users/saverypop/Documents/programming/secret-network/shade/oracles/contracts/proxy_band_oracle/src/contract.rs
FN:35,_RNvNtCs5J3WLKJaAzT_17proxy_band_oracle8contract5query
FN:64,_RNvXNtCs5J3WLKJaAzT_17proxy_band_oracle8contractNtB2_15ProxyBandOracleNtNtNtCs7ttpGOJz6iy_13shade_oracles10interfaces6common6Oracle16try_query_prices
FN:30,_RNvNtCs5J3WLKJaAzT_17proxy_band_oracle8contract7execute
FN:42,_RNvXNtCs5J3WLKJaAzT_17proxy_band_oracle8contractNtB2_15ProxyBandOracleNtNtNtCs7ttpGOJz6iy_13shade_oracles10interfaces6common6Oracle15try_query_price
FN:15,_RNvNtCs5J3WLKJaAzT_17proxy_band_oracle8contract11instantiate
FN:64,_RNvXNtCs8XOH5Fqx6Dv_17proxy_band_oracle8contractNtB2_15ProxyBandOracleNtNtNtCs7ttpGOJz6iy_13shade_oracles10interfaces6common6Oracle16try_query_prices
FN:30,_RNvNtCs8XOH5Fqx6Dv_17proxy_band_oracle8contract7execute
FN:42,_RNvXNtCs8XOH5Fqx6Dv_17proxy_band_oracle8contractNtB2_15ProxyBandOracleNtNtNtCs7ttpGOJz6iy_13shade_oracles10interfaces6common6Oracle15try_query_price
FN:35,_RNvNtCs8XOH5Fqx6Dv_17proxy_band_oracle8contract5query
FN:15,_RNvNtCs8XOH5Fqx6Dv_17proxy_band_oracle8contract11instantiate
FNDA:24,_RNvNtCs5J3WLKJaAzT_17proxy_band_oracle8contract5query
FNDA:9,_RNvXNtCs5J3WLKJaAzT_17proxy_band_oracle8contractNtB2_15ProxyBandOracleNtNtNtCs7ttpGOJz6iy_13shade_oracles10interfaces6common6Oracle16try_query_prices
FNDA:0,_RNvNtCs5J3WLKJaAzT_17proxy_band_oracle8contract7execute
FNDA:15,_RNvXNtCs5J3WLKJaAzT_17proxy_band_oracle8contractNtB2_15ProxyBandOracleNtNtNtCs7ttpGOJz6iy_13shade_oracles10interfaces6common6Oracle15try_query_price
FNDA:11,_RNvNtCs5J3WLKJaAzT_17proxy_band_oracle8contract11instantiate
FNDA:0,_RNvXNtCs8XOH5Fqx6Dv_17proxy_band_oracle8contractNtB2_15ProxyBandOracleNtNtNtCs7ttpGOJz6iy_13shade_oracles10interfaces6common6Oracle16try_query_prices
FNDA:0,_RNvNtCs8XOH5Fqx6Dv_17proxy_band_oracle8contract7execute
FNDA:0,_RNvXNtCs8XOH5Fqx6Dv_17proxy_band_oracle8contractNtB2_15ProxyBandOracleNtNtNtCs7ttpGOJz6iy_13shade_oracles10interfaces6common6Oracle15try_query_price
FNDA:0,_RNvNtCs8XOH5Fqx6Dv_17proxy_band_oracle8contract5query
FNDA:0,_RNvNtCs8XOH5Fqx6Dv_17proxy_band_oracle8contract11instantiate
FNF:5
FNH:4
DA:15,11
DA:16,11
DA:17,11
DA:18,11
DA:19,11
DA:20,11
DA:21,11
DA:22,11
DA:23,11
DA:24,11
DA:26,11
DA:27,11
DA:30,0
DA:31,0
DA:32,0
DA:35,24
DA:36,24
DA:37,24
DA:42,15
DA:43,15
DA:44,15
DA:45,15
DA:46,15
DA:47,15
DA:48,15
DA:49,15
DA:50,15
DA:51,0
DA:52,0
DA:53,0
DA:54,0
DA:55,0
DA:56,0
DA:57,0
DA:58,0
DA:59,15
DA:60,15
DA:61,15
DA:62,15
DA:63,15
DA:64,9
DA:65,9
DA:66,9
DA:67,9
DA:68,9
DA:69,9
DA:70,9
DA:71,9
DA:72,9
DA:73,9
DA:75,9
DA:77,9
DA:78,53
DA:79,53
DA:80,53
DA:81,53
DA:82,53
DA:83,53
DA:84,9
DA:85,9
BRF:0
BRH:0
LF:60
LH:49
end_of_record
SF:/Users/saverypop/Documents/programming/secret-network/shade/oracles/contracts/proxy_band_oracle/src/lib.rs
FN:1,_RNvCs8XOH5Fqx6Dv_17proxy_band_oracle4main
FNDA:2,_RNvCs8XOH5Fqx6Dv_17proxy_band_oracle4main
FNF:1
FNH:1
DA:1,2
BRF:0
BRH:0
LF:1
LH:1
end_of_record
SF:/Users/saverypop/Documents/programming/secret-network/shade/oracles/contracts/shade_staking_derivative_oracle/src/contract.rs
FN:17,_RNvNtCs6Kli61lKT0n_31shade_staking_derivative_oracle8contract11instantiate
FN:44,_RNvNtCs6Kli61lKT0n_31shade_staking_derivative_oracle8contract5query
FN:39,_RNvNtCs6Kli61lKT0n_31shade_staking_derivative_oracle8contract7execute
FN:50,_RNvXNtCs6Kli61lKT0n_31shade_staking_derivative_oracle8contractNtB2_28ShadeStakingDerivativeOracleNtNtNtCs7ttpGOJz6iy_13shade_oracles10interfaces6common6Oracle15try_query_price
FN:44,_RNvNtCstQdWGSDDjX_31shade_staking_derivative_oracle8contract5query
FN:17,_RNvNtCstQdWGSDDjX_31shade_staking_derivative_oracle8contract11instantiate
FN:39,_RNvNtCstQdWGSDDjX_31shade_staking_derivative_oracle8contract7execute
FN:50,_RNvXNtCstQdWGSDDjX_31shade_staking_derivative_oracle8contractNtB2_28ShadeStakingDerivativeOracleNtNtNtCs7ttpGOJz6iy_13shade_oracles10interfaces6common6Oracle15try_query_price
FNDA:0,_RNvNtCs6Kli61lKT0n_31shade_staking_derivative_oracle8contract11instantiate
FNDA:0,_RNvNtCs6Kli61lKT0n_31shade_staking_derivative_oracle8contract5query
FNDA:0,_RNvNtCs6Kli61lKT0n_31shade_staking_derivative_oracle8contract7execute
FNDA:0,_RNvXNtCs6Kli61lKT0n_31shade_staking_derivative_oracle8contractNtB2_28ShadeStakingDerivativeOracleNtNtNtCs7ttpGOJz6iy_13shade_oracles10interfaces6common6Oracle15try_query_price
FNDA:0,_RNvNtCstQdWGSDDjX_31shade_staking_derivative_oracle8contract5query
FNDA:0,_RNvNtCstQdWGSDDjX_31shade_staking_derivative_oracle8contract11instantiate
FNDA:0,_RNvNtCstQdWGSDDjX_31shade_staking_derivative_oracle8contract7execute
FNDA:0,_RNvXNtCstQdWGSDDjX_31shade_staking_derivative_oracle8contractNtB2_28ShadeStakingDerivativeOracleNtNtNtCs7ttpGOJz6iy_13shade_oracles10interfaces6common6Oracle15try_query_price
FNF:4
FNH:0
DA:17,0
DA:18,0
DA:19,0
DA:20,0
DA:21,0
DA:22,0
DA:23,0
DA:24,0
DA:26,0
DA:27,0
DA:28,0
DA:29,0
DA:30,0
DA:31,0
DA:33,0
DA:35,0
DA:36,0
DA:39,0
DA:40,0
DA:41,0
DA:44,0
DA:45,0
DA:46,0
DA:50,0
DA:51,0
DA:52,0
DA:53,0
DA:54,0
DA:55,0
DA:56,0
DA:57,0
DA:60,0
DA:61,0
DA:62,0
DA:63,0
DA:64,0
DA:65,0
DA:67,0
DA:68,0
DA:69,0
DA:70,0
DA:71,0
DA:74,0
DA:75,0
DA:77,0
DA:78,0
DA:79,0
DA:80,0
DA:81,0
DA:82,0
DA:83,0
DA:84,0
DA:85,0
DA:86,0
DA:87,0
DA:88,0
DA:89,0
DA:90,0
BRF:0
BRH:0
LF:58
LH:0
end_of_record
SF:/Users/saverypop/Documents/programming/secret-network/shade/oracles/contracts/shade_staking_derivative_oracle/src/lib.rs
FN:1,_RNvCstQdWGSDDjX_31shade_staking_derivative_oracle4main
FNDA:2,_RNvCstQdWGSDDjX_31shade_staking_derivative_oracle4main
FNF:1
FNH:1
DA:1,2
BRF:0
BRH:0
LF:1
LH:1
end_of_record
SF:/Users/saverypop/Documents/programming/secret-network/shade/oracles/contracts/shadeswap_market_oracle/src/contract.rs
FN:35,_RNCNvNtCseKCZb5Dbj8H_23shadeswap_market_oracle8contract11instantiate0B5_
FN:58,_RNCNvNtCseKCZb5Dbj8H_23shadeswap_market_oracle8contract11instantiates0_0B5_
FN:21,_RNvNtCseKCZb5Dbj8H_23shadeswap_market_oracle8contract11instantiate
FN:70,_RNCNvNtCseKCZb5Dbj8H_23shadeswap_market_oracle8contract11instantiates1_0B5_
FN:108,_RNvNtCseKCZb5Dbj8H_23shadeswap_market_oracle8contract5query
FN:52,_RNCNvNtCseKCZb5Dbj8H_23shadeswap_market_oracle8contract11instantiates_0B5_
FN:98,_RNvNtCseKCZb5Dbj8H_23shadeswap_market_oracle8contract7execute
FN:115,_RNvXNtCseKCZb5Dbj8H_23shadeswap_market_oracle8contractNtB2_21ShadeswapMarketOracleNtNtNtCs7ttpGOJz6iy_13shade_oracles10interfaces6common6Oracle15try_query_price
FN:35,_RNCNvNtCs6ga4PnfwhjI_23shadeswap_market_oracle8contract11instantiate0B5_
FN:70,_RNCNvNtCs6ga4PnfwhjI_23shadeswap_market_oracle8contract11instantiates1_0B5_
FN:21,_RNvNtCs6ga4PnfwhjI_23shadeswap_market_oracle8contract11instantiate
FN:52,_RNCNvNtCs6ga4PnfwhjI_23shadeswap_market_oracle8contract11instantiates_0B5_
FN:108,_RNvNtCs6ga4PnfwhjI_23shadeswap_market_oracle8contract5query
FN:98,_RNvNtCs6ga4PnfwhjI_23shadeswap_market_oracle8contract7execute
FN:58,_RNCNvNtCs6ga4PnfwhjI_23shadeswap_market_oracle8contract11instantiates0_0B5_
FN:115,_RNvXNtCs6ga4PnfwhjI_23shadeswap_market_oracle8contractNtB2_21ShadeswapMarketOracleNtNtNtCs7ttpGOJz6iy_13shade_oracles10interfaces6common6Oracle15try_query_price
FNDA:6,_RNCNvNtCseKCZb5Dbj8H_23shadeswap_market_oracle8contract11instantiate0B5_
FNDA:3,_RNCNvNtCseKCZb5Dbj8H_23shadeswap_market_oracle8contract11instantiates0_0B5_
FNDA:3,_RNvNtCseKCZb5Dbj8H_23shadeswap_market_oracle8contract11instantiate
FNDA:6,_RNCNvNtCseKCZb5Dbj8H_23shadeswap_market_oracle8contract11instantiates1_0B5_
FNDA:3,_RNvNtCseKCZb5Dbj8H_23shadeswap_market_oracle8contract5query
FNDA:6,_RNCNvNtCseKCZb5Dbj8H_23shadeswap_market_oracle8contract11instantiates_0B5_
FNDA:0,_RNvNtCseKCZb5Dbj8H_23shadeswap_market_oracle8contract7execute
FNDA:3,_RNvXNtCseKCZb5Dbj8H_23shadeswap_market_oracle8contractNtB2_21ShadeswapMarketOracleNtNtNtCs7ttpGOJz6iy_13shade_oracles10interfaces6common6Oracle15try_query_price
FNDA:0,_RNCNvNtCs6ga4PnfwhjI_23shadeswap_market_oracle8contract11instantiate0B5_
FNDA:0,_RNCNvNtCs6ga4PnfwhjI_23shadeswap_market_oracle8contract11instantiates1_0B5_
FNDA:0,_RNvNtCs6ga4PnfwhjI_23shadeswap_market_oracle8contract11instantiate
FNDA:0,_RNCNvNtCs6ga4PnfwhjI_23shadeswap_market_oracle8contract11instantiates_0B5_
FNDA:0,_RNvNtCs6ga4PnfwhjI_23shadeswap_market_oracle8contract5query
FNDA:0,_RNvNtCs6ga4PnfwhjI_23shadeswap_market_oracle8contract7execute
FNDA:0,_RNCNvNtCs6ga4PnfwhjI_23shadeswap_market_oracle8contract11instantiates0_0B5_
FNDA:0,_RNvXNtCs6ga4PnfwhjI_23shadeswap_market_oracle8contractNtB2_21ShadeswapMarketOracleNtNtNtCs7ttpGOJz6iy_13shade_oracles10interfaces6common6Oracle15try_query_price
FNF:8
FNH:7
DA:21,3
DA:22,3
DA:23,3
DA:24,3
DA:25,3
DA:26,3
DA:27,3
DA:28,3
DA:30,3
DA:31,3
DA:33,3
DA:34,3
DA:35,6
DA:37,6
DA:38,6
DA:39,6
DA:40,6
DA:41,6
DA:42,6
DA:43,0
DA:44,3
DA:45,3
DA:46,3
DA:47,3
DA:48,3
DA:49,3
DA:50,3
DA:51,3
DA:52,6
DA:53,3
DA:54,3
DA:55,3
DA:56,3
DA:58,3
DA:59,3
DA:61,0
DA:62,0
DA:63,0
DA:64,0
DA:68,3
DA:69,3
DA:70,6
DA:71,3
DA:73,3
DA:74,3
DA:75,0
DA:76,3
DA:78,3
DA:79,3
DA:82,3
DA:83,0
DA:84,0
DA:85,0
DA:86,0
DA:87,3
DA:88,3
DA:89,3
DA:90,3
DA:91,3
DA:92,3
DA:94,3
DA:95,3
DA:98,0
DA:99,0
DA:100,0
DA:101,0
DA:102,0
DA:103,0
DA:104,0
DA:105,0
DA:108,3
DA:109,3
DA:110,3
DA:115,3
DA:116,3
DA:117,3
DA:118,3
DA:119,3
DA:120,3
DA:121,3
DA:122,3
DA:123,3
DA:124,3
DA:127,3
DA:128,3
DA:129,3
DA:130,3
DA:131,3
DA:132,3
DA:133,3
DA:134,3
DA:135,3
DA:136,3
DA:139,3
DA:140,3
DA:143,3
DA:144,3
DA:146,0
DA:150,3
DA:151,3
DA:152,3
DA:153,3
DA:154,3
DA:155,3
DA:156,3
DA:157,3
DA:158,3
DA:159,3
DA:160,3
DA:161,3
DA:162,3
DA:163,3
BRF:0
BRH:0
LF:116
LH:97
end_of_record
SF:/Users/saverypop/Documents/programming/secret-network/shade/oracles/contracts/shadeswap_market_oracle/src/lib.rs
FN:1,_RNvCs6ga4PnfwhjI_23shadeswap_market_oracle4main
FNDA:2,_RNvCs6ga4PnfwhjI_23shadeswap_market_oracle4main
FNF:1
FNH:1
DA:1,2
BRF:0
BRH:0
LF:1
LH:1
end_of_record
SF:/Users/saverypop/Documents/programming/secret-network/shade/oracles/contracts/siennaswap_lp_oracle/src/contract.rs
FN:61,_RNvNtCsl4rh8uzcDWC_20siennaswap_lp_oracle8contract5query
FN:23,_RNvNtCsl4rh8uzcDWC_20siennaswap_lp_oracle8contract11instantiate
FN:94,_RNvXNtCsl4rh8uzcDWC_20siennaswap_lp_oracle8contractNtB2_18SiennaswapLpOracleNtNtNtCs7ttpGOJz6iy_13shade_oracles10interfaces6common6Oracle15try_query_price
FN:56,_RNvNtCsl4rh8uzcDWC_20siennaswap_lp_oracle8contract7execute
FN:56,_RNvNtCseSaItcjfyBC_20siennaswap_lp_oracle8contract7execute
FN:61,_RNvNtCseSaItcjfyBC_20siennaswap_lp_oracle8contract5query
FN:94,_RNvXNtCseSaItcjfyBC_20siennaswap_lp_oracle8contractNtB2_18SiennaswapLpOracleNtNtNtCs7ttpGOJz6iy_13shade_oracles10interfaces6common6Oracle15try_query_price
FN:23,_RNvNtCseSaItcjfyBC_20siennaswap_lp_oracle8contract11instantiate
FNDA:0,_RNvNtCsl4rh8uzcDWC_20siennaswap_lp_oracle8contract5query
FNDA:0,_RNvNtCsl4rh8uzcDWC_20siennaswap_lp_oracle8contract11instantiate
FNDA:0,_RNvXNtCsl4rh8uzcDWC_20siennaswap_lp_oracle8contractNtB2_18SiennaswapLpOracleNtNtNtCs7ttpGOJz6iy_13shade_oracles10interfaces6common6Oracle15try_query_price
FNDA:0,_RNvNtCsl4rh8uzcDWC_20siennaswap_lp_oracle8contract7execute
FNDA:0,_RNvNtCseSaItcjfyBC_20siennaswap_lp_oracle8contract7execute
FNDA:0,_RNvNtCseSaItcjfyBC_20siennaswap_lp_oracle8contract5query
FNDA:0,_RNvXNtCseSaItcjfyBC_20siennaswap_lp_oracle8contractNtB2_18SiennaswapLpOracleNtNtNtCs7ttpGOJz6iy_13shade_oracles10interfaces6common6Oracle15try_query_price
FNDA:0,_RNvNtCseSaItcjfyBC_20siennaswap_lp_oracle8contract11instantiate
FNF:4
FNH:0
DA:23,0
DA:24,0
DA:25,0
DA:26,0
DA:27,0
DA:28,0
DA:29,0
DA:31,0
DA:32,0
DA:33,0
DA:34,0
DA:35,0
DA:36,0
DA:37,0
DA:38,0
DA:39,0
DA:40,0
DA:41,0
DA:42,0
DA:43,0
DA:44,0
DA:45,0
DA:46,0
DA:47,0
DA:48,0
DA:49,0
DA:50,0
DA:52,0
DA:53,0
DA:56,0
DA:57,0
DA:58,0
DA:61,0
DA:62,0
DA:65,0
DA:67,0
DA:68,0
DA:69,0
DA:71,0
DA:72,0
DA:75,0
DA:78,0
DA:79,0
DA:82,0
DA:89,0
DA:94,0
DA:95,0
DA:96,0
DA:97,0
DA:98,0
DA:99,0
DA:100,0
DA:101,0
DA:102,0
DA:104,0
DA:105,0
DA:106,0
DA:107,0
DA:108,0
DA:109,0
DA:111,0
DA:113,0
DA:114,0
DA:115,0
DA:116,0
DA:117,0
DA:118,0
DA:119,0
DA:121,0
DA:123,0
DA:124,0
DA:125,0
DA:126,0
DA:127,0
DA:128,0
DA:129,0
DA:130,0
DA:131,0
DA:132,0
DA:133,0
DA:134,0
DA:135,0
DA:136,0
DA:137,0
DA:138,0
DA:139,0
DA:140,0
DA:141,0
DA:142,0
DA:143,0
DA:144,0
DA:145,0
DA:146,0
DA:147,0
DA:148,0
DA:149,0
DA:150,0
DA:151,0
DA:152,0
BRF:0
BRH:0
LF:99
LH:0
end_of_record
SF:/Users/saverypop/Documents/programming/secret-network/shade/oracles/contracts/siennaswap_lp_oracle/src/lib.rs
FN:1,_RNvCseSaItcjfyBC_20siennaswap_lp_oracle4main
FNDA:3,_RNvCseSaItcjfyBC_20siennaswap_lp_oracle4main
FNF:1
FNH:1
DA:1,3
BRF:0
BRH:0
LF:1
LH:1
end_of_record
SF:/Users/saverypop/Documents/programming/secret-network/shade/oracles/contracts/siennaswap_lp_oracle/src/test.rs
FN:4,_RNCNvNtCseSaItcjfyBC_20siennaswap_lp_oracle4test30test_get_fair_lp_token_price_10B5_
FN:5,_RNvNtCseSaItcjfyBC_20siennaswap_lp_oracle4tests_30test_get_fair_lp_token_price_1
FNDA:1,_RNCNvNtCseSaItcjfyBC_20siennaswap_lp_oracle4test30test_get_fair_lp_token_price_10B5_
FNDA:1,_RNvNtCseSaItcjfyBC_20siennaswap_lp_oracle4tests_30test_get_fair_lp_token_price_1
FNF:2
FNH:2
DA:4,1
DA:5,1
DA:6,1
DA:7,1
DA:8,1
DA:9,1
DA:10,1
DA:11,1
DA:12,1
DA:13,1
DA:14,1
DA:15,1
DA:16,1
DA:17,1
DA:18,1
DA:19,1
DA:20,1
DA:21,1
DA:22,1
DA:23,1
DA:24,1
DA:25,1
DA:26,1
DA:27,1
DA:28,1
BRF:0
BRH:0
LF:25
LH:25
end_of_record
SF:/Users/saverypop/Documents/programming/secret-network/shade/oracles/contracts/siennaswap_lp_spot_oracle/src/contract.rs
FN:61,_RNvNtCs8soImV1O5bu_25siennaswap_lp_spot_oracle8contract5query
FN:23,_RNvNtCs8soImV1O5bu_25siennaswap_lp_spot_oracle8contract11instantiate
FN:94,_RNvXNtCs8soImV1O5bu_25siennaswap_lp_spot_oracle8contractNtB2_18SiennaswapLpOracleNtNtNtCs7ttpGOJz6iy_13shade_oracles10interfaces6common6Oracle15try_query_price
FN:56,_RNvNtCs8soImV1O5bu_25siennaswap_lp_spot_oracle8contract7execute
FN:61,_RNvNtCseVlFB5O7lCN_25siennaswap_lp_spot_oracle8contract5query
FN:23,_RNvNtCseVlFB5O7lCN_25siennaswap_lp_spot_oracle8contract11instantiate
FN:94,_RNvXNtCseVlFB5O7lCN_25siennaswap_lp_spot_oracle8contractNtB2_18SiennaswapLpOracleNtNtNtCs7ttpGOJz6iy_13shade_oracles10interfaces6common6Oracle15try_query_price
FN:56,_RNvNtCseVlFB5O7lCN_25siennaswap_lp_spot_oracle8contract7execute
FNDA:0,_RNvNtCs8soImV1O5bu_25siennaswap_lp_spot_oracle8contract5query
FNDA:0,_RNvNtCs8soImV1O5bu_25siennaswap_lp_spot_oracle8contract11instantiate
FNDA:0,_RNvXNtCs8soImV1O5bu_25siennaswap_lp_spot_oracle8contractNtB2_18SiennaswapLpOracleNtNtNtCs7ttpGOJz6iy_13shade_oracles10interfaces6common6Oracle15try_query_price
FNDA:0,_RNvNtCs8soImV1O5bu_25siennaswap_lp_spot_oracle8contract7execute
FNDA:0,_RNvNtCseVlFB5O7lCN_25siennaswap_lp_spot_oracle8contract5query
FNDA:0,_RNvNtCseVlFB5O7lCN_25siennaswap_lp_spot_oracle8contract11instantiate
FNDA:0,_RNvXNtCseVlFB5O7lCN_25siennaswap_lp_spot_oracle8contractNtB2_18SiennaswapLpOracleNtNtNtCs7ttpGOJz6iy_13shade_oracles10interfaces6common6Oracle15try_query_price
FNDA:0,_RNvNtCseVlFB5O7lCN_25siennaswap_lp_spot_oracle8contract7execute
FNF:4
FNH:0
DA:23,0
DA:24,0
DA:25,0
DA:26,0
DA:27,0
DA:28,0
DA:29,0
DA:31,0
DA:32,0
DA:33,0
DA:34,0
DA:35,0
DA:36,0
DA:37,0
DA:38,0
DA:39,0
DA:40,0
DA:41,0
DA:42,0
DA:43,0
DA:44,0
DA:45,0
DA:46,0
DA:47,0
DA:48,0
DA:49,0
DA:50,0
DA:52,0
DA:53,0
DA:56,0
DA:57,0
DA:58,0
DA:61,0
DA:62,0
DA:65,0
DA:67,0
DA:68,0
DA:69,0
DA:71,0
DA:72,0
DA:75,0
DA:78,0
DA:79,0
DA:82,0
DA:89,0
DA:94,0
DA:95,0
DA:96,0
DA:97,0
DA:98,0
DA:99,0
DA:100,0
DA:101,0
DA:102,0
DA:104,0
DA:105,0
DA:106,0
DA:107,0
DA:108,0
DA:109,0
DA:111,0
DA:113,0
DA:114,0
DA:115,0
DA:116,0
DA:117,0
DA:118,0
DA:119,0
DA:121,0
DA:123,0
DA:124,0
DA:125,0
DA:126,0
DA:127,0
DA:128,0
DA:129,0
DA:130,0
DA:131,0
DA:132,0
DA:133,0
DA:134,0
DA:135,0
DA:136,0
DA:137,0
DA:138,0
DA:139,0
DA:140,0
DA:141,0
DA:142,0
DA:143,0
DA:144,0
DA:145,0
DA:146,0
DA:147,0
DA:148,0
DA:149,0
DA:150,0
DA:151,0
DA:152,0
BRF:0
BRH:0
LF:99
LH:0
end_of_record
SF:/Users/saverypop/Documents/programming/secret-network/shade/oracles/contracts/siennaswap_lp_spot_oracle/src/lib.rs
FN:1,_RNvCseVlFB5O7lCN_25siennaswap_lp_spot_oracle4main
FNDA:2,_RNvCseVlFB5O7lCN_25siennaswap_lp_spot_oracle4main
FNF:1
FNH:1
DA:1,2
BRF:0
BRH:0
LF:1
LH:1
end_of_record
SF:/Users/saverypop/Documents/programming/secret-network/shade/oracles/contracts/siennaswap_market_oracle/src/contract.rs
FN:25,_RNvNtCs5sRKHz6Zcgz_24siennaswap_market_oracle8contract11instantiate
FN:58,_RNCNvNtCs5sRKHz6Zcgz_24siennaswap_market_oracle8contract11instantiates_0B5_
FN:76,_RNCNvNtCs5sRKHz6Zcgz_24siennaswap_market_oracle8contract11instantiates1_0B5_
FN:41,_RNCNvNtCs5sRKHz6Zcgz_24siennaswap_market_oracle8contract11instantiate0B5_
FN:104,_RNvNtCs5sRKHz6Zcgz_24siennaswap_market_oracle8contract7execute
FN:114,_RNvNtCs5sRKHz6Zcgz_24siennaswap_market_oracle8contract5query
FN:64,_RNCNvNtCs5sRKHz6Zcgz_24siennaswap_market_oracle8contract11instantiates0_0B5_
FN:120,_RNvXNtCs5sRKHz6Zcgz_24siennaswap_market_oracle8contractNtB2_22SiennaswapMarketOracleNtNtNtCs7ttpGOJz6iy_13shade_oracles10interfaces6common6Oracle15try_query_price
FN:76,_RNCNvNtCsgqDJprnDlBV_24siennaswap_market_oracle8contract11instantiates1_0B5_
FN:58,_RNCNvNtCsgqDJprnDlBV_24siennaswap_market_oracle8contract11instantiates_0B5_
FN:64,_RNCNvNtCsgqDJprnDlBV_24siennaswap_market_oracle8contract11instantiates0_0B5_
FN:25,_RNvNtCsgqDJprnDlBV_24siennaswap_market_oracle8contract11instantiate
FN:114,_RNvNtCsgqDJprnDlBV_24siennaswap_market_oracle8contract5query
FN:41,_RNCNvNtCsgqDJprnDlBV_24siennaswap_market_oracle8contract11instantiate0B5_
FN:104,_RNvNtCsgqDJprnDlBV_24siennaswap_market_oracle8contract7execute
FN:120,_RNvXNtCsgqDJprnDlBV_24siennaswap_market_oracle8contractNtB2_22SiennaswapMarketOracleNtNtNtCs7ttpGOJz6iy_13shade_oracles10interfaces6common6Oracle15try_query_price
FNDA:3,_RNvNtCs5sRKHz6Zcgz_24siennaswap_market_oracle8contract11instantiate
FNDA:6,_RNCNvNtCs5sRKHz6Zcgz_24siennaswap_market_oracle8contract11instantiates_0B5_
FNDA:6,_RNCNvNtCs5sRKHz6Zcgz_24siennaswap_market_oracle8contract11instantiates1_0B5_
FNDA:6,_RNCNvNtCs5sRKHz6Zcgz_24siennaswap_market_oracle8contract11instantiate0B5_
FNDA:0,_RNvNtCs5sRKHz6Zcgz_24siennaswap_market_oracle8contract7execute
FNDA:3,_RNvNtCs5sRKHz6Zcgz_24siennaswap_market_oracle8contract5query
FNDA:3,_RNCNvNtCs5sRKHz6Zcgz_24siennaswap_market_oracle8contract11instantiates0_0B5_
FNDA:3,_RNvXNtCs5sRKHz6Zcgz_24siennaswap_market_oracle8contractNtB2_22SiennaswapMarketOracleNtNtNtCs7ttpGOJz6iy_13shade_oracles10interfaces6common6Oracle15try_query_price
FNDA:0,_RNCNvNtCsgqDJprnDlBV_24siennaswap_market_oracle8contract11instantiates1_0B5_
FNDA:0,_RNCNvNtCsgqDJprnDlBV_24siennaswap_market_oracle8contract11instantiates_0B5_
FNDA:0,_RNCNvNtCsgqDJprnDlBV_24siennaswap_market_oracle8contract11instantiates0_0B5_
FNDA:0,_RNvNtCsgqDJprnDlBV_24siennaswap_market_oracle8contract11instantiate
FNDA:0,_RNvNtCsgqDJprnDlBV_24siennaswap_market_oracle8contract5query
FNDA:0,_RNCNvNtCsgqDJprnDlBV_24siennaswap_market_oracle8contract11instantiate0B5_
FNDA:0,_RNvNtCsgqDJprnDlBV_24siennaswap_market_oracle8contract7execute
FNDA:0,_RNvXNtCsgqDJprnDlBV_24siennaswap_market_oracle8contractNtB2_22SiennaswapMarketOracleNtNtNtCs7ttpGOJz6iy_13shade_oracles10interfaces6common6Oracle15try_query_price
FNF:8
FNH:7
DA:25,3
DA:26,3
DA:27,3
DA:28,3
DA:29,3
DA:30,3
DA:31,3
DA:32,3
DA:33,3
DA:34,3
DA:36,3
DA:37,3
DA:38,3
DA:39,3
DA:40,3
DA:41,6
DA:43,6
DA:44,6
DA:45,6
DA:46,6
DA:47,6
DA:48,6
DA:49,0
DA:50,3
DA:51,3
DA:52,3
DA:53,3
DA:54,3
DA:55,3
DA:56,3
DA:57,3
DA:58,6
DA:59,3
DA:60,3
DA:61,3
DA:62,3
DA:64,3
DA:65,3
DA:67,0
DA:68,0
DA:69,0
DA:70,0
DA:74,3
DA:75,3
DA:76,6
DA:77,3
DA:79,3
DA:80,3
DA:81,0
DA:82,3
DA:84,3
DA:85,3
DA:88,3
DA:89,0
DA:90,0
DA:91,0
DA:92,0
DA:93,3
DA:94,3
DA:95,3
DA:96,3
DA:97,3
DA:98,3
DA:100,3
DA:101,3
DA:104,0
DA:105,0
DA:106,0
DA:107,0
DA:108,0
DA:109,0
DA:110,0
DA:111,0
DA:114,3
DA:115,3
DA:116,3
DA:120,3
DA:121,3
DA:122,3
DA:123,3
DA:124,3
DA:125,3
DA:126,3
DA:127,3
DA:128,3
DA:129,3
DA:132,3
DA:133,3
DA:134,3
DA:135,3
DA:136,3
DA:137,3
DA:138,3
DA:139,3
DA:140,3
DA:141,3
DA:144,3
DA:145,3
DA:148,3
DA:149,3
DA:151,0
DA:155,3
DA:156,3
DA:157,3
DA:158,3
DA:159,3
DA:160,3
DA:161,3
DA:162,3
DA:163,3
DA:164,3
DA:165,3
DA:166,3
DA:167,3
DA:168,3
BRF:0
BRH:0
LF:119
LH:100
end_of_record
SF:/Users/saverypop/Documents/programming/secret-network/shade/oracles/contracts/siennaswap_market_oracle/src/lib.rs
FN:1,_RNvCsgqDJprnDlBV_24siennaswap_market_oracle4main
FNDA:2,_RNvCsgqDJprnDlBV_24siennaswap_market_oracle4main
FNF:1
FNH:1
DA:1,2
BRF:0
BRH:0
LF:1
LH:1
end_of_record
SF:/Users/saverypop/Documents/programming/secret-network/shade/oracles/packages/multi_test/src/helpers.rs
FN:32,_RNvMNtCsgkmnL3Ab2bX_24shade_oracles_multi_test7helpersNtB2_10OracleCore5setup
FN:111,_RNvMNtCsgkmnL3Ab2bX_24shade_oracles_multi_test7helpersNtB2_10OracleCore13update_prices
FN:32,_RNvMNtCsaVXmp5ELLJr_24shade_oracles_multi_test7helpersNtB2_10OracleCore5setup
FN:111,_RNvMNtCsaVXmp5ELLJr_24shade_oracles_multi_test7helpersNtB2_10OracleCore13update_prices
FNDA:11,_RNvMNtCsgkmnL3Ab2bX_24shade_oracles_multi_test7helpersNtB2_10OracleCore5setup
FNDA:0,_RNvMNtCsgkmnL3Ab2bX_24shade_oracles_multi_test7helpersNtB2_10OracleCore13update_prices
FNDA:0,_RNvMNtCsaVXmp5ELLJr_24shade_oracles_multi_test7helpersNtB2_10OracleCore5setup
FNDA:0,_RNvMNtCsaVXmp5ELLJr_24shade_oracles_multi_test7helpersNtB2_10OracleCore13update_prices
FNF:2
FNH:1
DA:32,11
DA:33,11
DA:35,11
DA:36,11
DA:37,11
DA:38,11
DA:39,11
DA:40,11
DA:41,11
DA:43,11
DA:44,11
DA:45,11
DA:46,11
DA:47,11
DA:48,11
DA:49,11
DA:51,11
DA:52,11
DA:53,11
DA:54,11
DA:55,11
DA:56,11
DA:57,11
DA:58,11
DA:59,11
DA:60,11
DA:61,11
DA:62,11
DA:63,11
DA:65,11
DA:66,11
DA:67,11
DA:68,11
DA:69,11
DA:70,11
DA:71,11
DA:72,11
DA:73,11
DA:74,11
DA:75,11
DA:76,11
DA:78,11
DA:79,11
DA:80,11
DA:81,11
DA:82,11
DA:83,11
DA:84,11
DA:85,11
DA:86,11
DA:87,11
DA:88,11
DA:91,47
DA:92,36
DA:93,36
DA:94,36
DA:95,36
DA:96,36
DA:97,36
DA:98,36
DA:99,36
DA:100,36
DA:102,11
DA:103,11
DA:104,11
DA:105,11
DA:106,11
DA:107,11
DA:108,11
DA:109,11
DA:111,0
DA:112,0
DA:113,0
DA:114,0
DA:115,0
DA:116,0
DA:117,0
DA:118,0
DA:119,0
DA:120,0
DA:121,0
DA:122,0
DA:123,0
DA:124,0
DA:125,0
DA:126,0
DA:127,0
BRF:0
BRH:0
LF:87
LH:70
end_of_record
SF:/Users/saverypop/Documents/programming/secret-network/shade/oracles/packages/multi_test/src/lib.rs
FN:1,_RNvCsaVXmp5ELLJr_24shade_oracles_multi_test4main
FNDA:2,_RNvCsaVXmp5ELLJr_24shade_oracles_multi_test4main
FNF:1
FNH:1
DA:1,2
BRF:0
BRH:0
LF:1
LH:1
end_of_record
SF:/Users/saverypop/Documents/programming/secret-network/shade/oracles/packages/shade_oracles/src/interfaces/band.rs
FN:119,_RINvXNvXNvNtNtNtCs7ttpGOJz6iy_13shade_oracles10interfaces4band5proxys_1__NtB8_14InstantiateMsgNtNtCs6CjExPaL98u_5serde2de11Deserialize11deserializeNtB3_14___FieldVisitorNtB1w_7Visitor9visit_strNtNtNtCs3JYPxoBuEj2_15serde_json_wasm2de6errors5ErrorECsgkmnL3Ab2bX_24shade_oracles_multi_test
FN:119,_RINvXs_NvXNvNtNtNtCs7ttpGOJz6iy_13shade_oracles10interfaces4band5proxys_1__NtBa_14InstantiateMsgNtNtCs6CjExPaL98u_5serde2de11Deserialize11deserializeNtB5_7___FieldB1w_11deserializeNtNtNtCs3JYPxoBuEj2_15serde_json_wasm2de3map6MapKeyECsgkmnL3Ab2bX_24shade_oracles_multi_test
FN:119,_RINvXNvNtNtNtCs7ttpGOJz6iy_13shade_oracles10interfaces4band5proxys_1__NtB5_14InstantiateMsgNtNtCs6CjExPaL98u_5serde2de11Deserialize11deserializeQNtNtCs3JYPxoBuEj2_15serde_json_wasm2de12DeserializerECsgkmnL3Ab2bX_24shade_oracles_multi_test
FN:119,_RINvXNvNtNtNtCs7ttpGOJz6iy_13shade_oracles10interfaces4band5proxy1__NtB5_14InstantiateMsgNtNtCs6CjExPaL98u_5serde3ser9Serialize9serializeQNtNtCs3JYPxoBuEj2_15serde_json_wasm3ser10SerializerECsgkmnL3Ab2bX_24shade_oracles_multi_test
FN:119,_RINvXs0_NvXNvNtNtNtCs7ttpGOJz6iy_13shade_oracles10interfaces4band5proxys_1__NtBb_14InstantiateMsgNtNtCs6CjExPaL98u_5serde2de11Deserialize11deserializeNtB6_9___VisitorNtB1z_7Visitor9visit_mapNtNtNtCs3JYPxoBuEj2_15serde_json_wasm2de3map9MapAccessECsgkmnL3Ab2bX_24shade_oracles_multi_test
FN:38,_RINvXs_NvXs0_NvXNvNtNtCs7ttpGOJz6iy_13shade_oracles10interfaces4bands8_1__NtBg_8QueryMsgNtNtCs6CjExPaL98u_5serde2de11Deserialize11deserializeNtBb_9___VisitorNtB1q_7Visitor10visit_enumNtB5_7___FieldB1o_11deserializeNtNtNtCs3JYPxoBuEj2_15serde_json_wasm2de3map6MapKeyECsgkmnL3Ab2bX_24shade_oracles_multi_test
FN:38,_RINvXNvNtNtCs7ttpGOJz6iy_13shade_oracles10interfaces4bands8_1__NtB5_8QueryMsgNtNtCs6CjExPaL98u_5serde2de11Deserialize11deserializeQNtNtCs3JYPxoBuEj2_15serde_json_wasm2de12DeserializerECsgkmnL3Ab2bX_24shade_oracles_multi_test
FN:12,_RINvXNvNtNtCs7ttpGOJz6iy_13shade_oracles10interfaces4band1__NtB5_14InstantiateMsgNtNtCs6CjExPaL98u_5serde3ser9Serialize9serializeQNtNtCs3JYPxoBuEj2_15serde_json_wasm3ser10SerializerECsgkmnL3Ab2bX_24shade_oracles_multi_test
FN:19,_RINvXs_NvXs0_NvXNvNtNtCs7ttpGOJz6iy_13shade_oracles10interfaces4bands2_1__NtBg_10ExecuteMsgNtNtCs6CjExPaL98u_5serde2de11Deserialize11deserializeNtBb_9___VisitorNtB1t_7Visitor10visit_enumNtB5_7___FieldB1r_11deserializeNtNtNtCs3JYPxoBuEj2_15serde_json_wasm2de3map6MapKeyECsgkmnL3Ab2bX_24shade_oracles_multi_test
FN:38,_RINvXs1_NvXs0_NvXNvNtNtCs7ttpGOJz6iy_13shade_oracles10interfaces4bands8_1__NtBh_8QueryMsgNtNtCs6CjExPaL98u_5serde2de11Deserialize11deserializeNtBc_9___VisitorNtB1r_7Visitor10visit_enumNtB6_s_14___FieldVisitorB2w_9visit_strNtNtNtCs3JYPxoBuEj2_15serde_json_wasm2de6errors5ErrorECsgkmnL3Ab2bX_24shade_oracles_multi_test
FN:38,_RINvXNvXNvNtNtCs7ttpGOJz6iy_13shade_oracles10interfaces4bands8_1__NtB8_8QueryMsgNtNtCs6CjExPaL98u_5serde2de11Deserialize11deserializeNtB3_14___FieldVisitorNtB1i_7Visitor9visit_strNtNtNtCs3JYPxoBuEj2_15serde_json_wasm2de6errors5ErrorECsgkmnL3Ab2bX_24shade_oracles_multi_test
FN:38,_RINvXNvXs0_NvXNvNtNtCs7ttpGOJz6iy_13shade_oracles10interfaces4bands8_1__NtBe_8QueryMsgNtNtCs6CjExPaL98u_5serde2de11Deserialize11deserializeNtB9_9___VisitorNtB1o_7Visitor10visit_enumNtB3_14___FieldVisitorB2t_9visit_strNtNtNtCs3JYPxoBuEj2_15serde_json_wasm2de6errors5ErrorECsgkmnL3Ab2bX_24shade_oracles_multi_test
FN:19,_RINvXs0_NvXs0_NvXNvNtNtCs7ttpGOJz6iy_13shade_oracles10interfaces4bands2_1__NtBh_10ExecuteMsgNtNtCs6CjExPaL98u_5serde2de11Deserialize11deserializeNtBc_9___VisitorNtB1u_7Visitor10visit_enumNtB6_9___VisitorB2z_9visit_mapNtNtNtCs3JYPxoBuEj2_15serde_json_wasm2de3map9MapAccessECsgkmnL3Ab2bX_24shade_oracles_multi_test
FN:12,_RINvXs_NvXNvNtNtCs7ttpGOJz6iy_13shade_oracles10interfaces4bands_1__NtBa_14InstantiateMsgNtNtCs6CjExPaL98u_5serde2de11Deserialize11deserializeNtB5_7___FieldB1o_11deserializeNtNtNtCs3JYPxoBuEj2_15serde_json_wasm2de3map6MapKeyECsgkmnL3Ab2bX_24shade_oracles_multi_test
FN:19,_RINvXNvNtNtCs7ttpGOJz6iy_13shade_oracles10interfaces4bands1_1__NtB5_10ExecuteMsgNtNtCs6CjExPaL98u_5serde3ser9Serialize9serializeQNtNtCs3JYPxoBuEj2_15serde_json_wasm3ser10SerializerECsgkmnL3Ab2bX_24shade_oracles_multi_test
FN:19,_RINvXNvXs0_NvXNvNtNtCs7ttpGOJz6iy_13shade_oracles10interfaces4bands2_1__NtBe_10ExecuteMsgNtNtCs6CjExPaL98u_5serde2de11Deserialize11deserializeNtB9_9___VisitorNtB1r_7Visitor10visit_enumNtB3_14___FieldVisitorB2w_9visit_strNtNtNtCs3JYPxoBuEj2_15serde_json_wasm2de6errors5ErrorECsgkmnL3Ab2bX_24shade_oracles_multi_test
FN:38,_RINvXs0_NvXNvNtNtCs7ttpGOJz6iy_13shade_oracles10interfaces4bands8_1__NtBb_8QueryMsgNtNtCs6CjExPaL98u_5serde2de11Deserialize11deserializeNtB6_9___VisitorNtB1l_7Visitor10visit_enumNtNtNtCs3JYPxoBuEj2_15serde_json_wasm2de5enum_19StructVariantAccessECsgkmnL3Ab2bX_24shade_oracles_multi_test
FN:12,_RINvXs0_NvXNvNtNtCs7ttpGOJz6iy_13shade_oracles10interfaces4bands_1__NtBb_14InstantiateMsgNtNtCs6CjExPaL98u_5serde2de11Deserialize11deserializeNtB6_9___VisitorNtB1r_7Visitor9visit_mapNtNtNtCs3JYPxoBuEj2_15serde_json_wasm2de3map9MapAccessECsgkmnL3Ab2bX_24shade_oracles_multi_test
FN:19,_RINvXs_NvXNvNtNtCs7ttpGOJz6iy_13shade_oracles10interfaces4bands2_1__NtBa_10ExecuteMsgNtNtCs6CjExPaL98u_5serde2de11Deserialize11deserializeNtB5_7___FieldB1l_11deserializeQNtNtCs3JYPxoBuEj2_15serde_json_wasm2de12DeserializerECsgkmnL3Ab2bX_24shade_oracles_multi_test
FN:38,_RINvXs0_NvXNvNtNtCs7ttpGOJz6iy_13shade_oracles10interfaces4bands8_1__NtBb_8QueryMsgNtNtCs6CjExPaL98u_5serde2de11Deserialize11deserializeNtB6_9___VisitorNtB1l_7Visitor10visit_enumNtNtNtCs3JYPxoBuEj2_15serde_json_wasm2de5enum_17UnitVariantAccessECsgkmnL3Ab2bX_24shade_oracles_multi_test
FN:12,_RINvXNvXNvNtNtCs7ttpGOJz6iy_13shade_oracles10interfaces4bands_1__NtB8_14InstantiateMsgNtNtCs6CjExPaL98u_5serde2de11Deserialize11deserializeNtB3_14___FieldVisitorNtB1o_7Visitor9visit_strNtNtNtCs3JYPxoBuEj2_15serde_json_wasm2de6errors5ErrorECsgkmnL3Ab2bX_24shade_oracles_multi_test
FN:19,_RINvXNvNtNtCs7ttpGOJz6iy_13shade_oracles10interfaces4bands2_1__NtB5_10ExecuteMsgNtNtCs6CjExPaL98u_5serde2de11Deserialize11deserializeQNtNtCs3JYPxoBuEj2_15serde_json_wasm2de12DeserializerECsgkmnL3Ab2bX_24shade_oracles_multi_test
FN:38,_RINvXs2_NvXs0_NvXNvNtNtCs7ttpGOJz6iy_13shade_oracles10interfaces4bands8_1__NtBh_8QueryMsgNtNtCs6CjExPaL98u_5serde2de11Deserialize11deserializeNtBc_9___VisitorNtB1r_7Visitor10visit_enumNtB6_s_7___FieldB1p_11deserializeNtNtNtCs3JYPxoBuEj2_15serde_json_wasm2de3map6MapKeyECsgkmnL3Ab2bX_24shade_oracles_multi_test
FN:19,_RINvXNvXNvNtNtCs7ttpGOJz6iy_13shade_oracles10interfaces4bands2_1__NtB8_10ExecuteMsgNtNtCs6CjExPaL98u_5serde2de11Deserialize11deserializeNtB3_14___FieldVisitorNtB1l_7Visitor9visit_strNtNtNtCs3JYPxoBuEj2_15serde_json_wasm2de6errors5ErrorECsgkmnL3Ab2bX_24shade_oracles_multi_test
FN:38,_RINvXs3_NvXs0_NvXNvNtNtCs7ttpGOJz6iy_13shade_oracles10interfaces4bands8_1__NtBh_8QueryMsgNtNtCs6CjExPaL98u_5serde2de11Deserialize11deserializeNtBc_9___VisitorNtB1r_7Visitor10visit_enumNtB6_s_9___VisitorB2w_9visit_mapNtNtNtCs3JYPxoBuEj2_15serde_json_wasm2de3map9MapAccessECsgkmnL3Ab2bX_24shade_oracles_multi_test
FN:19,_RINvXs0_NvXNvNtNtCs7ttpGOJz6iy_13shade_oracles10interfaces4bands2_1__NtBb_10ExecuteMsgNtNtCs6CjExPaL98u_5serde2de11Deserialize11deserializeNtB6_9___VisitorNtB1o_7Visitor10visit_enumNtNtNtCs3JYPxoBuEj2_15serde_json_wasm2de5enum_19StructVariantAccessECsgkmnL3Ab2bX_24shade_oracles_multi_test
FN:38,_RINvXs0_NvXs0_NvXNvNtNtCs7ttpGOJz6iy_13shade_oracles10interfaces4bands8_1__NtBh_8QueryMsgNtNtCs6CjExPaL98u_5serde2de11Deserialize11deserializeNtBc_9___VisitorNtB1r_7Visitor10visit_enumNtB6_9___VisitorB2w_9visit_mapNtNtNtCs3JYPxoBuEj2_15serde_json_wasm2de3map9MapAccessECsgkmnL3Ab2bX_24shade_oracles_multi_test
FN:38,_RINvXs_NvXNvNtNtCs7ttpGOJz6iy_13shade_oracles10interfaces4bands8_1__NtBa_8QueryMsgNtNtCs6CjExPaL98u_5serde2de11Deserialize11deserializeNtB5_7___FieldB1i_11deserializeQNtNtCs3JYPxoBuEj2_15serde_json_wasm2de12DeserializerECsgkmnL3Ab2bX_24shade_oracles_multi_test
FN:12,_RINvXNvNtNtCs7ttpGOJz6iy_13shade_oracles10interfaces4bands_1__NtB5_14InstantiateMsgNtNtCs6CjExPaL98u_5serde2de11Deserialize11deserializeQNtNtCs3JYPxoBuEj2_15serde_json_wasm2de12DeserializerECsgkmnL3Ab2bX_24shade_oracles_multi_test
FN:19,_RINvXs0_NvXNvNtNtCs7ttpGOJz6iy_13shade_oracles10interfaces4bands2_1__NtBb_10ExecuteMsgNtNtCs6CjExPaL98u_5serde2de11Deserialize11deserializeNtB6_9___VisitorNtB1o_7Visitor10visit_enumNtNtNtCs3JYPxoBuEj2_15serde_json_wasm2de5enum_17UnitVariantAccessECsgkmnL3Ab2bX_24shade_oracles_multi_test
FN:53,_RINvXNvNtNtCs7ttpGOJz6iy_13shade_oracles10interfaces4bandsa_1__NtB5_13ReferenceDataNtNtCs6CjExPaL98u_5serde3ser9Serialize9serializeQNtNtCs3JYPxoBuEj2_15serde_json_wasm3ser10SerializerECs6Kli61lKT0n_31shade_staking_derivative_oracle
FN:53,_RNvXsj_NtNtCs7ttpGOJz6iy_13shade_oracles10interfaces4bandNtB5_13ReferenceDataNtNtCs59N989QkIgV_4core5clone5Clone5cloneCsl4rh8uzcDWC_20siennaswap_lp_oracle
FN:53,_RINvXNvNtNtCs7ttpGOJz6iy_13shade_oracles10interfaces4bandsa_1__NtB5_13ReferenceDataNtNtCs6CjExPaL98u_5serde3ser9Serialize9serializeQNtNtCs3JYPxoBuEj2_15serde_json_wasm3ser10SerializerECsl4rh8uzcDWC_20siennaswap_lp_oracle
FN:53,_RINvXNvNtNtCs7ttpGOJz6iy_13shade_oracles10interfaces4bandsa_1__NtB5_13ReferenceDataNtNtCs6CjExPaL98u_5serde3ser9Serialize9serializeQNtNtCs3JYPxoBuEj2_15serde_json_wasm3ser10SerializerECs8soImV1O5bu_25siennaswap_lp_spot_oracle
FN:53,_RNvXsj_NtNtCs7ttpGOJz6iy_13shade_oracles10interfaces4bandNtB5_13ReferenceDataNtNtCs59N989QkIgV_4core5clone5Clone5cloneCs8soImV1O5bu_25siennaswap_lp_spot_oracle
FN:53,_RINvXNvNtNtCs7ttpGOJz6iy_13shade_oracles10interfaces4bandsa_1__NtB5_13ReferenceDataNtNtCs6CjExPaL98u_5serde3ser9Serialize9serializeQNtNtCs3JYPxoBuEj2_15serde_json_wasm3ser10SerializerECseKCZb5Dbj8H_23shadeswap_market_oracle
FN:53,_RINvXNvNtNtCs7ttpGOJz6iy_13shade_oracles10interfaces4bandsa_1__NtB5_13ReferenceDataNtNtCs6CjExPaL98u_5serde3ser9Serialize9serializeQNtNtCs3JYPxoBuEj2_15serde_json_wasm3ser10SerializerECs5sRKHz6Zcgz_24siennaswap_market_oracle
FN:53,_RINvXNvNtNtCs7ttpGOJz6iy_13shade_oracles10interfaces4bandsa_1__NtB5_13ReferenceDataNtNtCs6CjExPaL98u_5serde3ser9Serialize9serializeQNtNtCs3JYPxoBuEj2_15serde_json_wasm3ser10SerializerECs5hPCVRE3j1J_12index_oracle
FN:53,_RNvXsj_NtNtCs7ttpGOJz6iy_13shade_oracles10interfaces4bandNtB5_13ReferenceDataNtNtCs59N989QkIgV_4core5clone5Clone5cloneCs5hPCVRE3j1J_12index_oracle
FN:53,_RINvXNvNtNtCs7ttpGOJz6iy_13shade_oracles10interfaces4bandsa_1__NtB5_13ReferenceDataNtNtCs6CjExPaL98u_5serde3ser9Serialize9serializeQNtNtCs3JYPxoBuEj2_15serde_json_wasm3ser10SerializerECsefm3kO4uR0a_9mock_band
FN:33,_RINvXNvNtNtCs7ttpGOJz6iy_13shade_oracles10interfaces4bands4_1__NtB5_12HandleAnswerNtNtCs6CjExPaL98u_5serde3ser9Serialize9serializeQNtNtCs3JYPxoBuEj2_15serde_json_wasm3ser10SerializerECsefm3kO4uR0a_9mock_band
FN:132,_RINvXNvXNvNtNtNtCs7ttpGOJz6iy_13shade_oracles10interfaces4band5proxys5_1__NtB8_11QuoteSymbolNtNtCs6CjExPaL98u_5serde2de11Deserialize11deserializeNtB3_9___VisitorNtB1u_7Visitor20visit_newtype_structQNtNtCs3JYPxoBuEj2_15serde_json_wasm2de12DeserializerECs5J3WLKJaAzT_17proxy_band_oracle
FN:132,_RINvXNvNtNtNtCs7ttpGOJz6iy_13shade_oracles10interfaces4band5proxys5_1__NtB5_11QuoteSymbolNtNtCs6CjExPaL98u_5serde2de11Deserialize11deserializeQNtNtCs3JYPxoBuEj2_15serde_json_wasm2de12DeserializerECs5J3WLKJaAzT_17proxy_band_oracle
FN:132,_RINvXNvNtNtNtCs7ttpGOJz6iy_13shade_oracles10interfaces4band5proxys4_1__NtB5_11QuoteSymbolNtNtCs6CjExPaL98u_5serde3ser9Serialize9serializeQNtNtCs3JYPxoBuEj2_15serde_json_wasm3ser10SerializerECs5J3WLKJaAzT_17proxy_band_oracle
FN:53,_RINvXNvNtNtCs7ttpGOJz6iy_13shade_oracles10interfaces4bandsa_1__NtB5_13ReferenceDataNtNtCs6CjExPaL98u_5serde3ser9Serialize9serializeQNtNtCs3JYPxoBuEj2_15serde_json_wasm3ser10SerializerECs5J3WLKJaAzT_17proxy_band_oracle
FN:53,_RNvXsj_NtNtCs7ttpGOJz6iy_13shade_oracles10interfaces4bandNtB5_13ReferenceDataNtNtCs59N989QkIgV_4core5clone5Clone5cloneCs5J3WLKJaAzT_17proxy_band_oracle
FN:53,_RINvXNvNtNtCs7ttpGOJz6iy_13shade_oracles10interfaces4bandsa_1__NtB5_13ReferenceDataNtNtCs6CjExPaL98u_5serde3ser9Serialize9serializeQNtNtCs3JYPxoBuEj2_15serde_json_wasm3ser10SerializerECs6Knm8LX4JT4_13oracle_router
FN:77,_RINvXNvNtNtCs7ttpGOJz6iy_13shade_oracles10interfaces4bandsg_1__NtB5_17ReferenceDataBulkNtNtCs6CjExPaL98u_5serde2de11Deserialize11deserializepEB9_
FN:19,_RINvXs0_NvXs0_NvXNvNtNtCs7ttpGOJz6iy_13shade_oracles10interfaces4bands2_1__NtBh_10ExecuteMsgNtNtCs6CjExPaL98u_5serde2de11Deserialize11deserializeNtBc_9___VisitorNtB1u_7Visitor10visit_enumNtB6_9___VisitorB2z_9visit_seqpEBl_
FN:126,_RNvXs7_NtNtNtCs7ttpGOJz6iy_13shade_oracles10interfaces4band5proxyNtB5_14ConfigResponseNtNtCs59N989QkIgV_4core3cmp9PartialEq2neBb_
FN:77,_RINvXs0_NvXNvNtNtCs7ttpGOJz6iy_13shade_oracles10interfaces4bandsg_1__NtBb_17ReferenceDataBulkNtNtCs6CjExPaL98u_5serde2de11Deserialize11deserializeNtB6_9___VisitorNtB1v_7Visitor9visit_seqpEBf_
FN:33,_RINvXs0_NvXs0_NvXNvNtNtCs7ttpGOJz6iy_13shade_oracles10interfaces4bands5_1__NtBh_12HandleAnswerNtNtCs6CjExPaL98u_5serde2de11Deserialize11deserializeNtBc_9___VisitorNtB1w_7Visitor10visit_enumNtB6_9___VisitorB2B_9visit_mappEBl_
FN:126,_RINvXs_NvXNvNtNtNtCs7ttpGOJz6iy_13shade_oracles10interfaces4band5proxys2_1__NtBa_14ConfigResponseNtNtCs6CjExPaL98u_5serde2de11Deserialize11deserializeNtB5_7___FieldB1x_11deserializepEBg_
FN:33,_RINvXNvXs0_NvXNvNtNtCs7ttpGOJz6iy_13shade_oracles10interfaces4bands5_1__NtBe_12HandleAnswerNtNtCs6CjExPaL98u_5serde2de11Deserialize11deserializeNtB9_9___VisitorNtB1t_7Visitor10visit_enumNtB3_14___FieldVisitorB2y_9visit_strpEBi_
FN:19,_RINvXs0_NvXs0_NvXNvNtNtCs7ttpGOJz6iy_13shade_oracles10interfaces4bands2_1__NtBh_10ExecuteMsgNtNtCs6CjExPaL98u_5serde2de11Deserialize11deserializeNtBc_9___VisitorNtB1u_7Visitor10visit_enumNtB6_9___VisitorB2z_9visit_mappEBl_
FN:126,_RINvXNvNtNtNtCs7ttpGOJz6iy_13shade_oracles10interfaces4band5proxys2_1__NtB5_14ConfigResponseNtNtCs6CjExPaL98u_5serde2de11Deserialize11deserializepEBb_
FN:70,_RINvXNvNtNtCs7ttpGOJz6iy_13shade_oracles10interfaces4bandsd_1__NtB5_16BtrReferenceDataNtNtCs6CjExPaL98u_5serde3ser9Serialize9serializepEB9_
FN:38,_RINvXs0_NvXs0_NvXNvNtNtCs7ttpGOJz6iy_13shade_oracles10interfaces4bands8_1__NtBh_8QueryMsgNtNtCs6CjExPaL98u_5serde2de11Deserialize11deserializeNtBc_9___VisitorNtB1r_7Visitor10visit_enumNtB6_9___VisitorB2w_9visit_seqpEBl_
FN:119,_RNvXs3_NtNtNtCs7ttpGOJz6iy_13shade_oracles10interfaces4band5proxyNtB5_14InstantiateMsgNtNtCs59N989QkIgV_4core3cmp9PartialEq2eqBb_
FN:70,_RINvXNvXNvNtNtCs7ttpGOJz6iy_13shade_oracles10interfaces4bandse_1__NtB8_16BtrReferenceDataNtNtCs6CjExPaL98u_5serde2de11Deserialize11deserializeNtB3_14___FieldVisitorNtB1r_7Visitor9visit_strpEBc_
FN:77,_RINvXNvXNvNtNtCs7ttpGOJz6iy_13shade_oracles10interfaces4bandsg_1__NtB8_17ReferenceDataBulkNtNtCs6CjExPaL98u_5serde2de11Deserialize11deserializeNtB3_14___FieldVisitorNtB1s_7Visitor9visit_strpEBc_
FN:132,_RNvXsb_NtNtNtCs7ttpGOJz6iy_13shade_oracles10interfaces4band5proxyNtB5_11QuoteSymbolNtNtCs59N989QkIgV_4core3cmp9PartialEq2eqBb_
FN:12,_RINvXNvNtNtCs7ttpGOJz6iy_13shade_oracles10interfaces4bands_1__NtB5_14InstantiateMsgNtNtCs6CjExPaL98u_5serde2de11Deserialize11deserializepEB9_
FN:77,_RNvXsu_NtNtCs7ttpGOJz6iy_13shade_oracles10interfaces4bandNtB5_17ReferenceDataBulkNtNtCs59N989QkIgV_4core3cmp9PartialEq2neB9_
FN:33,_RINvXNvNtNtCs7ttpGOJz6iy_13shade_oracles10interfaces4bands5_1__NtB5_12HandleAnswerNtNtCs6CjExPaL98u_5serde2de11Deserialize11deserializepEB9_
FN:33,_RINvXNvXNvNtNtCs7ttpGOJz6iy_13shade_oracles10interfaces4bands5_1__NtB8_12HandleAnswerNtNtCs6CjExPaL98u_5serde2de11Deserialize11deserializeNtB3_14___FieldVisitorNtB1n_7Visitor9visit_strpEBc_
FN:77,_RINvXs0_NvXNvNtNtCs7ttpGOJz6iy_13shade_oracles10interfaces4bandsg_1__NtBb_17ReferenceDataBulkNtNtCs6CjExPaL98u_5serde2de11Deserialize11deserializeNtB6_9___VisitorNtB1v_7Visitor9visit_mappEBf_
FN:38,_RINvXNvXNvNtNtCs7ttpGOJz6iy_13shade_oracles10interfaces4bands8_1__NtB8_8QueryMsgNtNtCs6CjExPaL98u_5serde2de11Deserialize11deserializeNtB3_14___FieldVisitorNtB1i_7Visitor9visit_strpEBc_
FN:119,_RINvXNvXNvNtNtNtCs7ttpGOJz6iy_13shade_oracles10interfaces4band5proxys_1__NtB8_14InstantiateMsgNtNtCs6CjExPaL98u_5serde2de11Deserialize11deserializeNtB3_14___FieldVisitorNtB1w_7Visitor9visit_strpEBe_
FN:77,_RINvXNvNtNtCs7ttpGOJz6iy_13shade_oracles10interfaces4bandsf_1__NtB5_17ReferenceDataBulkNtNtCs6CjExPaL98u_5serde3ser9Serialize9serializepEB9_
FN:38,_RINvXs3_NvXs0_NvXNvNtNtCs7ttpGOJz6iy_13shade_oracles10interfaces4bands8_1__NtBh_8QueryMsgNtNtCs6CjExPaL98u_5serde2de11Deserialize11deserializeNtBc_9___VisitorNtB1r_7Visitor10visit_enumNtB6_s_9___VisitorB2w_9visit_seqpEBl_
FN:38,_RINvXs2_NvXs0_NvXNvNtNtCs7ttpGOJz6iy_13shade_oracles10interfaces4bands8_1__NtBh_8QueryMsgNtNtCs6CjExPaL98u_5serde2de11Deserialize11deserializeNtBc_9___VisitorNtB1r_7Visitor10visit_enumNtB6_s_7___FieldB1p_11deserializepEBl_
FN:38,_RINvXs1_NvXs0_NvXNvNtNtCs7ttpGOJz6iy_13shade_oracles10interfaces4bands8_1__NtBh_8QueryMsgNtNtCs6CjExPaL98u_5serde2de11Deserialize11deserializeNtBc_9___VisitorNtB1r_7Visitor10visit_enumNtB6_s_14___FieldVisitorB2w_11visit_bytespEBl_
FN:19,_RINvXNvXNvNtNtCs7ttpGOJz6iy_13shade_oracles10interfaces4bands2_1__NtB8_10ExecuteMsgNtNtCs6CjExPaL98u_5serde2de11Deserialize11deserializeNtB3_14___FieldVisitorNtB1l_7Visitor11visit_bytespEBc_
FN:19,_RNvXs6_NtNtCs7ttpGOJz6iy_13shade_oracles10interfaces4bandNtB5_10ExecuteMsgNtNtCs59N989QkIgV_4core5clone5Clone5cloneB9_
FN:19,_RINvXNvNtNtCs7ttpGOJz6iy_13shade_oracles10interfaces4bands1_1__NtB5_10ExecuteMsgNtNtCs6CjExPaL98u_5serde3ser9Serialize9serializepEB9_
FN:33,_RINvXs_NvXs0_NvXNvNtNtCs7ttpGOJz6iy_13shade_oracles10interfaces4bands5_1__NtBg_12HandleAnswerNtNtCs6CjExPaL98u_5serde2de11Deserialize11deserializeNtBb_9___VisitorNtB1v_7Visitor10visit_enumNtB5_7___FieldB1t_11deserializepEBk_
FN:70,_RINvXs_NvXNvNtNtCs7ttpGOJz6iy_13shade_oracles10interfaces4bandse_1__NtBa_16BtrReferenceDataNtNtCs6CjExPaL98u_5serde2de11Deserialize11deserializeNtB5_7___FieldB1r_11deserializepEBe_
FN:12,_RNvXs5_NtNtCs7ttpGOJz6iy_13shade_oracles10interfaces4bandNtB5_14InstantiateMsgNtNtCs59N989QkIgV_4core3cmp9PartialEq2eqB9_
FN:53,_RINvXNvXNvNtNtCs7ttpGOJz6iy_13shade_oracles10interfaces4bandsb_1__NtB8_13ReferenceDataNtNtCs6CjExPaL98u_5serde2de11Deserialize11deserializeNtB3_14___FieldVisitorNtB1o_7Visitor11visit_bytespEBc_
FN:19,_RINvXNvXs0_NvXNvNtNtCs7ttpGOJz6iy_13shade_oracles10interfaces4bands2_1__NtBe_10ExecuteMsgNtNtCs6CjExPaL98u_5serde2de11Deserialize11deserializeNtB9_9___VisitorNtB1r_7Visitor10visit_enumNtB3_14___FieldVisitorB2w_9visit_strpEBi_
FN:77,_RNvXsr_NtNtCs7ttpGOJz6iy_13shade_oracles10interfaces4bandNtB5_17ReferenceDataBulkNtNtCs59N989QkIgV_4core5clone5Clone5cloneB9_
FN:53,_RINvXs0_NvXNvNtNtCs7ttpGOJz6iy_13shade_oracles10interfaces4bandsb_1__NtBb_13ReferenceDataNtNtCs6CjExPaL98u_5serde2de11Deserialize11deserializeNtB6_9___VisitorNtB1r_7Visitor9visit_seqpEBf_
FN:38,_RNvXse_NtNtCs7ttpGOJz6iy_13shade_oracles10interfaces4bandNtB5_8QueryMsgNtNtCs59N989QkIgV_4core5clone5Clone5cloneB9_
FN:33,_RINvXNvXs0_NvXNvNtNtCs7ttpGOJz6iy_13shade_oracles10interfaces4bands5_1__NtBe_12HandleAnswerNtNtCs6CjExPaL98u_5serde2de11Deserialize11deserializeNtB9_9___VisitorNtB1t_7Visitor10visit_enumNtB3_14___FieldVisitorB2y_9visit_u64pEBi_
FN:33,_RINvXNvXNvNtNtCs7ttpGOJz6iy_13shade_oracles10interfaces4bands5_1__NtB8_12HandleAnswerNtNtCs6CjExPaL98u_5serde2de11Deserialize11deserializeNtB3_14___FieldVisitorNtB1n_7Visitor11visit_bytespEBc_
FN:38,_RINvXNvXs0_NvXNvNtNtCs7ttpGOJz6iy_13shade_oracles10interfaces4bands8_1__NtBe_8QueryMsgNtNtCs6CjExPaL98u_5serde2de11Deserialize11deserializeNtB9_9___VisitorNtB1o_7Visitor10visit_enumNtB3_14___FieldVisitorB2t_9visit_strpEBi_
FN:119,_RINvXs_NvXNvNtNtNtCs7ttpGOJz6iy_13shade_oracles10interfaces4band5proxys_1__NtBa_14InstantiateMsgNtNtCs6CjExPaL98u_5serde2de11Deserialize11deserializeNtB5_7___FieldB1w_11deserializepEBg_
FN:38,_RINvXs0_NvXNvNtNtCs7ttpGOJz6iy_13shade_oracles10interfaces4bands8_1__NtBb_8QueryMsgNtNtCs6CjExPaL98u_5serde2de11Deserialize11deserializeNtB6_9___VisitorNtB1l_7Visitor10visit_enumpEBf_
FN:119,_RNvXs0_NtNtNtCs7ttpGOJz6iy_13shade_oracles10interfaces4band5proxyNtB5_14InstantiateMsgNtNtCs59N989QkIgV_4core5clone5Clone5cloneBb_
FN:126,_RINvXs0_NvXNvNtNtNtCs7ttpGOJz6iy_13shade_oracles10interfaces4band5proxys2_1__NtBb_14ConfigResponseNtNtCs6CjExPaL98u_5serde2de11Deserialize11deserializeNtB6_9___VisitorNtB1A_7Visitor9visit_seqpEBh_
FN:53,_RINvXNvNtNtCs7ttpGOJz6iy_13shade_oracles10interfaces4bandsa_1__NtB5_13ReferenceDataNtNtCs6CjExPaL98u_5serde3ser9Serialize9serializepEB9_
FN:33,_RINvXs0_NvXNvNtNtCs7ttpGOJz6iy_13shade_oracles10interfaces4bands5_1__NtBb_12HandleAnswerNtNtCs6CjExPaL98u_5serde2de11Deserialize11deserializeNtB6_9___VisitorNtB1q_7Visitor10visit_enumpEBf_
FN:33,_RINvXNvXNvNtNtCs7ttpGOJz6iy_13shade_oracles10interfaces4bands5_1__NtB8_12HandleAnswerNtNtCs6CjExPaL98u_5serde2de11Deserialize11deserializeNtB3_14___FieldVisitorNtB1n_7Visitor9visit_u64pEBc_
FN:38,_RINvXNvXNvNtNtCs7ttpGOJz6iy_13shade_oracles10interfaces4bands8_1__NtB8_8QueryMsgNtNtCs6CjExPaL98u_5serde2de11Deserialize11deserializeNtB3_14___FieldVisitorNtB1i_7Visitor11visit_bytespEBc_
FN:119,_RINvXNvXNvNtNtNtCs7ttpGOJz6iy_13shade_oracles10interfaces4band5proxys_1__NtB8_14InstantiateMsgNtNtCs6CjExPaL98u_5serde2de11Deserialize11deserializeNtB3_14___FieldVisitorNtB1w_7Visitor9visit_u64pEBe_
FN:119,_RINvXs0_NvXNvNtNtNtCs7ttpGOJz6iy_13shade_oracles10interfaces4band5proxys_1__NtBb_14InstantiateMsgNtNtCs6CjExPaL98u_5serde2de11Deserialize11deserializeNtB6_9___VisitorNtB1z_7Visitor9visit_mappEBh_
FN:126,_RINvXNvNtNtNtCs7ttpGOJz6iy_13shade_oracles10interfaces4band5proxys1_1__NtB5_14ConfigResponseNtNtCs6CjExPaL98u_5serde3ser9Serialize9serializepEBb_
FN:38,_RINvXs1_NvXs0_NvXNvNtNtCs7ttpGOJz6iy_13shade_oracles10interfaces4bands8_1__NtBh_8QueryMsgNtNtCs6CjExPaL98u_5serde2de11Deserialize11deserializeNtBc_9___VisitorNtB1r_7Visitor10visit_enumNtB6_s_14___FieldVisitorB2w_9visit_strpEBl_
FN:70,_RNvXsq_NtNtCs7ttpGOJz6iy_13shade_oracles10interfaces4bandNtB5_16BtrReferenceDataNtNtCs59N989QkIgV_4core3cmp9PartialEq2eqB9_
FN:19,_RINvXNvXs0_NvXNvNtNtCs7ttpGOJz6iy_13shade_oracles10interfaces4bands2_1__NtBe_10ExecuteMsgNtNtCs6CjExPaL98u_5serde2de11Deserialize11deserializeNtB9_9___VisitorNtB1r_7Visitor10visit_enumNtB3_14___FieldVisitorB2w_11visit_bytespEBi_
FN:19,_RINvXNvXNvNtNtCs7ttpGOJz6iy_13shade_oracles10interfaces4bands2_1__NtB8_10ExecuteMsgNtNtCs6CjExPaL98u_5serde2de11Deserialize11deserializeNtB3_14___FieldVisitorNtB1l_7Visitor9visit_strpEBc_
FN:77,_RNvXsu_NtNtCs7ttpGOJz6iy_13shade_oracles10interfaces4bandNtB5_17ReferenceDataBulkNtNtCs59N989QkIgV_4core3cmp9PartialEq2eqB9_
FN:126,_RNvXs4_NtNtNtCs7ttpGOJz6iy_13shade_oracles10interfaces4band5proxyNtB5_14ConfigResponseNtNtCs59N989QkIgV_4core5clone5Clone5cloneBb_
FN:12,_RINvXNvXNvNtNtCs7ttpGOJz6iy_13shade_oracles10interfaces4bands_1__NtB8_14InstantiateMsgNtNtCs6CjExPaL98u_5serde2de11Deserialize11deserializeNtB3_14___FieldVisitorNtB1o_7Visitor9visit_u64pEBc_
FN:77,_RINvXNvXNvNtNtCs7ttpGOJz6iy_13shade_oracles10interfaces4bandsg_1__NtB8_17ReferenceDataBulkNtNtCs6CjExPaL98u_5serde2de11Deserialize11deserializeNtB3_14___FieldVisitorNtB1s_7Visitor11visit_bytespEBc_
FN:132,_RINvXNvXNvNtNtNtCs7ttpGOJz6iy_13shade_oracles10interfaces4band5proxys5_1__NtB8_11QuoteSymbolNtNtCs6CjExPaL98u_5serde2de11Deserialize11deserializeNtB3_9___VisitorNtB1u_7Visitor20visit_newtype_structpEBe_
FN:12,_RINvXs0_NvXNvNtNtCs7ttpGOJz6iy_13shade_oracles10interfaces4bands_1__NtBb_14InstantiateMsgNtNtCs6CjExPaL98u_5serde2de11Deserialize11deserializeNtB6_9___VisitorNtB1r_7Visitor9visit_seqpEBf_
FN:33,_RINvXNvNtNtCs7ttpGOJz6iy_13shade_oracles10interfaces4bands4_1__NtB5_12HandleAnswerNtNtCs6CjExPaL98u_5serde3ser9Serialize9serializepEB9_
FN:33,_RNvXsd_NtNtCs7ttpGOJz6iy_13shade_oracles10interfaces4bandNtB5_12HandleAnswerNtNtCs59N989QkIgV_4core3cmp9PartialEq2neB9_
FN:38,_RINvXNvXs0_NvXNvNtNtCs7ttpGOJz6iy_13shade_oracles10interfaces4bands8_1__NtBe_8QueryMsgNtNtCs6CjExPaL98u_5serde2de11Deserialize11deserializeNtB9_9___VisitorNtB1o_7Visitor10visit_enumNtB3_14___FieldVisitorB2t_9visit_u64pEBi_
FN:33,_RINvXs0_NvXs0_NvXNvNtNtCs7ttpGOJz6iy_13shade_oracles10interfaces4bands5_1__NtBh_12HandleAnswerNtNtCs6CjExPaL98u_5serde2de11Deserialize11deserializeNtBc_9___VisitorNtB1w_7Visitor10visit_enumNtB6_9___VisitorB2B_9visit_seqpEBl_
FN:33,_RINvXNvXs0_NvXNvNtNtCs7ttpGOJz6iy_13shade_oracles10interfaces4bands5_1__NtBe_12HandleAnswerNtNtCs6CjExPaL98u_5serde2de11Deserialize11deserializeNtB9_9___VisitorNtB1t_7Visitor10visit_enumNtB3_14___FieldVisitorB2y_11visit_bytespEBi_
FN:132,_RINvXNvNtNtNtCs7ttpGOJz6iy_13shade_oracles10interfaces4band5proxys5_1__NtB5_11QuoteSymbolNtNtCs6CjExPaL98u_5serde2de11Deserialize11deserializepEBb_
FN:77,_RINvXs_NvXNvNtNtCs7ttpGOJz6iy_13shade_oracles10interfaces4bandsg_1__NtBa_17ReferenceDataBulkNtNtCs6CjExPaL98u_5serde2de11Deserialize11deserializeNtB5_7___FieldB1s_11deserializepEBe_
FN:70,_RNvXsn_NtNtCs7ttpGOJz6iy_13shade_oracles10interfaces4bandNtB5_16BtrReferenceDataNtNtCs59N989QkIgV_4core5clone5Clone5cloneB9_
FN:70,_RINvXNvXNvNtNtCs7ttpGOJz6iy_13shade_oracles10interfaces4bandse_1__NtB8_16BtrReferenceDataNtNtCs6CjExPaL98u_5serde2de11Deserialize11deserializeNtB3_14___FieldVisitorNtB1r_7Visitor9visit_u64pEBc_
FN:12,_RINvXNvXNvNtNtCs7ttpGOJz6iy_13shade_oracles10interfaces4bands_1__NtB8_14InstantiateMsgNtNtCs6CjExPaL98u_5serde2de11Deserialize11deserializeNtB3_14___FieldVisitorNtB1o_7Visitor9visit_strpEBc_
FN:38,_RNvXsh_NtNtCs7ttpGOJz6iy_13shade_oracles10interfaces4bandNtB5_8QueryMsgNtNtCs59N989QkIgV_4core3cmp9PartialEq2eqB9_
FN:119,_RINvXNvNtNtNtCs7ttpGOJz6iy_13shade_oracles10interfaces4band5proxys_1__NtB5_14InstantiateMsgNtNtCs6CjExPaL98u_5serde2de11Deserialize11deserializepEBb_
FN:12,_RINvXs_NvXNvNtNtCs7ttpGOJz6iy_13shade_oracles10interfaces4bands_1__NtBa_14InstantiateMsgNtNtCs6CjExPaL98u_5serde2de11Deserialize11deserializeNtB5_7___FieldB1o_11deserializepEBe_
FN:19,_RINvXNvNtNtCs7ttpGOJz6iy_13shade_oracles10interfaces4bands2_1__NtB5_10ExecuteMsgNtNtCs6CjExPaL98u_5serde2de11Deserialize11deserializepEB9_
FN:19,_RINvXNvXs0_NvXNvNtNtCs7ttpGOJz6iy_13shade_oracles10interfaces4bands2_1__NtBe_10ExecuteMsgNtNtCs6CjExPaL98u_5serde2de11Deserialize11deserializeNtB9_9___VisitorNtB1r_7Visitor10visit_enumNtB3_14___FieldVisitorB2w_9visit_u64pEBi_
FN:12,_RINvXNvNtNtCs7ttpGOJz6iy_13shade_oracles10interfaces4band1__NtB5_14InstantiateMsgNtNtCs6CjExPaL98u_5serde3ser9Serialize9serializepEB9_
FN:119,_RINvXNvXNvNtNtNtCs7ttpGOJz6iy_13shade_oracles10interfaces4band5proxys_1__NtB8_14InstantiateMsgNtNtCs6CjExPaL98u_5serde2de11Deserialize11deserializeNtB3_14___FieldVisitorNtB1w_7Visitor11visit_bytespEBe_
FN:38,_RINvXs1_NvXs0_NvXNvNtNtCs7ttpGOJz6iy_13shade_oracles10interfaces4bands8_1__NtBh_8QueryMsgNtNtCs6CjExPaL98u_5serde2de11Deserialize11deserializeNtBc_9___VisitorNtB1r_7Visitor10visit_enumNtB6_s_14___FieldVisitorB2w_9visit_u64pEBl_
FN:33,_RINvXs_NvXNvNtNtCs7ttpGOJz6iy_13shade_oracles10interfaces4bands5_1__NtBa_12HandleAnswerNtNtCs6CjExPaL98u_5serde2de11Deserialize11deserializeNtB5_7___FieldB1n_11deserializepEBe_
FN:70,_RINvXs0_NvXNvNtNtCs7ttpGOJz6iy_13shade_oracles10interfaces4bandse_1__NtBb_16BtrReferenceDataNtNtCs6CjExPaL98u_5serde2de11Deserialize11deserializeNtB6_9___VisitorNtB1u_7Visitor9visit_mappEBf_
FN:19,_RINvXNvXNvNtNtCs7ttpGOJz6iy_13shade_oracles10interfaces4bands2_1__NtB8_10ExecuteMsgNtNtCs6CjExPaL98u_5serde2de11Deserialize11deserializeNtB3_14___FieldVisitorNtB1l_7Visitor9visit_u64pEBc_
FN:38,_RINvXs0_NvXs0_NvXNvNtNtCs7ttpGOJz6iy_13shade_oracles10interfaces4bands8_1__NtBh_8QueryMsgNtNtCs6CjExPaL98u_5serde2de11Deserialize11deserializeNtBc_9___VisitorNtB1r_7Visitor10visit_enumNtB6_9___VisitorB2w_9visit_mappEBl_
FN:119,_RNvXs3_NtNtNtCs7ttpGOJz6iy_13shade_oracles10interfaces4band5proxyNtB5_14InstantiateMsgNtNtCs59N989QkIgV_4core3cmp9PartialEq2neBb_
FN:132,_RINvXNvNtNtNtCs7ttpGOJz6iy_13shade_oracles10interfaces4band5proxys4_1__NtB5_11QuoteSymbolNtNtCs6CjExPaL98u_5serde3ser9Serialize9serializepEBb_
FN:12,_RNvXs2_NtNtCs7ttpGOJz6iy_13shade_oracles10interfaces4bandNtB5_14InstantiateMsgNtNtCs59N989QkIgV_4core5clone5Clone5cloneB9_
FN:126,_RINvXNvXNvNtNtNtCs7ttpGOJz6iy_13shade_oracles10interfaces4band5proxys2_1__NtB8_14ConfigResponseNtNtCs6CjExPaL98u_5serde2de11Deserialize11deserializeNtB3_14___FieldVisitorNtB1x_7Visitor9visit_strpEBe_
FN:119,_RINvXs0_NvXNvNtNtNtCs7ttpGOJz6iy_13shade_oracles10interfaces4band5proxys_1__NtBb_14InstantiateMsgNtNtCs6CjExPaL98u_5serde2de11Deserialize11deserializeNtB6_9___VisitorNtB1z_7Visitor9visit_seqpEBh_
FN:38,_RINvXs_NvXNvNtNtCs7ttpGOJz6iy_13shade_oracles10interfaces4bands8_1__NtBa_8QueryMsgNtNtCs6CjExPaL98u_5serde2de11Deserialize11deserializeNtB5_7___FieldB1i_11deserializepEBe_
FN:38,_RINvXs_NvXs0_NvXNvNtNtCs7ttpGOJz6iy_13shade_oracles10interfaces4bands8_1__NtBg_8QueryMsgNtNtCs6CjExPaL98u_5serde2de11Deserialize11deserializeNtBb_9___VisitorNtB1q_7Visitor10visit_enumNtB5_7___FieldB1o_11deserializepEBk_
FN:19,_RINvXs0_NvXNvNtNtCs7ttpGOJz6iy_13shade_oracles10interfaces4bands2_1__NtBb_10ExecuteMsgNtNtCs6CjExPaL98u_5serde2de11Deserialize11deserializeNtB6_9___VisitorNtB1o_7Visitor10visit_enumpEBf_
FN:38,_RINvXs3_NvXs0_NvXNvNtNtCs7ttpGOJz6iy_13shade_oracles10interfaces4bands8_1__NtBh_8QueryMsgNtNtCs6CjExPaL98u_5serde2de11Deserialize11deserializeNtBc_9___VisitorNtB1r_7Visitor10visit_enumNtB6_s_9___VisitorB2w_9visit_mappEBl_
FN:70,_RINvXNvXNvNtNtCs7ttpGOJz6iy_13shade_oracles10interfaces4bandse_1__NtB8_16BtrReferenceDataNtNtCs6CjExPaL98u_5serde2de11Deserialize11deserializeNtB3_14___FieldVisitorNtB1r_7Visitor11visit_bytespEBc_
FN:19,_RNvXs9_NtNtCs7ttpGOJz6iy_13shade_oracles10interfaces4bandNtB5_10ExecuteMsgNtNtCs59N989QkIgV_4core3cmp9PartialEq2neB9_
FN:38,_RINvXNvXNvNtNtCs7ttpGOJz6iy_13shade_oracles10interfaces4bands8_1__NtB8_8QueryMsgNtNtCs6CjExPaL98u_5serde2de11Deserialize11deserializeNtB3_14___FieldVisitorNtB1i_7Visitor9visit_u64pEBc_
FN:53,_RINvXNvXNvNtNtCs7ttpGOJz6iy_13shade_oracles10interfaces4bandsb_1__NtB8_13ReferenceDataNtNtCs6CjExPaL98u_5serde2de11Deserialize11deserializeNtB3_14___FieldVisitorNtB1o_7Visitor9visit_u64pEBc_
FN:38,_RNvXsh_NtNtCs7ttpGOJz6iy_13shade_oracles10interfaces4bandNtB5_8QueryMsgNtNtCs59N989QkIgV_4core3cmp9PartialEq2neB9_
FN:70,_RNvXsq_NtNtCs7ttpGOJz6iy_13shade_oracles10interfaces4bandNtB5_16BtrReferenceDataNtNtCs59N989QkIgV_4core3cmp9PartialEq2neB9_
FN:12,_RINvXs0_NvXNvNtNtCs7ttpGOJz6iy_13shade_oracles10interfaces4bands_1__NtBb_14InstantiateMsgNtNtCs6CjExPaL98u_5serde2de11Deserialize11deserializeNtB6_9___VisitorNtB1r_7Visitor9visit_mappEBf_
FN:70,_RINvXs0_NvXNvNtNtCs7ttpGOJz6iy_13shade_oracles10interfaces4bandse_1__NtBb_16BtrReferenceDataNtNtCs6CjExPaL98u_5serde2de11Deserialize11deserializeNtB6_9___VisitorNtB1u_7Visitor9visit_seqpEBf_
FN:132,_RNvXsb_NtNtNtCs7ttpGOJz6iy_13shade_oracles10interfaces4band5proxyNtB5_11QuoteSymbolNtNtCs59N989QkIgV_4core3cmp9PartialEq2neBb_
FN:126,_RINvXNvXNvNtNtNtCs7ttpGOJz6iy_13shade_oracles10interfaces4band5proxys2_1__NtB8_14ConfigResponseNtNtCs6CjExPaL98u_5serde2de11Deserialize11deserializeNtB3_14___FieldVisitorNtB1x_7Visitor9visit_u64pEBe_
FN:119,_RINvXNvNtNtNtCs7ttpGOJz6iy_13shade_oracles10interfaces4band5proxy1__NtB5_14InstantiateMsgNtNtCs6CjExPaL98u_5serde3ser9Serialize9serializepEBb_
FN:19,_RINvXs_NvXNvNtNtCs7ttpGOJz6iy_13shade_oracles10interfaces4bands2_1__NtBa_10ExecuteMsgNtNtCs6CjExPaL98u_5serde2de11Deserialize11deserializeNtB5_7___FieldB1l_11deserializepEBe_
FN:77,_RINvXNvXNvNtNtCs7ttpGOJz6iy_13shade_oracles10interfaces4bandsg_1__NtB8_17ReferenceDataBulkNtNtCs6CjExPaL98u_5serde2de11Deserialize11deserializeNtB3_14___FieldVisitorNtB1s_7Visitor9visit_u64pEBc_
FN:12,_RINvXNvXNvNtNtCs7ttpGOJz6iy_13shade_oracles10interfaces4bands_1__NtB8_14InstantiateMsgNtNtCs6CjExPaL98u_5serde2de11Deserialize11deserializeNtB3_14___FieldVisitorNtB1o_7Visitor11visit_bytespEBc_
FN:33,_RNvXsd_NtNtCs7ttpGOJz6iy_13shade_oracles10interfaces4bandNtB5_12HandleAnswerNtNtCs59N989QkIgV_4core3cmp9PartialEq2eqB9_
FN:19,_RINvXs_NvXs0_NvXNvNtNtCs7ttpGOJz6iy_13shade_oracles10interfaces4bands2_1__NtBg_10ExecuteMsgNtNtCs6CjExPaL98u_5serde2de11Deserialize11deserializeNtBb_9___VisitorNtB1t_7Visitor10visit_enumNtB5_7___FieldB1r_11deserializepEBk_
FN:132,_RNvXs8_NtNtNtCs7ttpGOJz6iy_13shade_oracles10interfaces4band5proxyNtB5_11QuoteSymbolNtNtCs59N989QkIgV_4core5clone5Clone5cloneBb_
FN:132,_RINvXNvXNvNtNtNtCs7ttpGOJz6iy_13shade_oracles10interfaces4band5proxys5_1__NtB8_11QuoteSymbolNtNtCs6CjExPaL98u_5serde2de11Deserialize11deserializeNtB3_9___VisitorNtB1u_7Visitor9visit_seqpEBe_
FN:19,_RNvXs9_NtNtCs7ttpGOJz6iy_13shade_oracles10interfaces4bandNtB5_10ExecuteMsgNtNtCs59N989QkIgV_4core3cmp9PartialEq2eqB9_
FN:33,_RNvXsa_NtNtCs7ttpGOJz6iy_13shade_oracles10interfaces4bandNtB5_12HandleAnswerNtNtCs59N989QkIgV_4core5clone5Clone5cloneB9_
FN:38,_RINvXNvXs0_NvXNvNtNtCs7ttpGOJz6iy_13shade_oracles10interfaces4bands8_1__NtBe_8QueryMsgNtNtCs6CjExPaL98u_5serde2de11Deserialize11deserializeNtB9_9___VisitorNtB1o_7Visitor10visit_enumNtB3_14___FieldVisitorB2t_11visit_bytespEBi_
FN:70,_RINvXNvNtNtCs7ttpGOJz6iy_13shade_oracles10interfaces4bandse_1__NtB5_16BtrReferenceDataNtNtCs6CjExPaL98u_5serde2de11Deserialize11deserializepEB9_
FN:53,_RNvXsm_NtNtCs7ttpGOJz6iy_13shade_oracles10interfaces4bandNtB5_13ReferenceDataNtNtCs59N989QkIgV_4core3cmp9PartialEq2neB9_
FN:53,_RNvXsm_NtNtCs7ttpGOJz6iy_13shade_oracles10interfaces4bandNtB5_13ReferenceDataNtNtCs59N989QkIgV_4core3cmp9PartialEq2eqB9_
FN:126,_RNvXs7_NtNtNtCs7ttpGOJz6iy_13shade_oracles10interfaces4band5proxyNtB5_14ConfigResponseNtNtCs59N989QkIgV_4core3cmp9PartialEq2eqBb_
FN:126,_RINvXs0_NvXNvNtNtNtCs7ttpGOJz6iy_13shade_oracles10interfaces4band5proxys2_1__NtBb_14ConfigResponseNtNtCs6CjExPaL98u_5serde2de11Deserialize11deserializeNtB6_9___VisitorNtB1A_7Visitor9visit_mappEBh_
FN:126,_RINvXNvXNvNtNtNtCs7ttpGOJz6iy_13shade_oracles10interfaces4band5proxys2_1__NtB8_14ConfigResponseNtNtCs6CjExPaL98u_5serde2de11Deserialize11deserializeNtB3_14___FieldVisitorNtB1x_7Visitor11visit_bytespEBe_
FN:38,_RINvXNvNtNtCs7ttpGOJz6iy_13shade_oracles10interfaces4bands8_1__NtB5_8QueryMsgNtNtCs6CjExPaL98u_5serde2de11Deserialize11deserializepEB9_
FN:86,_RNvNtNtCs7ttpGOJz6iy_13shade_oracles10interfaces4band14reference_data
FN:38,_RNvXNvXNvNtNtCs7ttpGOJz6iy_13shade_oracles10interfaces4bands8_1__NtB7_8QueryMsgNtNtCs6CjExPaL98u_5serde2de11Deserialize11deserializeNtB2_14___FieldVisitorNtB1h_7Visitor9expecting
FN:53,_RINvXNvNtNtCs7ttpGOJz6iy_13shade_oracles10interfaces4bandsb_1__NtB5_13ReferenceDataNtNtCs6CjExPaL98u_5serde2de11Deserialize11deserializeQNtNtCs3JYPxoBuEj2_15serde_json_wasm2de12DeserializerEB9_
FN:38,_RNvXs3_NvXs0_NvXNvNtNtCs7ttpGOJz6iy_13shade_oracles10interfaces4bands8_1__NtBg_8QueryMsgNtNtCs6CjExPaL98u_5serde2de11Deserialize11deserializeNtBb_9___VisitorNtB1q_7Visitor10visit_enumNtB5_s_9___VisitorB2v_9expecting
FN:12,_RNvXNvNtNtCs7ttpGOJz6iy_13shade_oracles10interfaces4bands0_1__NtB4_14InstantiateMsgNtCs8g2TqZEio7D_8schemars10JsonSchema11schema_name
FN:19,_RNvXNvXs0_NvXNvNtNtCs7ttpGOJz6iy_13shade_oracles10interfaces4bands2_1__NtBd_10ExecuteMsgNtNtCs6CjExPaL98u_5serde2de11Deserialize11deserializeNtB8_9___VisitorNtB1q_7Visitor10visit_enumNtB2_14___FieldVisitorB2v_9expecting
FN:38,_RINvXNvNtNtCs7ttpGOJz6iy_13shade_oracles10interfaces4bands7_1__NtB5_8QueryMsgNtNtCs6CjExPaL98u_5serde3ser9Serialize9serializeQNtNtCs3JYPxoBuEj2_15serde_json_wasm3ser10SerializerEB9_
FN:38,_RNvXs0_NvXNvNtNtCs7ttpGOJz6iy_13shade_oracles10interfaces4bands8_1__NtBa_8QueryMsgNtNtCs6CjExPaL98u_5serde2de11Deserialize11deserializeNtB5_9___VisitorNtB1k_7Visitor9expecting
FN:38,_RNvXNvNtNtCs7ttpGOJz6iy_13shade_oracles10interfaces4bands9_1__NtB4_8QueryMsgNtCs8g2TqZEio7D_8schemars10JsonSchema11schema_name
FN:77,_RNvXNvNtNtCs7ttpGOJz6iy_13shade_oracles10interfaces4bandsh_1__NtB4_17ReferenceDataBulkNtCs8g2TqZEio7D_8schemars10JsonSchema11schema_name
FN:39,_RNvXsi_NtNtCs7ttpGOJz6iy_13shade_oracles10interfaces4bandNtB5_8QueryMsgNtNtCs6wB797emF0g_15cosmwasm_schema14query_response14QueryResponses21response_schemas_impl
FN:70,_RNvXs0_NvXNvNtNtCs7ttpGOJz6iy_13shade_oracles10interfaces4bandse_1__NtBa_16BtrReferenceDataNtNtCs6CjExPaL98u_5serde2de11Deserialize11deserializeNtB5_9___VisitorNtB1t_7Visitor9expecting
FN:19,_RNvXs0_NvXs0_NvXNvNtNtCs7ttpGOJz6iy_13shade_oracles10interfaces4bands2_1__NtBg_10ExecuteMsgNtNtCs6CjExPaL98u_5serde2de11Deserialize11deserializeNtBb_9___VisitorNtB1t_7Visitor10visit_enumNtB5_9___VisitorB2y_9expecting
FN:38,_RNvXNvXs0_NvXNvNtNtCs7ttpGOJz6iy_13shade_oracles10interfaces4bands8_1__NtBd_8QueryMsgNtNtCs6CjExPaL98u_5serde2de11Deserialize11deserializeNtB8_9___VisitorNtB1n_7Visitor10visit_enumNtB2_14___FieldVisitorB2s_9expecting
FN:12,_RNvXNvXNvNtNtCs7ttpGOJz6iy_13shade_oracles10interfaces4bands_1__NtB7_14InstantiateMsgNtNtCs6CjExPaL98u_5serde2de11Deserialize11deserializeNtB2_14___FieldVisitorNtB1n_7Visitor9expecting
FN:38,_RNvXs0_NvXs0_NvXNvNtNtCs7ttpGOJz6iy_13shade_oracles10interfaces4bands8_1__NtBg_8QueryMsgNtNtCs6CjExPaL98u_5serde2de11Deserialize11deserializeNtBb_9___VisitorNtB1q_7Visitor10visit_enumNtB5_9___VisitorB2v_9expecting
FN:53,_RINvXNvNtNtCs7ttpGOJz6iy_13shade_oracles10interfaces4bandsb_1__NtB5_13ReferenceDataNtNtCs6CjExPaL98u_5serde2de11Deserialize11deserializeINtNvNtNtB1n_9___private2de13missing_field24MissingFieldDeserializerNtNtNtCs3JYPxoBuEj2_15serde_json_wasm2de6errors5ErrorEEB9_
FN:53,_RINvXs_NvXNvNtNtCs7ttpGOJz6iy_13shade_oracles10interfaces4bandsb_1__NtBa_13ReferenceDataNtNtCs6CjExPaL98u_5serde2de11Deserialize11deserializeNtB5_7___FieldB1o_11deserializeNtNtNtCs3JYPxoBuEj2_15serde_json_wasm2de3map6MapKeyEBe_
FN:12,_RNvXs3_NtNtCs7ttpGOJz6iy_13shade_oracles10interfaces4bandNtB5_14InstantiateMsgNtNtCs59N989QkIgV_4core3fmt5Debug3fmt
FN:33,_RNvXNvNtNtCs7ttpGOJz6iy_13shade_oracles10interfaces4bands6_1__NtB4_12HandleAnswerNtCs8g2TqZEio7D_8schemars10JsonSchema11json_schema
FN:33,_RNvXNvXNvNtNtCs7ttpGOJz6iy_13shade_oracles10interfaces4bands5_1__NtB7_12HandleAnswerNtNtCs6CjExPaL98u_5serde2de11Deserialize11deserializeNtB2_14___FieldVisitorNtB1m_7Visitor9expecting
FN:53,_RNvXNvNtNtCs7ttpGOJz6iy_13shade_oracles10interfaces4bandsc_1__NtB4_13ReferenceDataNtCs8g2TqZEio7D_8schemars10JsonSchema11json_schema
FN:33,_RNvXs0_NvXNvNtNtCs7ttpGOJz6iy_13shade_oracles10interfaces4bands5_1__NtBa_12HandleAnswerNtNtCs6CjExPaL98u_5serde2de11Deserialize11deserializeNtB5_9___VisitorNtB1p_7Visitor9expecting
FN:33,_RNvXsb_NtNtCs7ttpGOJz6iy_13shade_oracles10interfaces4bandNtB5_12HandleAnswerNtNtCs59N989QkIgV_4core3fmt5Debug3fmt
FN:19,_RNvXNvXNvNtNtCs7ttpGOJz6iy_13shade_oracles10interfaces4bands2_1__NtB7_10ExecuteMsgNtNtCs6CjExPaL98u_5serde2de11Deserialize11deserializeNtB2_14___FieldVisitorNtB1k_7Visitor9expecting
FN:53,_RINvXs0_NvXNvNtNtCs7ttpGOJz6iy_13shade_oracles10interfaces4bandsb_1__NtBb_13ReferenceDataNtNtCs6CjExPaL98u_5serde2de11Deserialize11deserializeNtB6_9___VisitorNtB1r_7Visitor9visit_mapNtNtNtCs3JYPxoBuEj2_15serde_json_wasm2de3map9MapAccessEBf_
FN:19,_RNvXNvNtNtCs7ttpGOJz6iy_13shade_oracles10interfaces4bands3_1__NtB4_10ExecuteMsgNtCs8g2TqZEio7D_8schemars10JsonSchema11json_schema
FN:33,_RNvXNvXs0_NvXNvNtNtCs7ttpGOJz6iy_13shade_oracles10interfaces4bands5_1__NtBd_12HandleAnswerNtNtCs6CjExPaL98u_5serde2de11Deserialize11deserializeNtB8_9___VisitorNtB1s_7Visitor10visit_enumNtB2_14___FieldVisitorB2x_9expecting
FN:33,_RNvXNvNtNtCs7ttpGOJz6iy_13shade_oracles10interfaces4bands6_1__NtB4_12HandleAnswerNtCs8g2TqZEio7D_8schemars10JsonSchema11schema_name
FN:19,_RNvXs7_NtNtCs7ttpGOJz6iy_13shade_oracles10interfaces4bandNtB5_10ExecuteMsgNtNtCs59N989QkIgV_4core3fmt5Debug3fmt
FN:53,_RNvXsk_NtNtCs7ttpGOJz6iy_13shade_oracles10interfaces4bandNtB5_13ReferenceDataNtNtCs59N989QkIgV_4core3fmt5Debug3fmt
FN:77,_RNvXNvXNvNtNtCs7ttpGOJz6iy_13shade_oracles10interfaces4bandsg_1__NtB7_17ReferenceDataBulkNtNtCs6CjExPaL98u_5serde2de11Deserialize11deserializeNtB2_14___FieldVisitorNtB1r_7Visitor9expecting
FN:33,_RNvXs0_NvXs0_NvXNvNtNtCs7ttpGOJz6iy_13shade_oracles10interfaces4bands5_1__NtBg_12HandleAnswerNtNtCs6CjExPaL98u_5serde2de11Deserialize11deserializeNtBb_9___VisitorNtB1v_7Visitor10visit_enumNtB5_9___VisitorB2A_9expecting
FN:61,_RNvXs0_NtNtCs7ttpGOJz6iy_13shade_oracles10interfaces4bandNtB5_16BtrReferenceDataINtNtCs59N989QkIgV_4core7convert4FromNtB5_13ReferenceDataE4from
FN:38,_RNvXsf_NtNtCs7ttpGOJz6iy_13shade_oracles10interfaces4bandNtB5_8QueryMsgNtNtCs59N989QkIgV_4core3fmt5Debug3fmt
FN:77,_RNvXss_NtNtCs7ttpGOJz6iy_13shade_oracles10interfaces4bandNtB5_17ReferenceDataBulkNtNtCs59N989QkIgV_4core3fmt5Debug3fmt
FN:19,_RNvXNvNtNtCs7ttpGOJz6iy_13shade_oracles10interfaces4bands3_1__NtB4_10ExecuteMsgNtCs8g2TqZEio7D_8schemars10JsonSchema11schema_name
FN:53,_RNvXNvNtNtCs7ttpGOJz6iy_13shade_oracles10interfaces4bandsc_1__NtB4_13ReferenceDataNtCs8g2TqZEio7D_8schemars10JsonSchema11schema_name
FN:38,_RNvXs1_NvXs0_NvXNvNtNtCs7ttpGOJz6iy_13shade_oracles10interfaces4bands8_1__NtBg_8QueryMsgNtNtCs6CjExPaL98u_5serde2de11Deserialize11deserializeNtBb_9___VisitorNtB1q_7Visitor10visit_enumNtB5_s_14___FieldVisitorB2v_9expecting
FN:70,_RNvXNvXNvNtNtCs7ttpGOJz6iy_13shade_oracles10interfaces4bandse_1__NtB7_16BtrReferenceDataNtNtCs6CjExPaL98u_5serde2de11Deserialize11deserializeNtB2_14___FieldVisitorNtB1q_7Visitor9expecting
FN:99,_RNvNtNtCs7ttpGOJz6iy_13shade_oracles10interfaces4band19reference_data_bulk
FN:77,_RNvXs0_NvXNvNtNtCs7ttpGOJz6iy_13shade_oracles10interfaces4bandsg_1__NtBa_17ReferenceDataBulkNtNtCs6CjExPaL98u_5serde2de11Deserialize11deserializeNtB5_9___VisitorNtB1u_7Visitor9expecting
FN:12,_RNvXs0_NvXNvNtNtCs7ttpGOJz6iy_13shade_oracles10interfaces4bands_1__NtBa_14InstantiateMsgNtNtCs6CjExPaL98u_5serde2de11Deserialize11deserializeNtB5_9___VisitorNtB1q_7Visitor9expecting
FN:12,_RNvXNvNtNtCs7ttpGOJz6iy_13shade_oracles10interfaces4bands0_1__NtB4_14InstantiateMsgNtCs8g2TqZEio7D_8schemars10JsonSchema11json_schema
FN:38,_RNvXNvNtNtCs7ttpGOJz6iy_13shade_oracles10interfaces4bands9_1__NtB4_8QueryMsgNtCs8g2TqZEio7D_8schemars10JsonSchema11json_schema
FN:77,_RNvXNvNtNtCs7ttpGOJz6iy_13shade_oracles10interfaces4bandsh_1__NtB4_17ReferenceDataBulkNtCs8g2TqZEio7D_8schemars10JsonSchema11json_schema
FN:19,_RNvXs0_NvXNvNtNtCs7ttpGOJz6iy_13shade_oracles10interfaces4bands2_1__NtBa_10ExecuteMsgNtNtCs6CjExPaL98u_5serde2de11Deserialize11deserializeNtB5_9___VisitorNtB1n_7Visitor9expecting
FN:70,_RNvXso_NtNtCs7ttpGOJz6iy_13shade_oracles10interfaces4bandNtB5_16BtrReferenceDataNtNtCs59N989QkIgV_4core3fmt5Debug3fmt
FN:53,_RNvXs0_NvXNvNtNtCs7ttpGOJz6iy_13shade_oracles10interfaces4bandsb_1__NtBa_13ReferenceDataNtNtCs6CjExPaL98u_5serde2de11Deserialize11deserializeNtB5_9___VisitorNtB1q_7Visitor9expecting
FN:53,_RNvXsj_NtNtCs7ttpGOJz6iy_13shade_oracles10interfaces4bandNtB5_13ReferenceDataNtNtCs59N989QkIgV_4core5clone5Clone5cloneB9_
FN:53,_RNvXNvXNvNtNtCs7ttpGOJz6iy_13shade_oracles10interfaces4bandsb_1__NtB7_13ReferenceDataNtNtCs6CjExPaL98u_5serde2de11Deserialize11deserializeNtB2_14___FieldVisitorNtB1n_7Visitor9expecting
FN:53,_RINvXNvXNvNtNtCs7ttpGOJz6iy_13shade_oracles10interfaces4bandsb_1__NtB8_13ReferenceDataNtNtCs6CjExPaL98u_5serde2de11Deserialize11deserializeNtB3_14___FieldVisitorNtB1o_7Visitor9visit_strNtNtNtCs3JYPxoBuEj2_15serde_json_wasm2de6errors5ErrorEBc_
FN:119,_RNvXs1_NtNtNtCs7ttpGOJz6iy_13shade_oracles10interfaces4band5proxyNtB5_14InstantiateMsgNtNtCs59N989QkIgV_4core3fmt5Debug3fmt
FN:119,_RNvXNvNtNtNtCs7ttpGOJz6iy_13shade_oracles10interfaces4band5proxys0_1__NtB4_14InstantiateMsgNtCs8g2TqZEio7D_8schemars10JsonSchema11schema_name
FN:126,_RNvXs5_NtNtNtCs7ttpGOJz6iy_13shade_oracles10interfaces4band5proxyNtB5_14ConfigResponseNtNtCs59N989QkIgV_4core3fmt5Debug3fmt
FN:119,_RNvXNvNtNtNtCs7ttpGOJz6iy_13shade_oracles10interfaces4band5proxys0_1__NtB4_14InstantiateMsgNtCs8g2TqZEio7D_8schemars10JsonSchema11json_schema
FN:126,_RNvXNvXNvNtNtNtCs7ttpGOJz6iy_13shade_oracles10interfaces4band5proxys2_1__NtB7_14ConfigResponseNtNtCs6CjExPaL98u_5serde2de11Deserialize11deserializeNtB2_14___FieldVisitorNtB1w_7Visitor9expecting
FN:126,_RNvXs0_NvXNvNtNtNtCs7ttpGOJz6iy_13shade_oracles10interfaces4band5proxys2_1__NtBa_14ConfigResponseNtNtCs6CjExPaL98u_5serde2de11Deserialize11deserializeNtB5_9___VisitorNtB1z_7Visitor9expecting
FN:126,_RNvXNvNtNtNtCs7ttpGOJz6iy_13shade_oracles10interfaces4band5proxys3_1__NtB4_14ConfigResponseNtCs8g2TqZEio7D_8schemars10JsonSchema11json_schema
FN:132,_RNvXs9_NtNtNtCs7ttpGOJz6iy_13shade_oracles10interfaces4band5proxyNtB5_11QuoteSymbolNtNtCs59N989QkIgV_4core3fmt5Debug3fmt
FN:132,_RNvXNvNtNtNtCs7ttpGOJz6iy_13shade_oracles10interfaces4band5proxys6_1__NtB4_11QuoteSymbolNtCs8g2TqZEio7D_8schemars10JsonSchema11json_schema
FN:126,_RNvXNvNtNtNtCs7ttpGOJz6iy_13shade_oracles10interfaces4band5proxys3_1__NtB4_14ConfigResponseNtCs8g2TqZEio7D_8schemars10JsonSchema11schema_name
FN:132,_RNvXNvNtNtNtCs7ttpGOJz6iy_13shade_oracles10interfaces4band5proxys6_1__NtB4_11QuoteSymbolNtCs8g2TqZEio7D_8schemars10JsonSchema11schema_name
FN:132,_RNvXNvXNvNtNtNtCs7ttpGOJz6iy_13shade_oracles10interfaces4band5proxys5_1__NtB7_11QuoteSymbolNtNtCs6CjExPaL98u_5serde2de11Deserialize11deserializeNtB2_9___VisitorNtB1t_7Visitor9expecting
FN:119,_RNvXNvXNvNtNtNtCs7ttpGOJz6iy_13shade_oracles10interfaces4band5proxys_1__NtB7_14InstantiateMsgNtNtCs6CjExPaL98u_5serde2de11Deserialize11deserializeNtB2_14___FieldVisitorNtB1v_7Visitor9expecting
FN:119,_RNvXs0_NvXNvNtNtNtCs7ttpGOJz6iy_13shade_oracles10interfaces4band5proxys_1__NtBa_14InstantiateMsgNtNtCs6CjExPaL98u_5serde2de11Deserialize11deserializeNtB5_9___VisitorNtB1y_7Visitor9expecting
FN:53,_RINvXNvNtNtCs7ttpGOJz6iy_13shade_oracles10interfaces4bandsa_1__NtB5_13ReferenceDataNtNtCs6CjExPaL98u_5serde3ser9Serialize9serializeQNtNtCs3JYPxoBuEj2_15serde_json_wasm3ser10SerializerECs19ElR1P30Zw_9mock_band
FN:33,_RINvXNvNtNtCs7ttpGOJz6iy_13shade_oracles10interfaces4bands4_1__NtB5_12HandleAnswerNtNtCs6CjExPaL98u_5serde3ser9Serialize9serializeQNtNtCs3JYPxoBuEj2_15serde_json_wasm3ser10SerializerECs19ElR1P30Zw_9mock_band
FN:126,_RNvXs7_NtNtNtCs5yQHJDQE64T_13shade_oracles10interfaces4band5proxyNtB5_14ConfigResponseNtNtCs59N989QkIgV_4core3cmp9PartialEq2eqBb_
FN:126,_RINvXs0_NvXNvNtNtNtCs5yQHJDQE64T_13shade_oracles10interfaces4band5proxys2_1__NtBb_14ConfigResponseNtNtCs6CjExPaL98u_5serde2de11Deserialize11deserializeNtB6_9___VisitorNtB1A_7Visitor9visit_mappEBh_
FN:38,_RNvXNvNtNtCs5yQHJDQE64T_13shade_oracles10interfaces4bands9_1__NtB4_8QueryMsgNtCs8g2TqZEio7D_8schemars10JsonSchema11schema_name
FN:119,_RNvXNvNtNtNtCs5yQHJDQE64T_13shade_oracles10interfaces4band5proxys0_1__NtB4_14InstantiateMsgNtCs8g2TqZEio7D_8schemars10JsonSchema11schema_name
FN:119,_RINvXNvNtNtNtCs5yQHJDQE64T_13shade_oracles10interfaces4band5proxys_1__NtB5_14InstantiateMsgNtNtCs6CjExPaL98u_5serde2de11Deserialize11deserializepEBb_
FN:70,_RINvXs_NvXNvNtNtCs5yQHJDQE64T_13shade_oracles10interfaces4bandse_1__NtBa_16BtrReferenceDataNtNtCs6CjExPaL98u_5serde2de11Deserialize11deserializeNtB5_7___FieldB1r_11deserializepEBe_
FN:38,_RNvXNvXNvNtNtCs5yQHJDQE64T_13shade_oracles10interfaces4bands8_1__NtB7_8QueryMsgNtNtCs6CjExPaL98u_5serde2de11Deserialize11deserializeNtB2_14___FieldVisitorNtB1h_7Visitor9expecting
FN:126,_RNvXs7_NtNtNtCs5yQHJDQE64T_13shade_oracles10interfaces4band5proxyNtB5_14ConfigResponseNtNtCs59N989QkIgV_4core3cmp9PartialEq2neBb_
FN:38,_RNvXNvXs0_NvXNvNtNtCs5yQHJDQE64T_13shade_oracles10interfaces4bands8_1__NtBd_8QueryMsgNtNtCs6CjExPaL98u_5serde2de11Deserialize11deserializeNtB8_9___VisitorNtB1n_7Visitor10visit_enumNtB2_14___FieldVisitorB2s_9expecting
FN:38,_RINvXs1_NvXs0_NvXNvNtNtCs5yQHJDQE64T_13shade_oracles10interfaces4bands8_1__NtBh_8QueryMsgNtNtCs6CjExPaL98u_5serde2de11Deserialize11deserializeNtBc_9___VisitorNtB1r_7Visitor10visit_enumNtB6_s_14___FieldVisitorB2w_9visit_strpEBl_
FN:53,_RNvXsj_NtNtCs5yQHJDQE64T_13shade_oracles10interfaces4bandNtB5_13ReferenceDataNtNtCs59N989QkIgV_4core5clone5Clone5cloneB9_
FN:70,_RNvXNvXNvNtNtCs5yQHJDQE64T_13shade_oracles10interfaces4bandse_1__NtB7_16BtrReferenceDataNtNtCs6CjExPaL98u_5serde2de11Deserialize11deserializeNtB2_14___FieldVisitorNtB1q_7Visitor9expecting
FN:19,_RINvXNvXs0_NvXNvNtNtCs5yQHJDQE64T_13shade_oracles10interfaces4bands2_1__NtBe_10ExecuteMsgNtNtCs6CjExPaL98u_5serde2de11Deserialize11deserializeNtB9_9___VisitorNtB1r_7Visitor10visit_enumNtB3_14___FieldVisitorB2w_11visit_bytespEBi_
FN:53,_RINvXNvXNvNtNtCs5yQHJDQE64T_13shade_oracles10interfaces4bandsb_1__NtB8_13ReferenceDataNtNtCs6CjExPaL98u_5serde2de11Deserialize11deserializeNtB3_14___FieldVisitorNtB1o_7Visitor9visit_u64pEBc_
FN:119,_RNvXNvXNvNtNtNtCs5yQHJDQE64T_13shade_oracles10interfaces4band5proxys_1__NtB7_14InstantiateMsgNtNtCs6CjExPaL98u_5serde2de11Deserialize11deserializeNtB2_14___FieldVisitorNtB1v_7Visitor9expecting
FN:38,_RINvXNvXNvNtNtCs5yQHJDQE64T_13shade_oracles10interfaces4bands8_1__NtB8_8QueryMsgNtNtCs6CjExPaL98u_5serde2de11Deserialize11deserializeNtB3_14___FieldVisitorNtB1i_7Visitor9visit_u64pEBc_
FN:33,_RNvXNvNtNtCs5yQHJDQE64T_13shade_oracles10interfaces4bands6_1__NtB4_12HandleAnswerNtCs8g2TqZEio7D_8schemars10JsonSchema11json_schema
FN:70,_RNvXs0_NvXNvNtNtCs5yQHJDQE64T_13shade_oracles10interfaces4bandse_1__NtBa_16BtrReferenceDataNtNtCs6CjExPaL98u_5serde2de11Deserialize11deserializeNtB5_9___VisitorNtB1t_7Visitor9expecting
FN:119,_RNvXs3_NtNtNtCs5yQHJDQE64T_13shade_oracles10interfaces4band5proxyNtB5_14InstantiateMsgNtNtCs59N989QkIgV_4core3cmp9PartialEq2eqBb_
FN:38,_RINvXNvXs0_NvXNvNtNtCs5yQHJDQE64T_13shade_oracles10interfaces4bands8_1__NtBe_8QueryMsgNtNtCs6CjExPaL98u_5serde2de11Deserialize11deserializeNtB9_9___VisitorNtB1o_7Visitor10visit_enumNtB3_14___FieldVisitorB2t_9visit_u64pEBi_
FN:38,_RINvXs1_NvXs0_NvXNvNtNtCs5yQHJDQE64T_13shade_oracles10interfaces4bands8_1__NtBh_8QueryMsgNtNtCs6CjExPaL98u_5serde2de11Deserialize11deserializeNtBc_9___VisitorNtB1r_7Visitor10visit_enumNtB6_s_14___FieldVisitorB2w_11visit_bytespEBl_
FN:38,_RINvXs_NvXNvNtNtCs5yQHJDQE64T_13shade_oracles10interfaces4bands8_1__NtBa_8QueryMsgNtNtCs6CjExPaL98u_5serde2de11Deserialize11deserializeNtB5_7___FieldB1i_11deserializepEBe_
FN:132,_RNvXsb_NtNtNtCs5yQHJDQE64T_13shade_oracles10interfaces4band5proxyNtB5_11QuoteSymbolNtNtCs59N989QkIgV_4core3cmp9PartialEq2eqBb_
FN:19,_RINvXs0_NvXs0_NvXNvNtNtCs5yQHJDQE64T_13shade_oracles10interfaces4bands2_1__NtBh_10ExecuteMsgNtNtCs6CjExPaL98u_5serde2de11Deserialize11deserializeNtBc_9___VisitorNtB1u_7Visitor10visit_enumNtB6_9___VisitorB2z_9visit_seqpEBl_
FN:126,_RINvXs0_NvXNvNtNtNtCs5yQHJDQE64T_13shade_oracles10interfaces4band5proxys2_1__NtBb_14ConfigResponseNtNtCs6CjExPaL98u_5serde2de11Deserialize11deserializeNtB6_9___VisitorNtB1A_7Visitor9visit_seqpEBh_
FN:77,_RNvXsu_NtNtCs5yQHJDQE64T_13shade_oracles10interfaces4bandNtB5_17ReferenceDataBulkNtNtCs59N989QkIgV_4core3cmp9PartialEq2neB9_
FN:19,_RINvXNvNtNtCs5yQHJDQE64T_13shade_oracles10interfaces4bands2_1__NtB5_10ExecuteMsgNtNtCs6CjExPaL98u_5serde2de11Deserialize11deserializepEB9_
FN:70,_RINvXNvXNvNtNtCs5yQHJDQE64T_13shade_oracles10interfaces4bandse_1__NtB8_16BtrReferenceDataNtNtCs6CjExPaL98u_5serde2de11Deserialize11deserializeNtB3_14___FieldVisitorNtB1r_7Visitor9visit_strpEBc_
FN:70,_RINvXNvXNvNtNtCs5yQHJDQE64T_13shade_oracles10interfaces4bandse_1__NtB8_16BtrReferenceDataNtNtCs6CjExPaL98u_5serde2de11Deserialize11deserializeNtB3_14___FieldVisitorNtB1r_7Visitor9visit_u64pEBc_
FN:19,_RINvXNvNtNtCs5yQHJDQE64T_13shade_oracles10interfaces4bands1_1__NtB5_10ExecuteMsgNtNtCs6CjExPaL98u_5serde3ser9Serialize9serializepEB9_
FN:77,_RINvXNvXNvNtNtCs5yQHJDQE64T_13shade_oracles10interfaces4bandsg_1__NtB8_17ReferenceDataBulkNtNtCs6CjExPaL98u_5serde2de11Deserialize11deserializeNtB3_14___FieldVisitorNtB1s_7Visitor11visit_bytespEBc_
FN:70,_RINvXNvNtNtCs5yQHJDQE64T_13shade_oracles10interfaces4bandsd_1__NtB5_16BtrReferenceDataNtNtCs6CjExPaL98u_5serde3ser9Serialize9serializepEB9_
FN:53,_RNvXNvNtNtCs5yQHJDQE64T_13shade_oracles10interfaces4bandsc_1__NtB4_13ReferenceDataNtCs8g2TqZEio7D_8schemars10JsonSchema11json_schema
FN:126,_RNvXNvNtNtNtCs5yQHJDQE64T_13shade_oracles10interfaces4band5proxys3_1__NtB4_14ConfigResponseNtCs8g2TqZEio7D_8schemars10JsonSchema11json_schema
FN:70,_RINvXNvNtNtCs5yQHJDQE64T_13shade_oracles10interfaces4bandse_1__NtB5_16BtrReferenceDataNtNtCs6CjExPaL98u_5serde2de11Deserialize11deserializepEB9_
FN:126,_RNvXNvNtNtNtCs5yQHJDQE64T_13shade_oracles10interfaces4band5proxys3_1__NtB4_14ConfigResponseNtCs8g2TqZEio7D_8schemars10JsonSchema11schema_name
FN:53,_RINvXNvXNvNtNtCs5yQHJDQE64T_13shade_oracles10interfaces4bandsb_1__NtB8_13ReferenceDataNtNtCs6CjExPaL98u_5serde2de11Deserialize11deserializeNtB3_14___FieldVisitorNtB1o_7Visitor11visit_bytespEBc_
FN:53,_RINvXs_NvXNvNtNtCs5yQHJDQE64T_13shade_oracles10interfaces4bandsb_1__NtBa_13ReferenceDataNtNtCs6CjExPaL98u_5serde2de11Deserialize11deserializeNtB5_7___FieldB1o_11deserializepEBe_
FN:19,_RNvXNvXNvNtNtCs5yQHJDQE64T_13shade_oracles10interfaces4bands2_1__NtB7_10ExecuteMsgNtNtCs6CjExPaL98u_5serde2de11Deserialize11deserializeNtB2_14___FieldVisitorNtB1k_7Visitor9expecting
FN:19,_RINvXNvXs0_NvXNvNtNtCs5yQHJDQE64T_13shade_oracles10interfaces4bands2_1__NtBe_10ExecuteMsgNtNtCs6CjExPaL98u_5serde2de11Deserialize11deserializeNtB9_9___VisitorNtB1r_7Visitor10visit_enumNtB3_14___FieldVisitorB2w_9visit_strpEBi_
FN:86,_RNvNtNtCs5yQHJDQE64T_13shade_oracles10interfaces4band14reference_data
FN:19,_RNvXs6_NtNtCs5yQHJDQE64T_13shade_oracles10interfaces4bandNtB5_10ExecuteMsgNtNtCs59N989QkIgV_4core5clone5Clone5cloneB9_
FN:12,_RINvXNvXNvNtNtCs5yQHJDQE64T_13shade_oracles10interfaces4bands_1__NtB8_14InstantiateMsgNtNtCs6CjExPaL98u_5serde2de11Deserialize11deserializeNtB3_14___FieldVisitorNtB1o_7Visitor11visit_bytespEBc_
FN:132,_RINvXNvXNvNtNtNtCs5yQHJDQE64T_13shade_oracles10interfaces4band5proxys5_1__NtB8_11QuoteSymbolNtNtCs6CjExPaL98u_5serde2de11Deserialize11deserializeNtB3_9___VisitorNtB1u_7Visitor9visit_seqpEBe_
FN:77,_RINvXNvNtNtCs5yQHJDQE64T_13shade_oracles10interfaces4bandsf_1__NtB5_17ReferenceDataBulkNtNtCs6CjExPaL98u_5serde3ser9Serialize9serializepEB9_
FN:12,_RNvXs3_NtNtCs5yQHJDQE64T_13shade_oracles10interfaces4bandNtB5_14InstantiateMsgNtNtCs59N989QkIgV_4core3fmt5Debug3fmt
FN:132,_RNvXs9_NtNtNtCs5yQHJDQE64T_13shade_oracles10interfaces4band5proxyNtB5_11QuoteSymbolNtNtCs59N989QkIgV_4core3fmt5Debug3fmt
FN:19,_RNvXNvNtNtCs5yQHJDQE64T_13shade_oracles10interfaces4bands3_1__NtB4_10ExecuteMsgNtCs8g2TqZEio7D_8schemars10JsonSchema11json_schema
FN:132,_RNvXNvNtNtNtCs5yQHJDQE64T_13shade_oracles10interfaces4band5proxys6_1__NtB4_11QuoteSymbolNtCs8g2TqZEio7D_8schemars10JsonSchema11schema_name
FN:126,_RINvXs_NvXNvNtNtNtCs5yQHJDQE64T_13shade_oracles10interfaces4band5proxys2_1__NtBa_14ConfigResponseNtNtCs6CjExPaL98u_5serde2de11Deserialize11deserializeNtB5_7___FieldB1x_11deserializepEBg_
FN:12,_RNvXs5_NtNtCs5yQHJDQE64T_13shade_oracles10interfaces4bandNtB5_14InstantiateMsgNtNtCs59N989QkIgV_4core3cmp9PartialEq2eqB9_
FN:33,_RINvXNvNtNtCs5yQHJDQE64T_13shade_oracles10interfaces4bands4_1__NtB5_12HandleAnswerNtNtCs6CjExPaL98u_5serde3ser9Serialize9serializepEB9_
FN:119,_RINvXNvXNvNtNtNtCs5yQHJDQE64T_13shade_oracles10interfaces4band5proxys_1__NtB8_14InstantiateMsgNtNtCs6CjExPaL98u_5serde2de11Deserialize11deserializeNtB3_14___FieldVisitorNtB1w_7Visitor11visit_bytespEBe_
FN:70,_RNvXso_NtNtCs5yQHJDQE64T_13shade_oracles10interfaces4bandNtB5_16BtrReferenceDataNtNtCs59N989QkIgV_4core3fmt5Debug3fmt
FN:33,_RINvXNvXNvNtNtCs5yQHJDQE64T_13shade_oracles10interfaces4bands5_1__NtB8_12HandleAnswerNtNtCs6CjExPaL98u_5serde2de11Deserialize11deserializeNtB3_14___FieldVisitorNtB1n_7Visitor11visit_bytespEBc_
FN:77,_RNvXsr_NtNtCs5yQHJDQE64T_13shade_oracles10interfaces4bandNtB5_17ReferenceDataBulkNtNtCs59N989QkIgV_4core5clone5Clone5cloneB9_
FN:38,_RINvXNvXs0_NvXNvNtNtCs5yQHJDQE64T_13shade_oracles10interfaces4bands8_1__NtBe_8QueryMsgNtNtCs6CjExPaL98u_5serde2de11Deserialize11deserializeNtB9_9___VisitorNtB1o_7Visitor10visit_enumNtB3_14___FieldVisitorB2t_9visit_strpEBi_
FN:38,_RNvXse_NtNtCs5yQHJDQE64T_13shade_oracles10interfaces4bandNtB5_8QueryMsgNtNtCs59N989QkIgV_4core5clone5Clone5cloneB9_
FN:53,_RINvXs0_NvXNvNtNtCs5yQHJDQE64T_13shade_oracles10interfaces4bandsb_1__NtBb_13ReferenceDataNtNtCs6CjExPaL98u_5serde2de11Deserialize11deserializeNtB6_9___VisitorNtB1r_7Visitor9visit_seqpEBf_
FN:12,_RNvXs0_NvXNvNtNtCs5yQHJDQE64T_13shade_oracles10interfaces4bands_1__NtBa_14InstantiateMsgNtNtCs6CjExPaL98u_5serde2de11Deserialize11deserializeNtB5_9___VisitorNtB1q_7Visitor9expecting
FN:132,_RNvXNvNtNtNtCs5yQHJDQE64T_13shade_oracles10interfaces4band5proxys6_1__NtB4_11QuoteSymbolNtCs8g2TqZEio7D_8schemars10JsonSchema11json_schema
FN:38,_RINvXs3_NvXs0_NvXNvNtNtCs5yQHJDQE64T_13shade_oracles10interfaces4bands8_1__NtBh_8QueryMsgNtNtCs6CjExPaL98u_5serde2de11Deserialize11deserializeNtBc_9___VisitorNtB1r_7Visitor10visit_enumNtB6_s_9___VisitorB2w_9visit_seqpEBl_
FN:119,_RNvXs0_NtNtNtCs5yQHJDQE64T_13shade_oracles10interfaces4band5proxyNtB5_14InstantiateMsgNtNtCs59N989QkIgV_4core5clone5Clone5cloneBb_
FN:38,_RINvXNvXs0_NvXNvNtNtCs5yQHJDQE64T_13shade_oracles10interfaces4bands8_1__NtBe_8QueryMsgNtNtCs6CjExPaL98u_5serde2de11Deserialize11deserializeNtB9_9___VisitorNtB1o_7Visitor10visit_enumNtB3_14___FieldVisitorB2t_11visit_bytespEBi_
FN:77,_RNvXNvXNvNtNtCs5yQHJDQE64T_13shade_oracles10interfaces4bandsg_1__NtB7_17ReferenceDataBulkNtNtCs6CjExPaL98u_5serde2de11Deserialize11deserializeNtB2_14___FieldVisitorNtB1r_7Visitor9expecting
FN:38,_RINvXs0_NvXs0_NvXNvNtNtCs5yQHJDQE64T_13shade_oracles10interfaces4bands8_1__NtBh_8QueryMsgNtNtCs6CjExPaL98u_5serde2de11Deserialize11deserializeNtBc_9___VisitorNtB1r_7Visitor10visit_enumNtB6_9___VisitorB2w_9visit_mappEBl_
FN:53,_RINvXs0_NvXNvNtNtCs5yQHJDQE64T_13shade_oracles10interfaces4bandsb_1__NtBb_13ReferenceDataNtNtCs6CjExPaL98u_5serde2de11Deserialize11deserializeNtB6_9___VisitorNtB1r_7Visitor9visit_mappEBf_
FN:77,_RINvXs_NvXNvNtNtCs5yQHJDQE64T_13shade_oracles10interfaces4bandsg_1__NtBa_17ReferenceDataBulkNtNtCs6CjExPaL98u_5serde2de11Deserialize11deserializeNtB5_7___FieldB1s_11deserializepEBe_
FN:119,_RINvXs0_NvXNvNtNtNtCs5yQHJDQE64T_13shade_oracles10interfaces4band5proxys_1__NtBb_14InstantiateMsgNtNtCs6CjExPaL98u_5serde2de11Deserialize11deserializeNtB6_9___VisitorNtB1z_7Visitor9visit_mappEBh_
FN:33,_RNvXsb_NtNtCs5yQHJDQE64T_13shade_oracles10interfaces4bandNtB5_12HandleAnswerNtNtCs59N989QkIgV_4core3fmt5Debug3fmt
FN:53,_RNvXsk_NtNtCs5yQHJDQE64T_13shade_oracles10interfaces4bandNtB5_13ReferenceDataNtNtCs59N989QkIgV_4core3fmt5Debug3fmt
FN:33,_RINvXNvXNvNtNtCs5yQHJDQE64T_13shade_oracles10interfaces4bands5_1__NtB8_12HandleAnswerNtNtCs6CjExPaL98u_5serde2de11Deserialize11deserializeNtB3_14___FieldVisitorNtB1n_7Visitor9visit_u64pEBc_
FN:12,_RNvXNvNtNtCs5yQHJDQE64T_13shade_oracles10interfaces4bands0_1__NtB4_14InstantiateMsgNtCs8g2TqZEio7D_8schemars10JsonSchema11json_schema
FN:38,_RINvXNvNtNtCs5yQHJDQE64T_13shade_oracles10interfaces4bands7_1__NtB5_8QueryMsgNtNtCs6CjExPaL98u_5serde3ser9Serialize9serializepEB9_
FN:33,_RINvXNvXs0_NvXNvNtNtCs5yQHJDQE64T_13shade_oracles10interfaces4bands5_1__NtBe_12HandleAnswerNtNtCs6CjExPaL98u_5serde2de11Deserialize11deserializeNtB9_9___VisitorNtB1t_7Visitor10visit_enumNtB3_14___FieldVisitorB2y_9visit_strpEBi_
FN:33,_RINvXs0_NvXs0_NvXNvNtNtCs5yQHJDQE64T_13shade_oracles10interfaces4bands5_1__NtBh_12HandleAnswerNtNtCs6CjExPaL98u_5serde2de11Deserialize11deserializeNtBc_9___VisitorNtB1w_7Visitor10visit_enumNtB6_9___VisitorB2B_9visit_mappEBl_
FN:70,_RNvXsq_NtNtCs5yQHJDQE64T_13shade_oracles10interfaces4bandNtB5_16BtrReferenceDataNtNtCs59N989QkIgV_4core3cmp9PartialEq2eqB9_
FN:132,_RNvXNvXNvNtNtNtCs5yQHJDQE64T_13shade_oracles10interfaces4band5proxys5_1__NtB7_11QuoteSymbolNtNtCs6CjExPaL98u_5serde2de11Deserialize11deserializeNtB2_9___VisitorNtB1t_7Visitor9expecting
FN:53,_RINvXNvNtNtCs5yQHJDQE64T_13shade_oracles10interfaces4bandsa_1__NtB5_13ReferenceDataNtNtCs6CjExPaL98u_5serde3ser9Serialize9serializepEB9_
FN:33,_RNvXNvXNvNtNtCs5yQHJDQE64T_13shade_oracles10interfaces4bands5_1__NtB7_12HandleAnswerNtNtCs6CjExPaL98u_5serde2de11Deserialize11deserializeNtB2_14___FieldVisitorNtB1m_7Visitor9expecting
FN:132,_RINvXNvNtNtNtCs5yQHJDQE64T_13shade_oracles10interfaces4band5proxys4_1__NtB5_11QuoteSymbolNtNtCs6CjExPaL98u_5serde3ser9Serialize9serializepEBb_
FN:33,_RINvXs_NvXNvNtNtCs5yQHJDQE64T_13shade_oracles10interfaces4bands5_1__NtBa_12HandleAnswerNtNtCs6CjExPaL98u_5serde2de11Deserialize11deserializeNtB5_7___FieldB1n_11deserializepEBe_
FN:61,_RNvXs0_NtNtCs5yQHJDQE64T_13shade_oracles10interfaces4bandNtB5_16BtrReferenceDataINtNtCs59N989QkIgV_4core7convert4FromNtB5_13ReferenceDataE4from
FN:77,_RINvXNvXNvNtNtCs5yQHJDQE64T_13shade_oracles10interfaces4bandsg_1__NtB8_17ReferenceDataBulkNtNtCs6CjExPaL98u_5serde2de11Deserialize11deserializeNtB3_14___FieldVisitorNtB1s_7Visitor9visit_strpEBc_
FN:77,_RNvXsu_NtNtCs5yQHJDQE64T_13shade_oracles10interfaces4bandNtB5_17ReferenceDataBulkNtNtCs59N989QkIgV_4core3cmp9PartialEq2eqB9_
FN:126,_RINvXNvNtNtNtCs5yQHJDQE64T_13shade_oracles10interfaces4band5proxys1_1__NtB5_14ConfigResponseNtNtCs6CjExPaL98u_5serde3ser9Serialize9serializepEBb_
FN:126,_RNvXs4_NtNtNtCs5yQHJDQE64T_13shade_oracles10interfaces4band5proxyNtB5_14ConfigResponseNtNtCs59N989QkIgV_4core5clone5Clone5cloneBb_
FN:12,_RNvXNvNtNtCs5yQHJDQE64T_13shade_oracles10interfaces4bands0_1__NtB4_14InstantiateMsgNtCs8g2TqZEio7D_8schemars10JsonSchema11schema_name
FN:19,_RNvXs0_NvXNvNtNtCs5yQHJDQE64T_13shade_oracles10interfaces4bands2_1__NtBa_10ExecuteMsgNtNtCs6CjExPaL98u_5serde2de11Deserialize11deserializeNtB5_9___VisitorNtB1n_7Visitor9expecting
FN:19,_RINvXNvXNvNtNtCs5yQHJDQE64T_13shade_oracles10interfaces4bands2_1__NtB8_10ExecuteMsgNtNtCs6CjExPaL98u_5serde2de11Deserialize11deserializeNtB3_14___FieldVisitorNtB1l_7Visitor11visit_bytespEBc_
FN:12,_RINvXs0_NvXNvNtNtCs5yQHJDQE64T_13shade_oracles10interfaces4bands_1__NtBb_14InstantiateMsgNtNtCs6CjExPaL98u_5serde2de11Deserialize11deserializeNtB6_9___VisitorNtB1r_7Visitor9visit_mappEBf_
FN:19,_RINvXs_NvXs0_NvXNvNtNtCs5yQHJDQE64T_13shade_oracles10interfaces4bands2_1__NtBg_10ExecuteMsgNtNtCs6CjExPaL98u_5serde2de11Deserialize11deserializeNtBb_9___VisitorNtB1t_7Visitor10visit_enumNtB5_7___FieldB1r_11deserializepEBk_
FN:77,_RINvXs0_NvXNvNtNtCs5yQHJDQE64T_13shade_oracles10interfaces4bandsg_1__NtBb_17ReferenceDataBulkNtNtCs6CjExPaL98u_5serde2de11Deserialize11deserializeNtB6_9___VisitorNtB1v_7Visitor9visit_mappEBf_
FN:33,_RNvXsd_NtNtCs5yQHJDQE64T_13shade_oracles10interfaces4bandNtB5_12HandleAnswerNtNtCs59N989QkIgV_4core3cmp9PartialEq2neB9_
FN:38,_RINvXs0_NvXNvNtNtCs5yQHJDQE64T_13shade_oracles10interfaces4bands8_1__NtBb_8QueryMsgNtNtCs6CjExPaL98u_5serde2de11Deserialize11deserializeNtB6_9___VisitorNtB1l_7Visitor10visit_enumpEBf_
FN:12,_RINvXNvXNvNtNtCs5yQHJDQE64T_13shade_oracles10interfaces4bands_1__NtB8_14InstantiateMsgNtNtCs6CjExPaL98u_5serde2de11Deserialize11deserializeNtB3_14___FieldVisitorNtB1o_7Visitor9visit_strpEBc_
FN:119,_RNvXs0_NvXNvNtNtNtCs5yQHJDQE64T_13shade_oracles10interfaces4band5proxys_1__NtBa_14InstantiateMsgNtNtCs6CjExPaL98u_5serde2de11Deserialize11deserializeNtB5_9___VisitorNtB1y_7Visitor9expecting
FN:33,_RNvXs0_NvXNvNtNtCs5yQHJDQE64T_13shade_oracles10interfaces4bands5_1__NtBa_12HandleAnswerNtNtCs6CjExPaL98u_5serde2de11Deserialize11deserializeNtB5_9___VisitorNtB1p_7Visitor9expecting
FN:12,_RINvXNvXNvNtNtCs5yQHJDQE64T_13shade_oracles10interfaces4bands_1__NtB8_14InstantiateMsgNtNtCs6CjExPaL98u_5serde2de11Deserialize11deserializeNtB3_14___FieldVisitorNtB1o_7Visitor9visit_u64pEBc_
FN:77,_RINvXs0_NvXNvNtNtCs5yQHJDQE64T_13shade_oracles10interfaces4bandsg_1__NtBb_17ReferenceDataBulkNtNtCs6CjExPaL98u_5serde2de11Deserialize11deserializeNtB6_9___VisitorNtB1v_7Visitor9visit_seqpEBf_
FN:126,_RINvXNvNtNtNtCs5yQHJDQE64T_13shade_oracles10interfaces4band5proxys2_1__NtB5_14ConfigResponseNtNtCs6CjExPaL98u_5serde2de11Deserialize11deserializepEBb_
FN:33,_RINvXNvXNvNtNtCs5yQHJDQE64T_13shade_oracles10interfaces4bands5_1__NtB8_12HandleAnswerNtNtCs6CjExPaL98u_5serde2de11Deserialize11deserializeNtB3_14___FieldVisitorNtB1n_7Visitor9visit_strpEBc_
FN:70,_RNvXsn_NtNtCs5yQHJDQE64T_13shade_oracles10interfaces4bandNtB5_16BtrReferenceDataNtNtCs59N989QkIgV_4core5clone5Clone5cloneB9_
FN:33,_RINvXNvXs0_NvXNvNtNtCs5yQHJDQE64T_13shade_oracles10interfaces4bands5_1__NtBe_12HandleAnswerNtNtCs6CjExPaL98u_5serde2de11Deserialize11deserializeNtB9_9___VisitorNtB1t_7Visitor10visit_enumNtB3_14___FieldVisitorB2y_11visit_bytespEBi_
FN:38,_RINvXNvNtNtCs5yQHJDQE64T_13shade_oracles10interfaces4bands8_1__NtB5_8QueryMsgNtNtCs6CjExPaL98u_5serde2de11Deserialize11deserializepEB9_
FN:77,_RNvXss_NtNtCs5yQHJDQE64T_13shade_oracles10interfaces4bandNtB5_17ReferenceDataBulkNtNtCs59N989QkIgV_4core3fmt5Debug3fmt
FN:19,_RNvXNvNtNtCs5yQHJDQE64T_13shade_oracles10interfaces4bands3_1__NtB4_10ExecuteMsgNtCs8g2TqZEio7D_8schemars10JsonSchema11schema_name
FN:19,_RNvXNvXs0_NvXNvNtNtCs5yQHJDQE64T_13shade_oracles10interfaces4bands2_1__NtBd_10ExecuteMsgNtNtCs6CjExPaL98u_5serde2de11Deserialize11deserializeNtB8_9___VisitorNtB1q_7Visitor10visit_enumNtB2_14___FieldVisitorB2v_9expecting
FN:38,_RNvXsh_NtNtCs5yQHJDQE64T_13shade_oracles10interfaces4bandNtB5_8QueryMsgNtNtCs59N989QkIgV_4core3cmp9PartialEq2eqB9_
FN:33,_RINvXNvNtNtCs5yQHJDQE64T_13shade_oracles10interfaces4bands5_1__NtB5_12HandleAnswerNtNtCs6CjExPaL98u_5serde2de11Deserialize11deserializepEB9_
FN:126,_RNvXs0_NvXNvNtNtNtCs5yQHJDQE64T_13shade_oracles10interfaces4band5proxys2_1__NtBa_14ConfigResponseNtNtCs6CjExPaL98u_5serde2de11Deserialize11deserializeNtB5_9___VisitorNtB1z_7Visitor9expecting
FN:126,_RNvXs5_NtNtNtCs5yQHJDQE64T_13shade_oracles10interfaces4band5proxyNtB5_14ConfigResponseNtNtCs59N989QkIgV_4core3fmt5Debug3fmt
FN:19,_RINvXs0_NvXs0_NvXNvNtNtCs5yQHJDQE64T_13shade_oracles10interfaces4bands2_1__NtBh_10ExecuteMsgNtNtCs6CjExPaL98u_5serde2de11Deserialize11deserializeNtBc_9___VisitorNtB1u_7Visitor10visit_enumNtB6_9___VisitorB2z_9visit_mappEBl_
FN:38,_RINvXs2_NvXs0_NvXNvNtNtCs5yQHJDQE64T_13shade_oracles10interfaces4bands8_1__NtBh_8QueryMsgNtNtCs6CjExPaL98u_5serde2de11Deserialize11deserializeNtBc_9___VisitorNtB1r_7Visitor10visit_enumNtB6_s_7___FieldB1p_11deserializepEBl_
FN:77,_RNvXNvNtNtCs5yQHJDQE64T_13shade_oracles10interfaces4bandsh_1__NtB4_17ReferenceDataBulkNtCs8g2TqZEio7D_8schemars10JsonSchema11json_schema
FN:119,_RNvXs3_NtNtNtCs5yQHJDQE64T_13shade_oracles10interfaces4band5proxyNtB5_14InstantiateMsgNtNtCs59N989QkIgV_4core3cmp9PartialEq2neBb_
FN:38,_RINvXNvXNvNtNtCs5yQHJDQE64T_13shade_oracles10interfaces4bands8_1__NtB8_8QueryMsgNtNtCs6CjExPaL98u_5serde2de11Deserialize11deserializeNtB3_14___FieldVisitorNtB1i_7Visitor11visit_bytespEBc_
FN:119,_RINvXNvNtNtNtCs5yQHJDQE64T_13shade_oracles10interfaces4band5proxy1__NtB5_14InstantiateMsgNtNtCs6CjExPaL98u_5serde3ser9Serialize9serializepEBb_
FN:12,_RNvXs2_NtNtCs5yQHJDQE64T_13shade_oracles10interfaces4bandNtB5_14InstantiateMsgNtNtCs59N989QkIgV_4core5clone5Clone5cloneB9_
FN:19,_RNvXs0_NvXs0_NvXNvNtNtCs5yQHJDQE64T_13shade_oracles10interfaces4bands2_1__NtBg_10ExecuteMsgNtNtCs6CjExPaL98u_5serde2de11Deserialize11deserializeNtBb_9___VisitorNtB1t_7Visitor10visit_enumNtB5_9___VisitorB2y_9expecting
FN:12,_RINvXNvNtNtCs5yQHJDQE64T_13shade_oracles10interfaces4bands_1__NtB5_14InstantiateMsgNtNtCs6CjExPaL98u_5serde2de11Deserialize11deserializepEB9_
FN:33,_RNvXNvNtNtCs5yQHJDQE64T_13shade_oracles10interfaces4bands6_1__NtB4_12HandleAnswerNtCs8g2TqZEio7D_8schemars10JsonSchema11schema_name
FN:38,_RNvXsf_NtNtCs5yQHJDQE64T_13shade_oracles10interfaces4bandNtB5_8QueryMsgNtNtCs59N989QkIgV_4core3fmt5Debug3fmt
FN:126,_RINvXNvXNvNtNtNtCs5yQHJDQE64T_13shade_oracles10interfaces4band5proxys2_1__NtB8_14ConfigResponseNtNtCs6CjExPaL98u_5serde2de11Deserialize11deserializeNtB3_14___FieldVisitorNtB1x_7Visitor11visit_bytespEBe_
FN:70,_RINvXs0_NvXNvNtNtCs5yQHJDQE64T_13shade_oracles10interfaces4bandse_1__NtBb_16BtrReferenceDataNtNtCs6CjExPaL98u_5serde2de11Deserialize11deserializeNtB6_9___VisitorNtB1u_7Visitor9visit_seqpEBf_
FN:38,_RNvXs3_NvXs0_NvXNvNtNtCs5yQHJDQE64T_13shade_oracles10interfaces4bands8_1__NtBg_8QueryMsgNtNtCs6CjExPaL98u_5serde2de11Deserialize11deserializeNtBb_9___VisitorNtB1q_7Visitor10visit_enumNtB5_s_9___VisitorB2v_9expecting
FN:19,_RINvXs_NvXNvNtNtCs5yQHJDQE64T_13shade_oracles10interfaces4bands2_1__NtBa_10ExecuteMsgNtNtCs6CjExPaL98u_5serde2de11Deserialize11deserializeNtB5_7___FieldB1l_11deserializepEBe_
FN:12,_RNvXNvXNvNtNtCs5yQHJDQE64T_13shade_oracles10interfaces4bands_1__NtB7_14InstantiateMsgNtNtCs6CjExPaL98u_5serde2de11Deserialize11deserializeNtB2_14___FieldVisitorNtB1n_7Visitor9expecting
FN:119,_RINvXNvXNvNtNtNtCs5yQHJDQE64T_13shade_oracles10interfaces4band5proxys_1__NtB8_14InstantiateMsgNtNtCs6CjExPaL98u_5serde2de11Deserialize11deserializeNtB3_14___FieldVisitorNtB1w_7Visitor9visit_u64pEBe_
FN:77,_RNvXs0_NvXNvNtNtCs5yQHJDQE64T_13shade_oracles10interfaces4bandsg_1__NtBa_17ReferenceDataBulkNtNtCs6CjExPaL98u_5serde2de11Deserialize11deserializeNtB5_9___VisitorNtB1u_7Visitor9expecting
FN:132,_RINvXNvNtNtNtCs5yQHJDQE64T_13shade_oracles10interfaces4band5proxys5_1__NtB5_11QuoteSymbolNtNtCs6CjExPaL98u_5serde2de11Deserialize11deserializepEBb_
FN:126,_RNvXNvXNvNtNtNtCs5yQHJDQE64T_13shade_oracles10interfaces4band5proxys2_1__NtB7_14ConfigResponseNtNtCs6CjExPaL98u_5serde2de11Deserialize11deserializeNtB2_14___FieldVisitorNtB1w_7Visitor9expecting
FN:119,_RINvXs_NvXNvNtNtNtCs5yQHJDQE64T_13shade_oracles10interfaces4band5proxys_1__NtBa_14InstantiateMsgNtNtCs6CjExPaL98u_5serde2de11Deserialize11deserializeNtB5_7___FieldB1w_11deserializepEBg_
FN:38,_RNvXNvNtNtCs5yQHJDQE64T_13shade_oracles10interfaces4bands9_1__NtB4_8QueryMsgNtCs8g2TqZEio7D_8schemars10JsonSchema11json_schema
FN:12,_RINvXs0_NvXNvNtNtCs5yQHJDQE64T_13shade_oracles10interfaces4bands_1__NtBb_14InstantiateMsgNtNtCs6CjExPaL98u_5serde2de11Deserialize11deserializeNtB6_9___VisitorNtB1r_7Visitor9visit_seqpEBf_
FN:119,_RNvXs1_NtNtNtCs5yQHJDQE64T_13shade_oracles10interfaces4band5proxyNtB5_14InstantiateMsgNtNtCs59N989QkIgV_4core3fmt5Debug3fmt
FN:53,_RNvXs0_NvXNvNtNtCs5yQHJDQE64T_13shade_oracles10interfaces4bandsb_1__NtBa_13ReferenceDataNtNtCs6CjExPaL98u_5serde2de11Deserialize11deserializeNtB5_9___VisitorNtB1q_7Visitor9expecting
FN:39,_RNvXsi_NtNtCs5yQHJDQE64T_13shade_oracles10interfaces4bandNtB5_8QueryMsgNtNtCs6wB797emF0g_15cosmwasm_schema14query_response14QueryResponses21response_schemas_impl
FN:12,_RINvXs_NvXNvNtNtCs5yQHJDQE64T_13shade_oracles10interfaces4bands_1__NtBa_14InstantiateMsgNtNtCs6CjExPaL98u_5serde2de11Deserialize11deserializeNtB5_7___FieldB1o_11deserializepEBe_
FN:33,_RINvXs_NvXs0_NvXNvNtNtCs5yQHJDQE64T_13shade_oracles10interfaces4bands5_1__NtBg_12HandleAnswerNtNtCs6CjExPaL98u_5serde2de11Deserialize11deserializeNtBb_9___VisitorNtB1v_7Visitor10visit_enumNtB5_7___FieldB1t_11deserializepEBk_
FN:33,_RNvXs0_NvXs0_NvXNvNtNtCs5yQHJDQE64T_13shade_oracles10interfaces4bands5_1__NtBg_12HandleAnswerNtNtCs6CjExPaL98u_5serde2de11Deserialize11deserializeNtBb_9___VisitorNtB1v_7Visitor10visit_enumNtB5_9___VisitorB2A_9expecting
FN:19,_RNvXs9_NtNtCs5yQHJDQE64T_13shade_oracles10interfaces4bandNtB5_10ExecuteMsgNtNtCs59N989QkIgV_4core3cmp9PartialEq2neB9_
FN:126,_RINvXNvXNvNtNtNtCs5yQHJDQE64T_13shade_oracles10interfaces4band5proxys2_1__NtB8_14ConfigResponseNtNtCs6CjExPaL98u_5serde2de11Deserialize11deserializeNtB3_14___FieldVisitorNtB1x_7Visitor9visit_u64pEBe_
FN:19,_RINvXNvXNvNtNtCs5yQHJDQE64T_13shade_oracles10interfaces4bands2_1__NtB8_10ExecuteMsgNtNtCs6CjExPaL98u_5serde2de11Deserialize11deserializeNtB3_14___FieldVisitorNtB1l_7Visitor9visit_strpEBc_
FN:53,_RINvXNvNtNtCs5yQHJDQE64T_13shade_oracles10interfaces4bandsb_1__NtB5_13ReferenceDataNtNtCs6CjExPaL98u_5serde2de11Deserialize11deserializepEB9_
FN:38,_RNvXsh_NtNtCs5yQHJDQE64T_13shade_oracles10interfaces4bandNtB5_8QueryMsgNtNtCs59N989QkIgV_4core3cmp9PartialEq2neB9_
FN:77,_RINvXNvNtNtCs5yQHJDQE64T_13shade_oracles10interfaces4bandsg_1__NtB5_17ReferenceDataBulkNtNtCs6CjExPaL98u_5serde2de11Deserialize11deserializepEB9_
FN:38,_RINvXNvXNvNtNtCs5yQHJDQE64T_13shade_oracles10interfaces4bands8_1__NtB8_8QueryMsgNtNtCs6CjExPaL98u_5serde2de11Deserialize11deserializeNtB3_14___FieldVisitorNtB1i_7Visitor9visit_strpEBc_
FN:70,_RNvXsq_NtNtCs5yQHJDQE64T_13shade_oracles10interfaces4bandNtB5_16BtrReferenceDataNtNtCs59N989QkIgV_4core3cmp9PartialEq2neB9_
FN:19,_RINvXs0_NvXNvNtNtCs5yQHJDQE64T_13shade_oracles10interfaces4bands2_1__NtBb_10ExecuteMsgNtNtCs6CjExPaL98u_5serde2de11Deserialize11deserializeNtB6_9___VisitorNtB1o_7Visitor10visit_enumpEBf_
FN:12,_RINvXNvNtNtCs5yQHJDQE64T_13shade_oracles10interfaces4band1__NtB5_14InstantiateMsgNtNtCs6CjExPaL98u_5serde3ser9Serialize9serializepEB9_
FN:70,_RINvXs0_NvXNvNtNtCs5yQHJDQE64T_13shade_oracles10interfaces4bandse_1__NtBb_16BtrReferenceDataNtNtCs6CjExPaL98u_5serde2de11Deserialize11deserializeNtB6_9___VisitorNtB1u_7Visitor9visit_mappEBf_
FN:132,_RNvXsb_NtNtNtCs5yQHJDQE64T_13shade_oracles10interfaces4band5proxyNtB5_11QuoteSymbolNtNtCs59N989QkIgV_4core3cmp9PartialEq2neBb_
FN:70,_RINvXNvXNvNtNtCs5yQHJDQE64T_13shade_oracles10interfaces4bandse_1__NtB8_16BtrReferenceDataNtNtCs6CjExPaL98u_5serde2de11Deserialize11deserializeNtB3_14___FieldVisitorNtB1r_7Visitor11visit_bytespEBc_
FN:119,_RINvXs0_NvXNvNtNtNtCs5yQHJDQE64T_13shade_oracles10interfaces4band5proxys_1__NtBb_14InstantiateMsgNtNtCs6CjExPaL98u_5serde2de11Deserialize11deserializeNtB6_9___VisitorNtB1z_7Visitor9visit_seqpEBh_
FN:132,_RINvXNvXNvNtNtNtCs5yQHJDQE64T_13shade_oracles10interfaces4band5proxys5_1__NtB8_11QuoteSymbolNtNtCs6CjExPaL98u_5serde2de11Deserialize11deserializeNtB3_9___VisitorNtB1u_7Visitor20visit_newtype_structpEBe_
FN:119,_RINvXNvXNvNtNtNtCs5yQHJDQE64T_13shade_oracles10interfaces4band5proxys_1__NtB8_14InstantiateMsgNtNtCs6CjExPaL98u_5serde2de11Deserialize11deserializeNtB3_14___FieldVisitorNtB1w_7Visitor9visit_strpEBe_
FN:38,_RINvXs_NvXs0_NvXNvNtNtCs5yQHJDQE64T_13shade_oracles10interfaces4bands8_1__NtBg_8QueryMsgNtNtCs6CjExPaL98u_5serde2de11Deserialize11deserializeNtBb_9___VisitorNtB1q_7Visitor10visit_enumNtB5_7___FieldB1o_11deserializepEBk_
FN:33,_RINvXs0_NvXNvNtNtCs5yQHJDQE64T_13shade_oracles10interfaces4bands5_1__NtBb_12HandleAnswerNtNtCs6CjExPaL98u_5serde2de11Deserialize11deserializeNtB6_9___VisitorNtB1q_7Visitor10visit_enumpEBf_
FN:38,_RINvXs3_NvXs0_NvXNvNtNtCs5yQHJDQE64T_13shade_oracles10interfaces4bands8_1__NtBh_8QueryMsgNtNtCs6CjExPaL98u_5serde2de11Deserialize11deserializeNtBc_9___VisitorNtB1r_7Visitor10visit_enumNtB6_s_9___VisitorB2w_9visit_mappEBl_
FN:38,_RNvXs0_NvXNvNtNtCs5yQHJDQE64T_13shade_oracles10interfaces4bands8_1__NtBa_8QueryMsgNtNtCs6CjExPaL98u_5serde2de11Deserialize11deserializeNtB5_9___VisitorNtB1k_7Visitor9expecting
FN:38,_RNvXs0_NvXs0_NvXNvNtNtCs5yQHJDQE64T_13shade_oracles10interfaces4bands8_1__NtBg_8QueryMsgNtNtCs6CjExPaL98u_5serde2de11Deserialize11deserializeNtBb_9___VisitorNtB1q_7Visitor10visit_enumNtB5_9___VisitorB2v_9expecting
FN:77,_RNvXNvNtNtCs5yQHJDQE64T_13shade_oracles10interfaces4bandsh_1__NtB4_17ReferenceDataBulkNtCs8g2TqZEio7D_8schemars10JsonSchema11schema_name
FN:38,_RINvXs1_NvXs0_NvXNvNtNtCs5yQHJDQE64T_13shade_oracles10interfaces4bands8_1__NtBh_8QueryMsgNtNtCs6CjExPaL98u_5serde2de11Deserialize11deserializeNtBc_9___VisitorNtB1r_7Visitor10visit_enumNtB6_s_14___FieldVisitorB2w_9visit_u64pEBl_
FN:33,_RNvXsd_NtNtCs5yQHJDQE64T_13shade_oracles10interfaces4bandNtB5_12HandleAnswerNtNtCs59N989QkIgV_4core3cmp9PartialEq2eqB9_
FN:38,_RINvXs0_NvXs0_NvXNvNtNtCs5yQHJDQE64T_13shade_oracles10interfaces4bands8_1__NtBh_8QueryMsgNtNtCs6CjExPaL98u_5serde2de11Deserialize11deserializeNtBc_9___VisitorNtB1r_7Visitor10visit_enumNtB6_9___VisitorB2w_9visit_seqpEBl_
FN:19,_RNvXs7_NtNtCs5yQHJDQE64T_13shade_oracles10interfaces4bandNtB5_10ExecuteMsgNtNtCs59N989QkIgV_4core3fmt5Debug3fmt
FN:19,_RINvXNvXNvNtNtCs5yQHJDQE64T_13shade_oracles10interfaces4bands2_1__NtB8_10ExecuteMsgNtNtCs6CjExPaL98u_5serde2de11Deserialize11deserializeNtB3_14___FieldVisitorNtB1l_7Visitor9visit_u64pEBc_
FN:99,_RNvNtNtCs5yQHJDQE64T_13shade_oracles10interfaces4band19reference_data_bulk
FN:33,_RNvXNvXs0_NvXNvNtNtCs5yQHJDQE64T_13shade_oracles10interfaces4bands5_1__NtBd_12HandleAnswerNtNtCs6CjExPaL98u_5serde2de11Deserialize11deserializeNtB8_9___VisitorNtB1s_7Visitor10visit_enumNtB2_14___FieldVisitorB2x_9expecting
FN:132,_RNvXs8_NtNtNtCs5yQHJDQE64T_13shade_oracles10interfaces4band5proxyNtB5_11QuoteSymbolNtNtCs59N989QkIgV_4core5clone5Clone5cloneBb_
FN:19,_RNvXs9_NtNtCs5yQHJDQE64T_13shade_oracles10interfaces4bandNtB5_10ExecuteMsgNtNtCs59N989QkIgV_4core3cmp9PartialEq2eqB9_
FN:38,_RNvXs1_NvXs0_NvXNvNtNtCs5yQHJDQE64T_13shade_oracles10interfaces4bands8_1__NtBg_8QueryMsgNtNtCs6CjExPaL98u_5serde2de11Deserialize11deserializeNtBb_9___VisitorNtB1q_7Visitor10visit_enumNtB5_s_14___FieldVisitorB2v_9expecting
FN:77,_RINvXNvXNvNtNtCs5yQHJDQE64T_13shade_oracles10interfaces4bandsg_1__NtB8_17ReferenceDataBulkNtNtCs6CjExPaL98u_5serde2de11Deserialize11deserializeNtB3_14___FieldVisitorNtB1s_7Visitor9visit_u64pEBc_
FN:33,_RNvXsa_NtNtCs5yQHJDQE64T_13shade_oracles10interfaces4bandNtB5_12HandleAnswerNtNtCs59N989QkIgV_4core5clone5Clone5cloneB9_
FN:53,_RINvXNvXNvNtNtCs5yQHJDQE64T_13shade_oracles10interfaces4bandsb_1__NtB8_13ReferenceDataNtNtCs6CjExPaL98u_5serde2de11Deserialize11deserializeNtB3_14___FieldVisitorNtB1o_7Visitor9visit_strpEBc_
FN:126,_RINvXNvXNvNtNtNtCs5yQHJDQE64T_13shade_oracles10interfaces4band5proxys2_1__NtB8_14ConfigResponseNtNtCs6CjExPaL98u_5serde2de11Deserialize11deserializeNtB3_14___FieldVisitorNtB1x_7Visitor9visit_strpEBe_
FN:119,_RNvXNvNtNtNtCs5yQHJDQE64T_13shade_oracles10interfaces4band5proxys0_1__NtB4_14InstantiateMsgNtCs8g2TqZEio7D_8schemars10JsonSchema11json_schema
FN:53,_RNvXsm_NtNtCs5yQHJDQE64T_13shade_oracles10interfaces4bandNtB5_13ReferenceDataNtNtCs59N989QkIgV_4core3cmp9PartialEq2neB9_
FN:19,_RINvXNvXs0_NvXNvNtNtCs5yQHJDQE64T_13shade_oracles10interfaces4bands2_1__NtBe_10ExecuteMsgNtNtCs6CjExPaL98u_5serde2de11Deserialize11deserializeNtB9_9___VisitorNtB1r_7Visitor10visit_enumNtB3_14___FieldVisitorB2w_9visit_u64pEBi_
FN:53,_RNvXsm_NtNtCs5yQHJDQE64T_13shade_oracles10interfaces4bandNtB5_13ReferenceDataNtNtCs59N989QkIgV_4core3cmp9PartialEq2eqB9_
FN:33,_RINvXs0_NvXs0_NvXNvNtNtCs5yQHJDQE64T_13shade_oracles10interfaces4bands5_1__NtBh_12HandleAnswerNtNtCs6CjExPaL98u_5serde2de11Deserialize11deserializeNtBc_9___VisitorNtB1w_7Visitor10visit_enumNtB6_9___VisitorB2B_9visit_seqpEBl_
FN:53,_RNvXNvNtNtCs5yQHJDQE64T_13shade_oracles10interfaces4bandsc_1__NtB4_13ReferenceDataNtCs8g2TqZEio7D_8schemars10JsonSchema11schema_name
FN:53,_RNvXNvXNvNtNtCs5yQHJDQE64T_13shade_oracles10interfaces4bandsb_1__NtB7_13ReferenceDataNtNtCs6CjExPaL98u_5serde2de11Deserialize11deserializeNtB2_14___FieldVisitorNtB1n_7Visitor9expecting
FN:33,_RINvXNvXs0_NvXNvNtNtCs5yQHJDQE64T_13shade_oracles10interfaces4bands5_1__NtBe_12HandleAnswerNtNtCs6CjExPaL98u_5serde2de11Deserialize11deserializeNtB9_9___VisitorNtB1t_7Visitor10visit_enumNtB3_14___FieldVisitorB2y_9visit_u64pEBi_
FNDA:33,_RINvXNvXNvNtNtNtCs7ttpGOJz6iy_13shade_oracles10interfaces4band5proxys_1__NtB8_14InstantiateMsgNtNtCs6CjExPaL98u_5serde2de11Deserialize11deserializeNtB3_14___FieldVisitorNtB1w_7Visitor9visit_strNtNtNtCs3JYPxoBuEj2_15serde_json_wasm2de6errors5ErrorECsgkmnL3Ab2bX_24shade_oracles_multi_test
FNDA:33,_RINvXs_NvXNvNtNtNtCs7ttpGOJz6iy_13shade_oracles10interfaces4band5proxys_1__NtBa_14InstantiateMsgNtNtCs6CjExPaL98u_5serde2de11Deserialize11deserializeNtB5_7___FieldB1w_11deserializeNtNtNtCs3JYPxoBuEj2_15serde_json_wasm2de3map6MapKeyECsgkmnL3Ab2bX_24shade_oracles_multi_test
FNDA:11,_RINvXNvNtNtNtCs7ttpGOJz6iy_13shade_oracles10interfaces4band5proxys_1__NtB5_14InstantiateMsgNtNtCs6CjExPaL98u_5serde2de11Deserialize11deserializeQNtNtCs3JYPxoBuEj2_15serde_json_wasm2de12DeserializerECsgkmnL3Ab2bX_24shade_oracles_multi_test
FNDA:11,_RINvXNvNtNtNtCs7ttpGOJz6iy_13shade_oracles10interfaces4band5proxy1__NtB5_14InstantiateMsgNtNtCs6CjExPaL98u_5serde3ser9Serialize9serializeQNtNtCs3JYPxoBuEj2_15serde_json_wasm3ser10SerializerECsgkmnL3Ab2bX_24shade_oracles_multi_test
FNDA:11,_RINvXs0_NvXNvNtNtNtCs7ttpGOJz6iy_13shade_oracles10interfaces4band5proxys_1__NtBb_14InstantiateMsgNtNtCs6CjExPaL98u_5serde2de11Deserialize11deserializeNtB6_9___VisitorNtB1z_7Visitor9visit_mapNtNtNtCs3JYPxoBuEj2_15serde_json_wasm2de3map9MapAccessECsgkmnL3Ab2bX_24shade_oracles_multi_test
FNDA:42,_RINvXs_NvXs0_NvXNvNtNtCs7ttpGOJz6iy_13shade_oracles10interfaces4bands8_1__NtBg_8QueryMsgNtNtCs6CjExPaL98u_5serde2de11Deserialize11deserializeNtBb_9___VisitorNtB1q_7Visitor10visit_enumNtB5_7___FieldB1o_11deserializeNtNtNtCs3JYPxoBuEj2_15serde_json_wasm2de3map6MapKeyECsgkmnL3Ab2bX_24shade_oracles_multi_test
FNDA:30,_RINvXNvNtNtCs7ttpGOJz6iy_13shade_oracles10interfaces4bands8_1__NtB5_8QueryMsgNtNtCs6CjExPaL98u_5serde2de11Deserialize11deserializeQNtNtCs3JYPxoBuEj2_15serde_json_wasm2de12DeserializerECsgkmnL3Ab2bX_24shade_oracles_multi_test
FNDA:11,_RINvXNvNtNtCs7ttpGOJz6iy_13shade_oracles10interfaces4band1__NtB5_14InstantiateMsgNtNtCs6CjExPaL98u_5serde3ser9Serialize9serializeQNtNtCs3JYPxoBuEj2_15serde_json_wasm3ser10SerializerECsgkmnL3Ab2bX_24shade_oracles_multi_test
FNDA:160,_RINvXs_NvXs0_NvXNvNtNtCs7ttpGOJz6iy_13shade_oracles10interfaces4bands2_1__NtBg_10ExecuteMsgNtNtCs6CjExPaL98u_5serde2de11Deserialize11deserializeNtBb_9___VisitorNtB1t_7Visitor10visit_enumNtB5_7___FieldB1r_11deserializeNtNtNtCs3JYPxoBuEj2_15serde_json_wasm2de3map6MapKeyECsgkmnL3Ab2bX_24shade_oracles_multi_test
FNDA:18,_RINvXs1_NvXs0_NvXNvNtNtCs7ttpGOJz6iy_13shade_oracles10interfaces4bands8_1__NtBh_8QueryMsgNtNtCs6CjExPaL98u_5serde2de11Deserialize11deserializeNtBc_9___VisitorNtB1r_7Visitor10visit_enumNtB6_s_14___FieldVisitorB2w_9visit_strNtNtNtCs3JYPxoBuEj2_15serde_json_wasm2de6errors5ErrorECsgkmnL3Ab2bX_24shade_oracles_multi_test
FNDA:30,_RINvXNvXNvNtNtCs7ttpGOJz6iy_13shade_oracles10interfaces4bands8_1__NtB8_8QueryMsgNtNtCs6CjExPaL98u_5serde2de11Deserialize11deserializeNtB3_14___FieldVisitorNtB1i_7Visitor9visit_strNtNtNtCs3JYPxoBuEj2_15serde_json_wasm2de6errors5ErrorECsgkmnL3Ab2bX_24shade_oracles_multi_test
FNDA:42,_RINvXNvXs0_NvXNvNtNtCs7ttpGOJz6iy_13shade_oracles10interfaces4bands8_1__NtBe_8QueryMsgNtNtCs6CjExPaL98u_5serde2de11Deserialize11deserializeNtB9_9___VisitorNtB1o_7Visitor10visit_enumNtB3_14___FieldVisitorB2t_9visit_strNtNtNtCs3JYPxoBuEj2_15serde_json_wasm2de6errors5ErrorECsgkmnL3Ab2bX_24shade_oracles_multi_test
FNDA:200,_RINvXs0_NvXs0_NvXNvNtNtCs7ttpGOJz6iy_13shade_oracles10interfaces4bands2_1__NtBh_10ExecuteMsgNtNtCs6CjExPaL98u_5serde2de11Deserialize11deserializeNtBc_9___VisitorNtB1u_7Visitor10visit_enumNtB6_9___VisitorB2z_9visit_mapNtNtNtCs3JYPxoBuEj2_15serde_json_wasm2de3map9MapAccessECsgkmnL3Ab2bX_24shade_oracles_multi_test
FNDA:0,_RINvXs_NvXNvNtNtCs7ttpGOJz6iy_13shade_oracles10interfaces4bands_1__NtBa_14InstantiateMsgNtNtCs6CjExPaL98u_5serde2de11Deserialize11deserializeNtB5_7___FieldB1o_11deserializeNtNtNtCs3JYPxoBuEj2_15serde_json_wasm2de3map6MapKeyECsgkmnL3Ab2bX_24shade_oracles_multi_test
FNDA:40,_RINvXNvNtNtCs7ttpGOJz6iy_13shade_oracles10interfaces4bands1_1__NtB5_10ExecuteMsgNtNtCs6CjExPaL98u_5serde3ser9Serialize9serializeQNtNtCs3JYPxoBuEj2_15serde_json_wasm3ser10SerializerECsgkmnL3Ab2bX_24shade_oracles_multi_test
FNDA:160,_RINvXNvXs0_NvXNvNtNtCs7ttpGOJz6iy_13shade_oracles10interfaces4bands2_1__NtBe_10ExecuteMsgNtNtCs6CjExPaL98u_5serde2de11Deserialize11deserializeNtB9_9___VisitorNtB1r_7Visitor10visit_enumNtB3_14___FieldVisitorB2w_9visit_strNtNtNtCs3JYPxoBuEj2_15serde_json_wasm2de6errors5ErrorECsgkmnL3Ab2bX_24shade_oracles_multi_test
FNDA:30,_RINvXs0_NvXNvNtNtCs7ttpGOJz6iy_13shade_oracles10interfaces4bands8_1__NtBb_8QueryMsgNtNtCs6CjExPaL98u_5serde2de11Deserialize11deserializeNtB6_9___VisitorNtB1l_7Visitor10visit_enumNtNtNtCs3JYPxoBuEj2_15serde_json_wasm2de5enum_19StructVariantAccessECsgkmnL3Ab2bX_24shade_oracles_multi_test
FNDA:0,_RINvXs0_NvXNvNtNtCs7ttpGOJz6iy_13shade_oracles10interfaces4bands_1__NtBb_14InstantiateMsgNtNtCs6CjExPaL98u_5serde2de11Deserialize11deserializeNtB6_9___VisitorNtB1r_7Visitor9visit_mapNtNtNtCs3JYPxoBuEj2_15serde_json_wasm2de3map9MapAccessECsgkmnL3Ab2bX_24shade_oracles_multi_test
FNDA:40,_RINvXs_NvXNvNtNtCs7ttpGOJz6iy_13shade_oracles10interfaces4bands2_1__NtBa_10ExecuteMsgNtNtCs6CjExPaL98u_5serde2de11Deserialize11deserializeNtB5_7___FieldB1l_11deserializeQNtNtCs3JYPxoBuEj2_15serde_json_wasm2de12DeserializerECsgkmnL3Ab2bX_24shade_oracles_multi_test
FNDA:0,_RINvXs0_NvXNvNtNtCs7ttpGOJz6iy_13shade_oracles10interfaces4bands8_1__NtBb_8QueryMsgNtNtCs6CjExPaL98u_5serde2de11Deserialize11deserializeNtB6_9___VisitorNtB1l_7Visitor10visit_enumNtNtNtCs3JYPxoBuEj2_15serde_json_wasm2de5enum_17UnitVariantAccessECsgkmnL3Ab2bX_24shade_oracles_multi_test
FNDA:0,_RINvXNvXNvNtNtCs7ttpGOJz6iy_13shade_oracles10interfaces4bands_1__NtB8_14InstantiateMsgNtNtCs6CjExPaL98u_5serde2de11Deserialize11deserializeNtB3_14___FieldVisitorNtB1o_7Visitor9visit_strNtNtNtCs3JYPxoBuEj2_15serde_json_wasm2de6errors5ErrorECsgkmnL3Ab2bX_24shade_oracles_multi_test
FNDA:40,_RINvXNvNtNtCs7ttpGOJz6iy_13shade_oracles10interfaces4bands2_1__NtB5_10ExecuteMsgNtNtCs6CjExPaL98u_5serde2de11Deserialize11deserializeQNtNtCs3JYPxoBuEj2_15serde_json_wasm2de12DeserializerECsgkmnL3Ab2bX_24shade_oracles_multi_test
FNDA:18,_RINvXs2_NvXs0_NvXNvNtNtCs7ttpGOJz6iy_13shade_oracles10interfaces4bands8_1__NtBh_8QueryMsgNtNtCs6CjExPaL98u_5serde2de11Deserialize11deserializeNtBc_9___VisitorNtB1r_7Visitor10visit_enumNtB6_s_7___FieldB1p_11deserializeNtNtNtCs3JYPxoBuEj2_15serde_json_wasm2de3map6MapKeyECsgkmnL3Ab2bX_24shade_oracles_multi_test
FNDA:40,_RINvXNvXNvNtNtCs7ttpGOJz6iy_13shade_oracles10interfaces4bands2_1__NtB8_10ExecuteMsgNtNtCs6CjExPaL98u_5serde2de11Deserialize11deserializeNtB3_14___FieldVisitorNtB1l_7Visitor9visit_strNtNtNtCs3JYPxoBuEj2_15serde_json_wasm2de6errors5ErrorECsgkmnL3Ab2bX_24shade_oracles_multi_test
FNDA:9,_RINvXs3_NvXs0_NvXNvNtNtCs7ttpGOJz6iy_13shade_oracles10interfaces4bands8_1__NtBh_8QueryMsgNtNtCs6CjExPaL98u_5serde2de11Deserialize11deserializeNtBc_9___VisitorNtB1r_7Visitor10visit_enumNtB6_s_9___VisitorB2w_9visit_mapNtNtNtCs3JYPxoBuEj2_15serde_json_wasm2de3map9MapAccessECsgkmnL3Ab2bX_24shade_oracles_multi_test
FNDA:40,_RINvXs0_NvXNvNtNtCs7ttpGOJz6iy_13shade_oracles10interfaces4bands2_1__NtBb_10ExecuteMsgNtNtCs6CjExPaL98u_5serde2de11Deserialize11deserializeNtB6_9___VisitorNtB1o_7Visitor10visit_enumNtNtNtCs3JYPxoBuEj2_15serde_json_wasm2de5enum_19StructVariantAccessECsgkmnL3Ab2bX_24shade_oracles_multi_test
FNDA:21,_RINvXs0_NvXs0_NvXNvNtNtCs7ttpGOJz6iy_13shade_oracles10interfaces4bands8_1__NtBh_8QueryMsgNtNtCs6CjExPaL98u_5serde2de11Deserialize11deserializeNtBc_9___VisitorNtB1r_7Visitor10visit_enumNtB6_9___VisitorB2w_9visit_mapNtNtNtCs3JYPxoBuEj2_15serde_json_wasm2de3map9MapAccessECsgkmnL3Ab2bX_24shade_oracles_multi_test
FNDA:30,_RINvXs_NvXNvNtNtCs7ttpGOJz6iy_13shade_oracles10interfaces4bands8_1__NtBa_8QueryMsgNtNtCs6CjExPaL98u_5serde2de11Deserialize11deserializeNtB5_7___FieldB1i_11deserializeQNtNtCs3JYPxoBuEj2_15serde_json_wasm2de12DeserializerECsgkmnL3Ab2bX_24shade_oracles_multi_test
FNDA:11,_RINvXNvNtNtCs7ttpGOJz6iy_13shade_oracles10interfaces4bands_1__NtB5_14InstantiateMsgNtNtCs6CjExPaL98u_5serde2de11Deserialize11deserializeQNtNtCs3JYPxoBuEj2_15serde_json_wasm2de12DeserializerECsgkmnL3Ab2bX_24shade_oracles_multi_test
FNDA:0,_RINvXs0_NvXNvNtNtCs7ttpGOJz6iy_13shade_oracles10interfaces4bands2_1__NtBb_10ExecuteMsgNtNtCs6CjExPaL98u_5serde2de11Deserialize11deserializeNtB6_9___VisitorNtB1o_7Visitor10visit_enumNtNtNtCs3JYPxoBuEj2_15serde_json_wasm2de5enum_17UnitVariantAccessECsgkmnL3Ab2bX_24shade_oracles_multi_test
FNDA:0,_RINvXNvNtNtCs7ttpGOJz6iy_13shade_oracles10interfaces4bandsa_1__NtB5_13ReferenceDataNtNtCs6CjExPaL98u_5serde3ser9Serialize9serializeQNtNtCs3JYPxoBuEj2_15serde_json_wasm3ser10SerializerECs6Kli61lKT0n_31shade_staking_derivative_oracle
FNDA:0,_RNvXsj_NtNtCs7ttpGOJz6iy_13shade_oracles10interfaces4bandNtB5_13ReferenceDataNtNtCs59N989QkIgV_4core5clone5Clone5cloneCsl4rh8uzcDWC_20siennaswap_lp_oracle
FNDA:0,_RINvXNvNtNtCs7ttpGOJz6iy_13shade_oracles10interfaces4bandsa_1__NtB5_13ReferenceDataNtNtCs6CjExPaL98u_5serde3ser9Serialize9serializeQNtNtCs3JYPxoBuEj2_15serde_json_wasm3ser10SerializerECsl4rh8uzcDWC_20siennaswap_lp_oracle
FNDA:0,_RINvXNvNtNtCs7ttpGOJz6iy_13shade_oracles10interfaces4bandsa_1__NtB5_13ReferenceDataNtNtCs6CjExPaL98u_5serde3ser9Serialize9serializeQNtNtCs3JYPxoBuEj2_15serde_json_wasm3ser10SerializerECs8soImV1O5bu_25siennaswap_lp_spot_oracle
FNDA:0,_RNvXsj_NtNtCs7ttpGOJz6iy_13shade_oracles10interfaces4bandNtB5_13ReferenceDataNtNtCs59N989QkIgV_4core5clone5Clone5cloneCs8soImV1O5bu_25siennaswap_lp_spot_oracle
FNDA:3,_RINvXNvNtNtCs7ttpGOJz6iy_13shade_oracles10interfaces4bandsa_1__NtB5_13ReferenceDataNtNtCs6CjExPaL98u_5serde3ser9Serialize9serializeQNtNtCs3JYPxoBuEj2_15serde_json_wasm3ser10SerializerECseKCZb5Dbj8H_23shadeswap_market_oracle
FNDA:3,_RINvXNvNtNtCs7ttpGOJz6iy_13shade_oracles10interfaces4bandsa_1__NtB5_13ReferenceDataNtNtCs6CjExPaL98u_5serde3ser9Serialize9serializeQNtNtCs3JYPxoBuEj2_15serde_json_wasm3ser10SerializerECs5sRKHz6Zcgz_24siennaswap_market_oracle
FNDA:9,_RINvXNvNtNtCs7ttpGOJz6iy_13shade_oracles10interfaces4bandsa_1__NtB5_13ReferenceDataNtNtCs6CjExPaL98u_5serde3ser9Serialize9serializeQNtNtCs3JYPxoBuEj2_15serde_json_wasm3ser10SerializerECs5hPCVRE3j1J_12index_oracle
FNDA:72,_RNvXsj_NtNtCs7ttpGOJz6iy_13shade_oracles10interfaces4bandNtB5_13ReferenceDataNtNtCs59N989QkIgV_4core5clone5Clone5cloneCs5hPCVRE3j1J_12index_oracle
FNDA:114,_RINvXNvNtNtCs7ttpGOJz6iy_13shade_oracles10interfaces4bandsa_1__NtB5_13ReferenceDataNtNtCs6CjExPaL98u_5serde3ser9Serialize9serializeQNtNtCs3JYPxoBuEj2_15serde_json_wasm3ser10SerializerECsefm3kO4uR0a_9mock_band
FNDA:40,_RINvXNvNtNtCs7ttpGOJz6iy_13shade_oracles10interfaces4bands4_1__NtB5_12HandleAnswerNtNtCs6CjExPaL98u_5serde3ser9Serialize9serializeQNtNtCs3JYPxoBuEj2_15serde_json_wasm3ser10SerializerECsefm3kO4uR0a_9mock_band
FNDA:24,_RINvXNvXNvNtNtNtCs7ttpGOJz6iy_13shade_oracles10interfaces4band5proxys5_1__NtB8_11QuoteSymbolNtNtCs6CjExPaL98u_5serde2de11Deserialize11deserializeNtB3_9___VisitorNtB1u_7Visitor20visit_newtype_structQNtNtCs3JYPxoBuEj2_15serde_json_wasm2de12DeserializerECs5J3WLKJaAzT_17proxy_band_oracle
FNDA:24,_RINvXNvNtNtNtCs7ttpGOJz6iy_13shade_oracles10interfaces4band5proxys5_1__NtB5_11QuoteSymbolNtNtCs6CjExPaL98u_5serde2de11Deserialize11deserializeQNtNtCs3JYPxoBuEj2_15serde_json_wasm2de12DeserializerECs5J3WLKJaAzT_17proxy_band_oracle
FNDA:11,_RINvXNvNtNtNtCs7ttpGOJz6iy_13shade_oracles10interfaces4band5proxys4_1__NtB5_11QuoteSymbolNtNtCs6CjExPaL98u_5serde3ser9Serialize9serializeQNtNtCs3JYPxoBuEj2_15serde_json_wasm3ser10SerializerECs5J3WLKJaAzT_17proxy_band_oracle
FNDA:68,_RINvXNvNtNtCs7ttpGOJz6iy_13shade_oracles10interfaces4bandsa_1__NtB5_13ReferenceDataNtNtCs6CjExPaL98u_5serde3ser9Serialize9serializeQNtNtCs3JYPxoBuEj2_15serde_json_wasm3ser10SerializerECs5J3WLKJaAzT_17proxy_band_oracle
FNDA:53,_RNvXsj_NtNtCs7ttpGOJz6iy_13shade_oracles10interfaces4bandNtB5_13ReferenceDataNtNtCs59N989QkIgV_4core5clone5Clone5cloneCs5J3WLKJaAzT_17proxy_band_oracle
FNDA:9,_RINvXNvNtNtCs7ttpGOJz6iy_13shade_oracles10interfaces4bandsa_1__NtB5_13ReferenceDataNtNtCs6CjExPaL98u_5serde3ser9Serialize9serializeQNtNtCs3JYPxoBuEj2_15serde_json_wasm3ser10SerializerECs6Knm8LX4JT4_13oracle_router
FNDA:0,_RINvXNvNtNtCs7ttpGOJz6iy_13shade_oracles10interfaces4bandsg_1__NtB5_17ReferenceDataBulkNtNtCs6CjExPaL98u_5serde2de11Deserialize11deserializepEB9_
FNDA:0,_RINvXs0_NvXs0_NvXNvNtNtCs7ttpGOJz6iy_13shade_oracles10interfaces4bands2_1__NtBh_10ExecuteMsgNtNtCs6CjExPaL98u_5serde2de11Deserialize11deserializeNtBc_9___VisitorNtB1u_7Visitor10visit_enumNtB6_9___VisitorB2z_9visit_seqpEBl_
FNDA:0,_RNvXs7_NtNtNtCs7ttpGOJz6iy_13shade_oracles10interfaces4band5proxyNtB5_14ConfigResponseNtNtCs59N989QkIgV_4core3cmp9PartialEq2neBb_
FNDA:0,_RINvXs0_NvXNvNtNtCs7ttpGOJz6iy_13shade_oracles10interfaces4bandsg_1__NtBb_17ReferenceDataBulkNtNtCs6CjExPaL98u_5serde2de11Deserialize11deserializeNtB6_9___VisitorNtB1v_7Visitor9visit_seqpEBf_
FNDA:0,_RINvXs0_NvXs0_NvXNvNtNtCs7ttpGOJz6iy_13shade_oracles10interfaces4bands5_1__NtBh_12HandleAnswerNtNtCs6CjExPaL98u_5serde2de11Deserialize11deserializeNtBc_9___VisitorNtB1w_7Visitor10visit_enumNtB6_9___VisitorB2B_9visit_mappEBl_
FNDA:0,_RINvXs_NvXNvNtNtNtCs7ttpGOJz6iy_13shade_oracles10interfaces4band5proxys2_1__NtBa_14ConfigResponseNtNtCs6CjExPaL98u_5serde2de11Deserialize11deserializeNtB5_7___FieldB1x_11deserializepEBg_
FNDA:0,_RINvXNvXs0_NvXNvNtNtCs7ttpGOJz6iy_13shade_oracles10interfaces4bands5_1__NtBe_12HandleAnswerNtNtCs6CjExPaL98u_5serde2de11Deserialize11deserializeNtB9_9___VisitorNtB1t_7Visitor10visit_enumNtB3_14___FieldVisitorB2y_9visit_strpEBi_
FNDA:0,_RINvXs0_NvXs0_NvXNvNtNtCs7ttpGOJz6iy_13shade_oracles10interfaces4bands2_1__NtBh_10ExecuteMsgNtNtCs6CjExPaL98u_5serde2de11Deserialize11deserializeNtBc_9___VisitorNtB1u_7Visitor10visit_enumNtB6_9___VisitorB2z_9visit_mappEBl_
FNDA:0,_RINvXNvNtNtNtCs7ttpGOJz6iy_13shade_oracles10interfaces4band5proxys2_1__NtB5_14ConfigResponseNtNtCs6CjExPaL98u_5serde2de11Deserialize11deserializepEBb_
FNDA:0,_RINvXNvNtNtCs7ttpGOJz6iy_13shade_oracles10interfaces4bandsd_1__NtB5_16BtrReferenceDataNtNtCs6CjExPaL98u_5serde3ser9Serialize9serializepEB9_
FNDA:0,_RINvXs0_NvXs0_NvXNvNtNtCs7ttpGOJz6iy_13shade_oracles10interfaces4bands8_1__NtBh_8QueryMsgNtNtCs6CjExPaL98u_5serde2de11Deserialize11deserializeNtBc_9___VisitorNtB1r_7Visitor10visit_enumNtB6_9___VisitorB2w_9visit_seqpEBl_
FNDA:0,_RNvXs3_NtNtNtCs7ttpGOJz6iy_13shade_oracles10interfaces4band5proxyNtB5_14InstantiateMsgNtNtCs59N989QkIgV_4core3cmp9PartialEq2eqBb_
FNDA:0,_RINvXNvXNvNtNtCs7ttpGOJz6iy_13shade_oracles10interfaces4bandse_1__NtB8_16BtrReferenceDataNtNtCs6CjExPaL98u_5serde2de11Deserialize11deserializeNtB3_14___FieldVisitorNtB1r_7Visitor9visit_strpEBc_
FNDA:0,_RINvXNvXNvNtNtCs7ttpGOJz6iy_13shade_oracles10interfaces4bandsg_1__NtB8_17ReferenceDataBulkNtNtCs6CjExPaL98u_5serde2de11Deserialize11deserializeNtB3_14___FieldVisitorNtB1s_7Visitor9visit_strpEBc_
FNDA:0,_RNvXsb_NtNtNtCs7ttpGOJz6iy_13shade_oracles10interfaces4band5proxyNtB5_11QuoteSymbolNtNtCs59N989QkIgV_4core3cmp9PartialEq2eqBb_
FNDA:0,_RINvXNvNtNtCs7ttpGOJz6iy_13shade_oracles10interfaces4bands_1__NtB5_14InstantiateMsgNtNtCs6CjExPaL98u_5serde2de11Deserialize11deserializepEB9_
FNDA:0,_RNvXsu_NtNtCs7ttpGOJz6iy_13shade_oracles10interfaces4bandNtB5_17ReferenceDataBulkNtNtCs59N989QkIgV_4core3cmp9PartialEq2neB9_
FNDA:0,_RINvXNvNtNtCs7ttpGOJz6iy_13shade_oracles10interfaces4bands5_1__NtB5_12HandleAnswerNtNtCs6CjExPaL98u_5serde2de11Deserialize11deserializepEB9_
FNDA:0,_RINvXNvXNvNtNtCs7ttpGOJz6iy_13shade_oracles10interfaces4bands5_1__NtB8_12HandleAnswerNtNtCs6CjExPaL98u_5serde2de11Deserialize11deserializeNtB3_14___FieldVisitorNtB1n_7Visitor9visit_strpEBc_
FNDA:0,_RINvXs0_NvXNvNtNtCs7ttpGOJz6iy_13shade_oracles10interfaces4bandsg_1__NtBb_17ReferenceDataBulkNtNtCs6CjExPaL98u_5serde2de11Deserialize11deserializeNtB6_9___VisitorNtB1v_7Visitor9visit_mappEBf_
FNDA:0,_RINvXNvXNvNtNtCs7ttpGOJz6iy_13shade_oracles10interfaces4bands8_1__NtB8_8QueryMsgNtNtCs6CjExPaL98u_5serde2de11Deserialize11deserializeNtB3_14___FieldVisitorNtB1i_7Visitor9visit_strpEBc_
FNDA:0,_RINvXNvXNvNtNtNtCs7ttpGOJz6iy_13shade_oracles10interfaces4band5proxys_1__NtB8_14InstantiateMsgNtNtCs6CjExPaL98u_5serde2de11Deserialize11deserializeNtB3_14___FieldVisitorNtB1w_7Visitor9visit_strpEBe_
FNDA:0,_RINvXNvNtNtCs7ttpGOJz6iy_13shade_oracles10interfaces4bandsf_1__NtB5_17ReferenceDataBulkNtNtCs6CjExPaL98u_5serde3ser9Serialize9serializepEB9_
FNDA:0,_RINvXs3_NvXs0_NvXNvNtNtCs7ttpGOJz6iy_13shade_oracles10interfaces4bands8_1__NtBh_8QueryMsgNtNtCs6CjExPaL98u_5serde2de11Deserialize11deserializeNtBc_9___VisitorNtB1r_7Visitor10visit_enumNtB6_s_9___VisitorB2w_9visit_seqpEBl_
FNDA:0,_RINvXs2_NvXs0_NvXNvNtNtCs7ttpGOJz6iy_13shade_oracles10interfaces4bands8_1__NtBh_8QueryMsgNtNtCs6CjExPaL98u_5serde2de11Deserialize11deserializeNtBc_9___VisitorNtB1r_7Visitor10visit_enumNtB6_s_7___FieldB1p_11deserializepEBl_
FNDA:0,_RINvXs1_NvXs0_NvXNvNtNtCs7ttpGOJz6iy_13shade_oracles10interfaces4bands8_1__NtBh_8QueryMsgNtNtCs6CjExPaL98u_5serde2de11Deserialize11deserializeNtBc_9___VisitorNtB1r_7Visitor10visit_enumNtB6_s_14___FieldVisitorB2w_11visit_bytespEBl_
FNDA:0,_RINvXNvXNvNtNtCs7ttpGOJz6iy_13shade_oracles10interfaces4bands2_1__NtB8_10ExecuteMsgNtNtCs6CjExPaL98u_5serde2de11Deserialize11deserializeNtB3_14___FieldVisitorNtB1l_7Visitor11visit_bytespEBc_
FNDA:0,_RNvXs6_NtNtCs7ttpGOJz6iy_13shade_oracles10interfaces4bandNtB5_10ExecuteMsgNtNtCs59N989QkIgV_4core5clone5Clone5cloneB9_
FNDA:0,_RINvXNvNtNtCs7ttpGOJz6iy_13shade_oracles10interfaces4bands1_1__NtB5_10ExecuteMsgNtNtCs6CjExPaL98u_5serde3ser9Serialize9serializepEB9_
FNDA:0,_RINvXs_NvXs0_NvXNvNtNtCs7ttpGOJz6iy_13shade_oracles10interfaces4bands5_1__NtBg_12HandleAnswerNtNtCs6CjExPaL98u_5serde2de11Deserialize11deserializeNtBb_9___VisitorNtB1v_7Visitor10visit_enumNtB5_7___FieldB1t_11deserializepEBk_
FNDA:0,_RINvXs_NvXNvNtNtCs7ttpGOJz6iy_13shade_oracles10interfaces4bandse_1__NtBa_16BtrReferenceDataNtNtCs6CjExPaL98u_5serde2de11Deserialize11deserializeNtB5_7___FieldB1r_11deserializepEBe_
FNDA:0,_RNvXs5_NtNtCs7ttpGOJz6iy_13shade_oracles10interfaces4bandNtB5_14InstantiateMsgNtNtCs59N989QkIgV_4core3cmp9PartialEq2eqB9_
FNDA:0,_RINvXNvXNvNtNtCs7ttpGOJz6iy_13shade_oracles10interfaces4bandsb_1__NtB8_13ReferenceDataNtNtCs6CjExPaL98u_5serde2de11Deserialize11deserializeNtB3_14___FieldVisitorNtB1o_7Visitor11visit_bytespEBc_
FNDA:0,_RINvXNvXs0_NvXNvNtNtCs7ttpGOJz6iy_13shade_oracles10interfaces4bands2_1__NtBe_10ExecuteMsgNtNtCs6CjExPaL98u_5serde2de11Deserialize11deserializeNtB9_9___VisitorNtB1r_7Visitor10visit_enumNtB3_14___FieldVisitorB2w_9visit_strpEBi_
FNDA:0,_RNvXsr_NtNtCs7ttpGOJz6iy_13shade_oracles10interfaces4bandNtB5_17ReferenceDataBulkNtNtCs59N989QkIgV_4core5clone5Clone5cloneB9_
FNDA:0,_RINvXs0_NvXNvNtNtCs7ttpGOJz6iy_13shade_oracles10interfaces4bandsb_1__NtBb_13ReferenceDataNtNtCs6CjExPaL98u_5serde2de11Deserialize11deserializeNtB6_9___VisitorNtB1r_7Visitor9visit_seqpEBf_
FNDA:0,_RNvXse_NtNtCs7ttpGOJz6iy_13shade_oracles10interfaces4bandNtB5_8QueryMsgNtNtCs59N989QkIgV_4core5clone5Clone5cloneB9_
FNDA:0,_RINvXNvXs0_NvXNvNtNtCs7ttpGOJz6iy_13shade_oracles10interfaces4bands5_1__NtBe_12HandleAnswerNtNtCs6CjExPaL98u_5serde2de11Deserialize11deserializeNtB9_9___VisitorNtB1t_7Visitor10visit_enumNtB3_14___FieldVisitorB2y_9visit_u64pEBi_
FNDA:0,_RINvXNvXNvNtNtCs7ttpGOJz6iy_13shade_oracles10interfaces4bands5_1__NtB8_12HandleAnswerNtNtCs6CjExPaL98u_5serde2de11Deserialize11deserializeNtB3_14___FieldVisitorNtB1n_7Visitor11visit_bytespEBc_
FNDA:0,_RINvXNvXs0_NvXNvNtNtCs7ttpGOJz6iy_13shade_oracles10interfaces4bands8_1__NtBe_8QueryMsgNtNtCs6CjExPaL98u_5serde2de11Deserialize11deserializeNtB9_9___VisitorNtB1o_7Visitor10visit_enumNtB3_14___FieldVisitorB2t_9visit_strpEBi_
FNDA:0,_RINvXs_NvXNvNtNtNtCs7ttpGOJz6iy_13shade_oracles10interfaces4band5proxys_1__NtBa_14InstantiateMsgNtNtCs6CjExPaL98u_5serde2de11Deserialize11deserializeNtB5_7___FieldB1w_11deserializepEBg_
FNDA:0,_RINvXs0_NvXNvNtNtCs7ttpGOJz6iy_13shade_oracles10interfaces4bands8_1__NtBb_8QueryMsgNtNtCs6CjExPaL98u_5serde2de11Deserialize11deserializeNtB6_9___VisitorNtB1l_7Visitor10visit_enumpEBf_
FNDA:0,_RNvXs0_NtNtNtCs7ttpGOJz6iy_13shade_oracles10interfaces4band5proxyNtB5_14InstantiateMsgNtNtCs59N989QkIgV_4core5clone5Clone5cloneBb_
FNDA:0,_RINvXs0_NvXNvNtNtNtCs7ttpGOJz6iy_13shade_oracles10interfaces4band5proxys2_1__NtBb_14ConfigResponseNtNtCs6CjExPaL98u_5serde2de11Deserialize11deserializeNtB6_9___VisitorNtB1A_7Visitor9visit_seqpEBh_
FNDA:0,_RINvXNvNtNtCs7ttpGOJz6iy_13shade_oracles10interfaces4bandsa_1__NtB5_13ReferenceDataNtNtCs6CjExPaL98u_5serde3ser9Serialize9serializepEB9_
FNDA:0,_RINvXs0_NvXNvNtNtCs7ttpGOJz6iy_13shade_oracles10interfaces4bands5_1__NtBb_12HandleAnswerNtNtCs6CjExPaL98u_5serde2de11Deserialize11deserializeNtB6_9___VisitorNtB1q_7Visitor10visit_enumpEBf_
FNDA:0,_RINvXNvXNvNtNtCs7ttpGOJz6iy_13shade_oracles10interfaces4bands5_1__NtB8_12HandleAnswerNtNtCs6CjExPaL98u_5serde2de11Deserialize11deserializeNtB3_14___FieldVisitorNtB1n_7Visitor9visit_u64pEBc_
FNDA:0,_RINvXNvXNvNtNtCs7ttpGOJz6iy_13shade_oracles10interfaces4bands8_1__NtB8_8QueryMsgNtNtCs6CjExPaL98u_5serde2de11Deserialize11deserializeNtB3_14___FieldVisitorNtB1i_7Visitor11visit_bytespEBc_
FNDA:0,_RINvXNvXNvNtNtNtCs7ttpGOJz6iy_13shade_oracles10interfaces4band5proxys_1__NtB8_14InstantiateMsgNtNtCs6CjExPaL98u_5serde2de11Deserialize11deserializeNtB3_14___FieldVisitorNtB1w_7Visitor9visit_u64pEBe_
FNDA:0,_RINvXs0_NvXNvNtNtNtCs7ttpGOJz6iy_13shade_oracles10interfaces4band5proxys_1__NtBb_14InstantiateMsgNtNtCs6CjExPaL98u_5serde2de11Deserialize11deserializeNtB6_9___VisitorNtB1z_7Visitor9visit_mappEBh_
FNDA:0,_RINvXNvNtNtNtCs7ttpGOJz6iy_13shade_oracles10interfaces4band5proxys1_1__NtB5_14ConfigResponseNtNtCs6CjExPaL98u_5serde3ser9Serialize9serializepEBb_
FNDA:0,_RINvXs1_NvXs0_NvXNvNtNtCs7ttpGOJz6iy_13shade_oracles10interfaces4bands8_1__NtBh_8QueryMsgNtNtCs6CjExPaL98u_5serde2de11Deserialize11deserializeNtBc_9___VisitorNtB1r_7Visitor10visit_enumNtB6_s_14___FieldVisitorB2w_9visit_strpEBl_
FNDA:0,_RNvXsq_NtNtCs7ttpGOJz6iy_13shade_oracles10interfaces4bandNtB5_16BtrReferenceDataNtNtCs59N989QkIgV_4core3cmp9PartialEq2eqB9_
FNDA:0,_RINvXNvXs0_NvXNvNtNtCs7ttpGOJz6iy_13shade_oracles10interfaces4bands2_1__NtBe_10ExecuteMsgNtNtCs6CjExPaL98u_5serde2de11Deserialize11deserializeNtB9_9___VisitorNtB1r_7Visitor10visit_enumNtB3_14___FieldVisitorB2w_11visit_bytespEBi_
FNDA:0,_RINvXNvXNvNtNtCs7ttpGOJz6iy_13shade_oracles10interfaces4bands2_1__NtB8_10ExecuteMsgNtNtCs6CjExPaL98u_5serde2de11Deserialize11deserializeNtB3_14___FieldVisitorNtB1l_7Visitor9visit_strpEBc_
FNDA:0,_RNvXsu_NtNtCs7ttpGOJz6iy_13shade_oracles10interfaces4bandNtB5_17ReferenceDataBulkNtNtCs59N989QkIgV_4core3cmp9PartialEq2eqB9_
FNDA:0,_RNvXs4_NtNtNtCs7ttpGOJz6iy_13shade_oracles10interfaces4band5proxyNtB5_14ConfigResponseNtNtCs59N989QkIgV_4core5clone5Clone5cloneBb_
FNDA:0,_RINvXNvXNvNtNtCs7ttpGOJz6iy_13shade_oracles10interfaces4bands_1__NtB8_14InstantiateMsgNtNtCs6CjExPaL98u_5serde2de11Deserialize11deserializeNtB3_14___FieldVisitorNtB1o_7Visitor9visit_u64pEBc_
FNDA:0,_RINvXNvXNvNtNtCs7ttpGOJz6iy_13shade_oracles10interfaces4bandsg_1__NtB8_17ReferenceDataBulkNtNtCs6CjExPaL98u_5serde2de11Deserialize11deserializeNtB3_14___FieldVisitorNtB1s_7Visitor11visit_bytespEBc_
FNDA:0,_RINvXNvXNvNtNtNtCs7ttpGOJz6iy_13shade_oracles10interfaces4band5proxys5_1__NtB8_11QuoteSymbolNtNtCs6CjExPaL98u_5serde2de11Deserialize11deserializeNtB3_9___VisitorNtB1u_7Visitor20visit_newtype_structpEBe_
FNDA:0,_RINvXs0_NvXNvNtNtCs7ttpGOJz6iy_13shade_oracles10interfaces4bands_1__NtBb_14InstantiateMsgNtNtCs6CjExPaL98u_5serde2de11Deserialize11deserializeNtB6_9___VisitorNtB1r_7Visitor9visit_seqpEBf_
FNDA:0,_RINvXNvNtNtCs7ttpGOJz6iy_13shade_oracles10interfaces4bands4_1__NtB5_12HandleAnswerNtNtCs6CjExPaL98u_5serde3ser9Serialize9serializepEB9_
FNDA:0,_RNvXsd_NtNtCs7ttpGOJz6iy_13shade_oracles10interfaces4bandNtB5_12HandleAnswerNtNtCs59N989QkIgV_4core3cmp9PartialEq2neB9_
FNDA:0,_RINvXNvXs0_NvXNvNtNtCs7ttpGOJz6iy_13shade_oracles10interfaces4bands8_1__NtBe_8QueryMsgNtNtCs6CjExPaL98u_5serde2de11Deserialize11deserializeNtB9_9___VisitorNtB1o_7Visitor10visit_enumNtB3_14___FieldVisitorB2t_9visit_u64pEBi_
FNDA:0,_RINvXs0_NvXs0_NvXNvNtNtCs7ttpGOJz6iy_13shade_oracles10interfaces4bands5_1__NtBh_12HandleAnswerNtNtCs6CjExPaL98u_5serde2de11Deserialize11deserializeNtBc_9___VisitorNtB1w_7Visitor10visit_enumNtB6_9___VisitorB2B_9visit_seqpEBl_
FNDA:0,_RINvXNvXs0_NvXNvNtNtCs7ttpGOJz6iy_13shade_oracles10interfaces4bands5_1__NtBe_12HandleAnswerNtNtCs6CjExPaL98u_5serde2de11Deserialize11deserializeNtB9_9___VisitorNtB1t_7Visitor10visit_enumNtB3_14___FieldVisitorB2y_11visit_bytespEBi_
FNDA:0,_RINvXNvNtNtNtCs7ttpGOJz6iy_13shade_oracles10interfaces4band5proxys5_1__NtB5_11QuoteSymbolNtNtCs6CjExPaL98u_5serde2de11Deserialize11deserializepEBb_
FNDA:0,_RINvXs_NvXNvNtNtCs7ttpGOJz6iy_13shade_oracles10interfaces4bandsg_1__NtBa_17ReferenceDataBulkNtNtCs6CjExPaL98u_5serde2de11Deserialize11deserializeNtB5_7___FieldB1s_11deserializepEBe_
FNDA:0,_RNvXsn_NtNtCs7ttpGOJz6iy_13shade_oracles10interfaces4bandNtB5_16BtrReferenceDataNtNtCs59N989QkIgV_4core5clone5Clone5cloneB9_
FNDA:0,_RINvXNvXNvNtNtCs7ttpGOJz6iy_13shade_oracles10interfaces4bandse_1__NtB8_16BtrReferenceDataNtNtCs6CjExPaL98u_5serde2de11Deserialize11deserializeNtB3_14___FieldVisitorNtB1r_7Visitor9visit_u64pEBc_
FNDA:0,_RINvXNvXNvNtNtCs7ttpGOJz6iy_13shade_oracles10interfaces4bands_1__NtB8_14InstantiateMsgNtNtCs6CjExPaL98u_5serde2de11Deserialize11deserializeNtB3_14___FieldVisitorNtB1o_7Visitor9visit_strpEBc_
FNDA:0,_RNvXsh_NtNtCs7ttpGOJz6iy_13shade_oracles10interfaces4bandNtB5_8QueryMsgNtNtCs59N989QkIgV_4core3cmp9PartialEq2eqB9_
FNDA:0,_RINvXNvNtNtNtCs7ttpGOJz6iy_13shade_oracles10interfaces4band5proxys_1__NtB5_14InstantiateMsgNtNtCs6CjExPaL98u_5serde2de11Deserialize11deserializepEBb_
FNDA:0,_RINvXs_NvXNvNtNtCs7ttpGOJz6iy_13shade_oracles10interfaces4bands_1__NtBa_14InstantiateMsgNtNtCs6CjExPaL98u_5serde2de11Deserialize11deserializeNtB5_7___FieldB1o_11deserializepEBe_
FNDA:0,_RINvXNvNtNtCs7ttpGOJz6iy_13shade_oracles10interfaces4bands2_1__NtB5_10ExecuteMsgNtNtCs6CjExPaL98u_5serde2de11Deserialize11deserializepEB9_
FNDA:0,_RINvXNvXs0_NvXNvNtNtCs7ttpGOJz6iy_13shade_oracles10interfaces4bands2_1__NtBe_10ExecuteMsgNtNtCs6CjExPaL98u_5serde2de11Deserialize11deserializeNtB9_9___VisitorNtB1r_7Visitor10visit_enumNtB3_14___FieldVisitorB2w_9visit_u64pEBi_
FNDA:0,_RINvXNvNtNtCs7ttpGOJz6iy_13shade_oracles10interfaces4band1__NtB5_14InstantiateMsgNtNtCs6CjExPaL98u_5serde3ser9Serialize9serializepEB9_
FNDA:0,_RINvXNvXNvNtNtNtCs7ttpGOJz6iy_13shade_oracles10interfaces4band5proxys_1__NtB8_14InstantiateMsgNtNtCs6CjExPaL98u_5serde2de11Deserialize11deserializeNtB3_14___FieldVisitorNtB1w_7Visitor11visit_bytespEBe_
FNDA:0,_RINvXs1_NvXs0_NvXNvNtNtCs7ttpGOJz6iy_13shade_oracles10interfaces4bands8_1__NtBh_8QueryMsgNtNtCs6CjExPaL98u_5serde2de11Deserialize11deserializeNtBc_9___VisitorNtB1r_7Visitor10visit_enumNtB6_s_14___FieldVisitorB2w_9visit_u64pEBl_
FNDA:0,_RINvXs_NvXNvNtNtCs7ttpGOJz6iy_13shade_oracles10interfaces4bands5_1__NtBa_12HandleAnswerNtNtCs6CjExPaL98u_5serde2de11Deserialize11deserializeNtB5_7___FieldB1n_11deserializepEBe_
FNDA:0,_RINvXs0_NvXNvNtNtCs7ttpGOJz6iy_13shade_oracles10interfaces4bandse_1__NtBb_16BtrReferenceDataNtNtCs6CjExPaL98u_5serde2de11Deserialize11deserializeNtB6_9___VisitorNtB1u_7Visitor9visit_mappEBf_
FNDA:0,_RINvXNvXNvNtNtCs7ttpGOJz6iy_13shade_oracles10interfaces4bands2_1__NtB8_10ExecuteMsgNtNtCs6CjExPaL98u_5serde2de11Deserialize11deserializeNtB3_14___FieldVisitorNtB1l_7Visitor9visit_u64pEBc_
FNDA:0,_RINvXs0_NvXs0_NvXNvNtNtCs7ttpGOJz6iy_13shade_oracles10interfaces4bands8_1__NtBh_8QueryMsgNtNtCs6CjExPaL98u_5serde2de11Deserialize11deserializeNtBc_9___VisitorNtB1r_7Visitor10visit_enumNtB6_9___VisitorB2w_9visit_mappEBl_
FNDA:0,_RNvXs3_NtNtNtCs7ttpGOJz6iy_13shade_oracles10interfaces4band5proxyNtB5_14InstantiateMsgNtNtCs59N989QkIgV_4core3cmp9PartialEq2neBb_
FNDA:0,_RINvXNvNtNtNtCs7ttpGOJz6iy_13shade_oracles10interfaces4band5proxys4_1__NtB5_11QuoteSymbolNtNtCs6CjExPaL98u_5serde3ser9Serialize9serializepEBb_
FNDA:0,_RNvXs2_NtNtCs7ttpGOJz6iy_13shade_oracles10interfaces4bandNtB5_14InstantiateMsgNtNtCs59N989QkIgV_4core5clone5Clone5cloneB9_
FNDA:0,_RINvXNvXNvNtNtNtCs7ttpGOJz6iy_13shade_oracles10interfaces4band5proxys2_1__NtB8_14ConfigResponseNtNtCs6CjExPaL98u_5serde2de11Deserialize11deserializeNtB3_14___FieldVisitorNtB1x_7Visitor9visit_strpEBe_
FNDA:0,_RINvXs0_NvXNvNtNtNtCs7ttpGOJz6iy_13shade_oracles10interfaces4band5proxys_1__NtBb_14InstantiateMsgNtNtCs6CjExPaL98u_5serde2de11Deserialize11deserializeNtB6_9___VisitorNtB1z_7Visitor9visit_seqpEBh_
FNDA:0,_RINvXs_NvXNvNtNtCs7ttpGOJz6iy_13shade_oracles10interfaces4bands8_1__NtBa_8QueryMsgNtNtCs6CjExPaL98u_5serde2de11Deserialize11deserializeNtB5_7___FieldB1i_11deserializepEBe_
FNDA:0,_RINvXs_NvXs0_NvXNvNtNtCs7ttpGOJz6iy_13shade_oracles10interfaces4bands8_1__NtBg_8QueryMsgNtNtCs6CjExPaL98u_5serde2de11Deserialize11deserializeNtBb_9___VisitorNtB1q_7Visitor10visit_enumNtB5_7___FieldB1o_11deserializepEBk_
FNDA:0,_RINvXs0_NvXNvNtNtCs7ttpGOJz6iy_13shade_oracles10interfaces4bands2_1__NtBb_10ExecuteMsgNtNtCs6CjExPaL98u_5serde2de11Deserialize11deserializeNtB6_9___VisitorNtB1o_7Visitor10visit_enumpEBf_
FNDA:0,_RINvXs3_NvXs0_NvXNvNtNtCs7ttpGOJz6iy_13shade_oracles10interfaces4bands8_1__NtBh_8QueryMsgNtNtCs6CjExPaL98u_5serde2de11Deserialize11deserializeNtBc_9___VisitorNtB1r_7Visitor10visit_enumNtB6_s_9___VisitorB2w_9visit_mappEBl_
FNDA:0,_RINvXNvXNvNtNtCs7ttpGOJz6iy_13shade_oracles10interfaces4bandse_1__NtB8_16BtrReferenceDataNtNtCs6CjExPaL98u_5serde2de11Deserialize11deserializeNtB3_14___FieldVisitorNtB1r_7Visitor11visit_bytespEBc_
FNDA:0,_RNvXs9_NtNtCs7ttpGOJz6iy_13shade_oracles10interfaces4bandNtB5_10ExecuteMsgNtNtCs59N989QkIgV_4core3cmp9PartialEq2neB9_
FNDA:0,_RINvXNvXNvNtNtCs7ttpGOJz6iy_13shade_oracles10interfaces4bands8_1__NtB8_8QueryMsgNtNtCs6CjExPaL98u_5serde2de11Deserialize11deserializeNtB3_14___FieldVisitorNtB1i_7Visitor9visit_u64pEBc_
FNDA:0,_RINvXNvXNvNtNtCs7ttpGOJz6iy_13shade_oracles10interfaces4bandsb_1__NtB8_13ReferenceDataNtNtCs6CjExPaL98u_5serde2de11Deserialize11deserializeNtB3_14___FieldVisitorNtB1o_7Visitor9visit_u64pEBc_
FNDA:0,_RNvXsh_NtNtCs7ttpGOJz6iy_13shade_oracles10interfaces4bandNtB5_8QueryMsgNtNtCs59N989QkIgV_4core3cmp9PartialEq2neB9_
FNDA:0,_RNvXsq_NtNtCs7ttpGOJz6iy_13shade_oracles10interfaces4bandNtB5_16BtrReferenceDataNtNtCs59N989QkIgV_4core3cmp9PartialEq2neB9_
FNDA:0,_RINvXs0_NvXNvNtNtCs7ttpGOJz6iy_13shade_oracles10interfaces4bands_1__NtBb_14InstantiateMsgNtNtCs6CjExPaL98u_5serde2de11Deserialize11deserializeNtB6_9___VisitorNtB1r_7Visitor9visit_mappEBf_
FNDA:0,_RINvXs0_NvXNvNtNtCs7ttpGOJz6iy_13shade_oracles10interfaces4bandse_1__NtBb_16BtrReferenceDataNtNtCs6CjExPaL98u_5serde2de11Deserialize11deserializeNtB6_9___VisitorNtB1u_7Visitor9visit_seqpEBf_
FNDA:0,_RNvXsb_NtNtNtCs7ttpGOJz6iy_13shade_oracles10interfaces4band5proxyNtB5_11QuoteSymbolNtNtCs59N989QkIgV_4core3cmp9PartialEq2neBb_
FNDA:0,_RINvXNvXNvNtNtNtCs7ttpGOJz6iy_13shade_oracles10interfaces4band5proxys2_1__NtB8_14ConfigResponseNtNtCs6CjExPaL98u_5serde2de11Deserialize11deserializeNtB3_14___FieldVisitorNtB1x_7Visitor9visit_u64pEBe_
FNDA:0,_RINvXNvNtNtNtCs7ttpGOJz6iy_13shade_oracles10interfaces4band5proxy1__NtB5_14InstantiateMsgNtNtCs6CjExPaL98u_5serde3ser9Serialize9serializepEBb_
FNDA:0,_RINvXs_NvXNvNtNtCs7ttpGOJz6iy_13shade_oracles10interfaces4bands2_1__NtBa_10ExecuteMsgNtNtCs6CjExPaL98u_5serde2de11Deserialize11deserializeNtB5_7___FieldB1l_11deserializepEBe_
FNDA:0,_RINvXNvXNvNtNtCs7ttpGOJz6iy_13shade_oracles10interfaces4bandsg_1__NtB8_17ReferenceDataBulkNtNtCs6CjExPaL98u_5serde2de11Deserialize11deserializeNtB3_14___FieldVisitorNtB1s_7Visitor9visit_u64pEBc_
FNDA:0,_RINvXNvXNvNtNtCs7ttpGOJz6iy_13shade_oracles10interfaces4bands_1__NtB8_14InstantiateMsgNtNtCs6CjExPaL98u_5serde2de11Deserialize11deserializeNtB3_14___FieldVisitorNtB1o_7Visitor11visit_bytespEBc_
FNDA:0,_RNvXsd_NtNtCs7ttpGOJz6iy_13shade_oracles10interfaces4bandNtB5_12HandleAnswerNtNtCs59N989QkIgV_4core3cmp9PartialEq2eqB9_
FNDA:0,_RINvXs_NvXs0_NvXNvNtNtCs7ttpGOJz6iy_13shade_oracles10interfaces4bands2_1__NtBg_10ExecuteMsgNtNtCs6CjExPaL98u_5serde2de11Deserialize11deserializeNtBb_9___VisitorNtB1t_7Visitor10visit_enumNtB5_7___FieldB1r_11deserializepEBk_
FNDA:0,_RNvXs8_NtNtNtCs7ttpGOJz6iy_13shade_oracles10interfaces4band5proxyNtB5_11QuoteSymbolNtNtCs59N989QkIgV_4core5clone5Clone5cloneBb_
FNDA:0,_RINvXNvXNvNtNtNtCs7ttpGOJz6iy_13shade_oracles10interfaces4band5proxys5_1__NtB8_11QuoteSymbolNtNtCs6CjExPaL98u_5serde2de11Deserialize11deserializeNtB3_9___VisitorNtB1u_7Visitor9visit_seqpEBe_
FNDA:0,_RNvXs9_NtNtCs7ttpGOJz6iy_13shade_oracles10interfaces4bandNtB5_10ExecuteMsgNtNtCs59N989QkIgV_4core3cmp9PartialEq2eqB9_
FNDA:0,_RNvXsa_NtNtCs7ttpGOJz6iy_13shade_oracles10interfaces4bandNtB5_12HandleAnswerNtNtCs59N989QkIgV_4core5clone5Clone5cloneB9_
FNDA:0,_RINvXNvXs0_NvXNvNtNtCs7ttpGOJz6iy_13shade_oracles10interfaces4bands8_1__NtBe_8QueryMsgNtNtCs6CjExPaL98u_5serde2de11Deserialize11deserializeNtB9_9___VisitorNtB1o_7Visitor10visit_enumNtB3_14___FieldVisitorB2t_11visit_bytespEBi_
FNDA:0,_RINvXNvNtNtCs7ttpGOJz6iy_13shade_oracles10interfaces4bandse_1__NtB5_16BtrReferenceDataNtNtCs6CjExPaL98u_5serde2de11Deserialize11deserializepEB9_
FNDA:0,_RNvXsm_NtNtCs7ttpGOJz6iy_13shade_oracles10interfaces4bandNtB5_13ReferenceDataNtNtCs59N989QkIgV_4core3cmp9PartialEq2neB9_
FNDA:0,_RNvXsm_NtNtCs7ttpGOJz6iy_13shade_oracles10interfaces4bandNtB5_13ReferenceDataNtNtCs59N989QkIgV_4core3cmp9PartialEq2eqB9_
FNDA:0,_RNvXs7_NtNtNtCs7ttpGOJz6iy_13shade_oracles10interfaces4band5proxyNtB5_14ConfigResponseNtNtCs59N989QkIgV_4core3cmp9PartialEq2eqBb_
FNDA:0,_RINvXs0_NvXNvNtNtNtCs7ttpGOJz6iy_13shade_oracles10interfaces4band5proxys2_1__NtBb_14ConfigResponseNtNtCs6CjExPaL98u_5serde2de11Deserialize11deserializeNtB6_9___VisitorNtB1A_7Visitor9visit_mappEBh_
FNDA:0,_RINvXNvXNvNtNtNtCs7ttpGOJz6iy_13shade_oracles10interfaces4band5proxys2_1__NtB8_14ConfigResponseNtNtCs6CjExPaL98u_5serde2de11Deserialize11deserializeNtB3_14___FieldVisitorNtB1x_7Visitor11visit_bytespEBe_
FNDA:0,_RINvXNvNtNtCs7ttpGOJz6iy_13shade_oracles10interfaces4bands8_1__NtB5_8QueryMsgNtNtCs6CjExPaL98u_5serde2de11Deserialize11deserializepEB9_
FNDA:21,_RNvNtNtCs7ttpGOJz6iy_13shade_oracles10interfaces4band14reference_data
FNDA:0,_RNvXNvXNvNtNtCs7ttpGOJz6iy_13shade_oracles10interfaces4bands8_1__NtB7_8QueryMsgNtNtCs6CjExPaL98u_5serde2de11Deserialize11deserializeNtB2_14___FieldVisitorNtB1h_7Visitor9expecting
FNDA:242,_RINvXNvNtNtCs7ttpGOJz6iy_13shade_oracles10interfaces4bandsb_1__NtB5_13ReferenceDataNtNtCs6CjExPaL98u_5serde2de11Deserialize11deserializeQNtNtCs3JYPxoBuEj2_15serde_json_wasm2de12DeserializerEB9_
FNDA:0,_RNvXs3_NvXs0_NvXNvNtNtCs7ttpGOJz6iy_13shade_oracles10interfaces4bands8_1__NtBg_8QueryMsgNtNtCs6CjExPaL98u_5serde2de11Deserialize11deserializeNtBb_9___VisitorNtB1q_7Visitor10visit_enumNtB5_s_9___VisitorB2v_9expecting
FNDA:0,_RNvXNvNtNtCs7ttpGOJz6iy_13shade_oracles10interfaces4bands0_1__NtB4_14InstantiateMsgNtCs8g2TqZEio7D_8schemars10JsonSchema11schema_name
FNDA:0,_RNvXNvXs0_NvXNvNtNtCs7ttpGOJz6iy_13shade_oracles10interfaces4bands2_1__NtBd_10ExecuteMsgNtNtCs6CjExPaL98u_5serde2de11Deserialize11deserializeNtB8_9___VisitorNtB1q_7Visitor10visit_enumNtB2_14___FieldVisitorB2v_9expecting
FNDA:30,_RINvXNvNtNtCs7ttpGOJz6iy_13shade_oracles10interfaces4bands7_1__NtB5_8QueryMsgNtNtCs6CjExPaL98u_5serde3ser9Serialize9serializeQNtNtCs3JYPxoBuEj2_15serde_json_wasm3ser10SerializerEB9_
FNDA:0,_RNvXs0_NvXNvNtNtCs7ttpGOJz6iy_13shade_oracles10interfaces4bands8_1__NtBa_8QueryMsgNtNtCs6CjExPaL98u_5serde2de11Deserialize11deserializeNtB5_9___VisitorNtB1k_7Visitor9expecting
FNDA:0,_RNvXNvNtNtCs7ttpGOJz6iy_13shade_oracles10interfaces4bands9_1__NtB4_8QueryMsgNtCs8g2TqZEio7D_8schemars10JsonSchema11schema_name
FNDA:0,_RNvXNvNtNtCs7ttpGOJz6iy_13shade_oracles10interfaces4bandsh_1__NtB4_17ReferenceDataBulkNtCs8g2TqZEio7D_8schemars10JsonSchema11schema_name
FNDA:0,_RNvXsi_NtNtCs7ttpGOJz6iy_13shade_oracles10interfaces4bandNtB5_8QueryMsgNtNtCs6wB797emF0g_15cosmwasm_schema14query_response14QueryResponses21response_schemas_impl
FNDA:0,_RNvXs0_NvXNvNtNtCs7ttpGOJz6iy_13shade_oracles10interfaces4bandse_1__NtBa_16BtrReferenceDataNtNtCs6CjExPaL98u_5serde2de11Deserialize11deserializeNtB5_9___VisitorNtB1t_7Visitor9expecting
FNDA:0,_RNvXs0_NvXs0_NvXNvNtNtCs7ttpGOJz6iy_13shade_oracles10interfaces4bands2_1__NtBg_10ExecuteMsgNtNtCs6CjExPaL98u_5serde2de11Deserialize11deserializeNtBb_9___VisitorNtB1t_7Visitor10visit_enumNtB5_9___VisitorB2y_9expecting
FNDA:0,_RNvXNvXs0_NvXNvNtNtCs7ttpGOJz6iy_13shade_oracles10interfaces4bands8_1__NtBd_8QueryMsgNtNtCs6CjExPaL98u_5serde2de11Deserialize11deserializeNtB8_9___VisitorNtB1n_7Visitor10visit_enumNtB2_14___FieldVisitorB2s_9expecting
FNDA:0,_RNvXNvXNvNtNtCs7ttpGOJz6iy_13shade_oracles10interfaces4bands_1__NtB7_14InstantiateMsgNtNtCs6CjExPaL98u_5serde2de11Deserialize11deserializeNtB2_14___FieldVisitorNtB1n_7Visitor9expecting
FNDA:0,_RNvXs0_NvXs0_NvXNvNtNtCs7ttpGOJz6iy_13shade_oracles10interfaces4bands8_1__NtBg_8QueryMsgNtNtCs6CjExPaL98u_5serde2de11Deserialize11deserializeNtBb_9___VisitorNtB1q_7Visitor10visit_enumNtB5_9___VisitorB2v_9expecting
FNDA:0,_RINvXNvNtNtCs7ttpGOJz6iy_13shade_oracles10interfaces4bandsb_1__NtB5_13ReferenceDataNtNtCs6CjExPaL98u_5serde2de11Deserialize11deserializeINtNvNtNtB1n_9___private2de13missing_field24MissingFieldDeserializerNtNtNtCs3JYPxoBuEj2_15serde_json_wasm2de6errors5ErrorEEB9_
FNDA:726,_RINvXs_NvXNvNtNtCs7ttpGOJz6iy_13shade_oracles10interfaces4bandsb_1__NtBa_13ReferenceDataNtNtCs6CjExPaL98u_5serde2de11Deserialize11deserializeNtB5_7___FieldB1o_11deserializeNtNtNtCs3JYPxoBuEj2_15serde_json_wasm2de3map6MapKeyEBe_
FNDA:0,_RNvXs3_NtNtCs7ttpGOJz6iy_13shade_oracles10interfaces4bandNtB5_14InstantiateMsgNtNtCs59N989QkIgV_4core3fmt5Debug3fmt
FNDA:0,_RNvXNvNtNtCs7ttpGOJz6iy_13shade_oracles10interfaces4bands6_1__NtB4_12HandleAnswerNtCs8g2TqZEio7D_8schemars10JsonSchema11json_schema
FNDA:0,_RNvXNvXNvNtNtCs7ttpGOJz6iy_13shade_oracles10interfaces4bands5_1__NtB7_12HandleAnswerNtNtCs6CjExPaL98u_5serde2de11Deserialize11deserializeNtB2_14___FieldVisitorNtB1m_7Visitor9expecting
FNDA:0,_RNvXNvNtNtCs7ttpGOJz6iy_13shade_oracles10interfaces4bandsc_1__NtB4_13ReferenceDataNtCs8g2TqZEio7D_8schemars10JsonSchema11json_schema
FNDA:0,_RNvXs0_NvXNvNtNtCs7ttpGOJz6iy_13shade_oracles10interfaces4bands5_1__NtBa_12HandleAnswerNtNtCs6CjExPaL98u_5serde2de11Deserialize11deserializeNtB5_9___VisitorNtB1p_7Visitor9expecting
FNDA:0,_RNvXsb_NtNtCs7ttpGOJz6iy_13shade_oracles10interfaces4bandNtB5_12HandleAnswerNtNtCs59N989QkIgV_4core3fmt5Debug3fmt
FNDA:0,_RNvXNvXNvNtNtCs7ttpGOJz6iy_13shade_oracles10interfaces4bands2_1__NtB7_10ExecuteMsgNtNtCs6CjExPaL98u_5serde2de11Deserialize11deserializeNtB2_14___FieldVisitorNtB1k_7Visitor9expecting
FNDA:242,_RINvXs0_NvXNvNtNtCs7ttpGOJz6iy_13shade_oracles10interfaces4bandsb_1__NtBb_13ReferenceDataNtNtCs6CjExPaL98u_5serde2de11Deserialize11deserializeNtB6_9___VisitorNtB1r_7Visitor9visit_mapNtNtNtCs3JYPxoBuEj2_15serde_json_wasm2de3map9MapAccessEBf_
FNDA:0,_RNvXNvNtNtCs7ttpGOJz6iy_13shade_oracles10interfaces4bands3_1__NtB4_10ExecuteMsgNtCs8g2TqZEio7D_8schemars10JsonSchema11json_schema
FNDA:0,_RNvXNvXs0_NvXNvNtNtCs7ttpGOJz6iy_13shade_oracles10interfaces4bands5_1__NtBd_12HandleAnswerNtNtCs6CjExPaL98u_5serde2de11Deserialize11deserializeNtB8_9___VisitorNtB1s_7Visitor10visit_enumNtB2_14___FieldVisitorB2x_9expecting
FNDA:0,_RNvXNvNtNtCs7ttpGOJz6iy_13shade_oracles10interfaces4bands6_1__NtB4_12HandleAnswerNtCs8g2TqZEio7D_8schemars10JsonSchema11schema_name
FNDA:0,_RNvXs7_NtNtCs7ttpGOJz6iy_13shade_oracles10interfaces4bandNtB5_10ExecuteMsgNtNtCs59N989QkIgV_4core3fmt5Debug3fmt
FNDA:0,_RNvXsk_NtNtCs7ttpGOJz6iy_13shade_oracles10interfaces4bandNtB5_13ReferenceDataNtNtCs59N989QkIgV_4core3fmt5Debug3fmt
FNDA:0,_RNvXNvXNvNtNtCs7ttpGOJz6iy_13shade_oracles10interfaces4bandsg_1__NtB7_17ReferenceDataBulkNtNtCs6CjExPaL98u_5serde2de11Deserialize11deserializeNtB2_14___FieldVisitorNtB1r_7Visitor9expecting
FNDA:0,_RNvXs0_NvXs0_NvXNvNtNtCs7ttpGOJz6iy_13shade_oracles10interfaces4bands5_1__NtBg_12HandleAnswerNtNtCs6CjExPaL98u_5serde2de11Deserialize11deserializeNtBb_9___VisitorNtB1v_7Visitor10visit_enumNtB5_9___VisitorB2A_9expecting
FNDA:0,_RNvXs0_NtNtCs7ttpGOJz6iy_13shade_oracles10interfaces4bandNtB5_16BtrReferenceDataINtNtCs59N989QkIgV_4core7convert4FromNtB5_13ReferenceDataE4from
FNDA:0,_RNvXsf_NtNtCs7ttpGOJz6iy_13shade_oracles10interfaces4bandNtB5_8QueryMsgNtNtCs59N989QkIgV_4core3fmt5Debug3fmt
FNDA:0,_RNvXss_NtNtCs7ttpGOJz6iy_13shade_oracles10interfaces4bandNtB5_17ReferenceDataBulkNtNtCs59N989QkIgV_4core3fmt5Debug3fmt
FNDA:0,_RNvXNvNtNtCs7ttpGOJz6iy_13shade_oracles10interfaces4bands3_1__NtB4_10ExecuteMsgNtCs8g2TqZEio7D_8schemars10JsonSchema11schema_name
FNDA:0,_RNvXNvNtNtCs7ttpGOJz6iy_13shade_oracles10interfaces4bandsc_1__NtB4_13ReferenceDataNtCs8g2TqZEio7D_8schemars10JsonSchema11schema_name
FNDA:0,_RNvXs1_NvXs0_NvXNvNtNtCs7ttpGOJz6iy_13shade_oracles10interfaces4bands8_1__NtBg_8QueryMsgNtNtCs6CjExPaL98u_5serde2de11Deserialize11deserializeNtBb_9___VisitorNtB1q_7Visitor10visit_enumNtB5_s_14___FieldVisitorB2v_9expecting
FNDA:0,_RNvXNvXNvNtNtCs7ttpGOJz6iy_13shade_oracles10interfaces4bandse_1__NtB7_16BtrReferenceDataNtNtCs6CjExPaL98u_5serde2de11Deserialize11deserializeNtB2_14___FieldVisitorNtB1q_7Visitor9expecting
FNDA:9,_RNvNtNtCs7ttpGOJz6iy_13shade_oracles10interfaces4band19reference_data_bulk
FNDA:0,_RNvXs0_NvXNvNtNtCs7ttpGOJz6iy_13shade_oracles10interfaces4bandsg_1__NtBa_17ReferenceDataBulkNtNtCs6CjExPaL98u_5serde2de11Deserialize11deserializeNtB5_9___VisitorNtB1u_7Visitor9expecting
FNDA:0,_RNvXs0_NvXNvNtNtCs7ttpGOJz6iy_13shade_oracles10interfaces4bands_1__NtBa_14InstantiateMsgNtNtCs6CjExPaL98u_5serde2de11Deserialize11deserializeNtB5_9___VisitorNtB1q_7Visitor9expecting
FNDA:0,_RNvXNvNtNtCs7ttpGOJz6iy_13shade_oracles10interfaces4bands0_1__NtB4_14InstantiateMsgNtCs8g2TqZEio7D_8schemars10JsonSchema11json_schema
FNDA:0,_RNvXNvNtNtCs7ttpGOJz6iy_13shade_oracles10interfaces4bands9_1__NtB4_8QueryMsgNtCs8g2TqZEio7D_8schemars10JsonSchema11json_schema
FNDA:0,_RNvXNvNtNtCs7ttpGOJz6iy_13shade_oracles10interfaces4bandsh_1__NtB4_17ReferenceDataBulkNtCs8g2TqZEio7D_8schemars10JsonSchema11json_schema
FNDA:0,_RNvXs0_NvXNvNtNtCs7ttpGOJz6iy_13shade_oracles10interfaces4bands2_1__NtBa_10ExecuteMsgNtNtCs6CjExPaL98u_5serde2de11Deserialize11deserializeNtB5_9___VisitorNtB1n_7Visitor9expecting
FNDA:0,_RNvXso_NtNtCs7ttpGOJz6iy_13shade_oracles10interfaces4bandNtB5_16BtrReferenceDataNtNtCs59N989QkIgV_4core3fmt5Debug3fmt
FNDA:0,_RNvXs0_NvXNvNtNtCs7ttpGOJz6iy_13shade_oracles10interfaces4bandsb_1__NtBa_13ReferenceDataNtNtCs6CjExPaL98u_5serde2de11Deserialize11deserializeNtB5_9___VisitorNtB1q_7Visitor9expecting
FNDA:0,_RNvXsj_NtNtCs7ttpGOJz6iy_13shade_oracles10interfaces4bandNtB5_13ReferenceDataNtNtCs59N989QkIgV_4core5clone5Clone5cloneB9_
FNDA:0,_RNvXNvXNvNtNtCs7ttpGOJz6iy_13shade_oracles10interfaces4bandsb_1__NtB7_13ReferenceDataNtNtCs6CjExPaL98u_5serde2de11Deserialize11deserializeNtB2_14___FieldVisitorNtB1n_7Visitor9expecting
FNDA:726,_RINvXNvXNvNtNtCs7ttpGOJz6iy_13shade_oracles10interfaces4bandsb_1__NtB8_13ReferenceDataNtNtCs6CjExPaL98u_5serde2de11Deserialize11deserializeNtB3_14___FieldVisitorNtB1o_7Visitor9visit_strNtNtNtCs3JYPxoBuEj2_15serde_json_wasm2de6errors5ErrorEBc_
FNDA:0,_RNvXs1_NtNtNtCs7ttpGOJz6iy_13shade_oracles10interfaces4band5proxyNtB5_14InstantiateMsgNtNtCs59N989QkIgV_4core3fmt5Debug3fmt
FNDA:0,_RNvXNvNtNtNtCs7ttpGOJz6iy_13shade_oracles10interfaces4band5proxys0_1__NtB4_14InstantiateMsgNtCs8g2TqZEio7D_8schemars10JsonSchema11schema_name
FNDA:0,_RNvXs5_NtNtNtCs7ttpGOJz6iy_13shade_oracles10interfaces4band5proxyNtB5_14ConfigResponseNtNtCs59N989QkIgV_4core3fmt5Debug3fmt
FNDA:0,_RNvXNvNtNtNtCs7ttpGOJz6iy_13shade_oracles10interfaces4band5proxys0_1__NtB4_14InstantiateMsgNtCs8g2TqZEio7D_8schemars10JsonSchema11json_schema
FNDA:0,_RNvXNvXNvNtNtNtCs7ttpGOJz6iy_13shade_oracles10interfaces4band5proxys2_1__NtB7_14ConfigResponseNtNtCs6CjExPaL98u_5serde2de11Deserialize11deserializeNtB2_14___FieldVisitorNtB1w_7Visitor9expecting
FNDA:0,_RNvXs0_NvXNvNtNtNtCs7ttpGOJz6iy_13shade_oracles10interfaces4band5proxys2_1__NtBa_14ConfigResponseNtNtCs6CjExPaL98u_5serde2de11Deserialize11deserializeNtB5_9___VisitorNtB1z_7Visitor9expecting
FNDA:0,_RNvXNvNtNtNtCs7ttpGOJz6iy_13shade_oracles10interfaces4band5proxys3_1__NtB4_14ConfigResponseNtCs8g2TqZEio7D_8schemars10JsonSchema11json_schema
FNDA:0,_RNvXs9_NtNtNtCs7ttpGOJz6iy_13shade_oracles10interfaces4band5proxyNtB5_11QuoteSymbolNtNtCs59N989QkIgV_4core3fmt5Debug3fmt
FNDA:0,_RNvXNvNtNtNtCs7ttpGOJz6iy_13shade_oracles10interfaces4band5proxys6_1__NtB4_11QuoteSymbolNtCs8g2TqZEio7D_8schemars10JsonSchema11json_schema
FNDA:0,_RNvXNvNtNtNtCs7ttpGOJz6iy_13shade_oracles10interfaces4band5proxys3_1__NtB4_14ConfigResponseNtCs8g2TqZEio7D_8schemars10JsonSchema11schema_name
FNDA:0,_RNvXNvNtNtNtCs7ttpGOJz6iy_13shade_oracles10interfaces4band5proxys6_1__NtB4_11QuoteSymbolNtCs8g2TqZEio7D_8schemars10JsonSchema11schema_name
FNDA:0,_RNvXNvXNvNtNtNtCs7ttpGOJz6iy_13shade_oracles10interfaces4band5proxys5_1__NtB7_11QuoteSymbolNtNtCs6CjExPaL98u_5serde2de11Deserialize11deserializeNtB2_9___VisitorNtB1t_7Visitor9expecting
FNDA:0,_RNvXNvXNvNtNtNtCs7ttpGOJz6iy_13shade_oracles10interfaces4band5proxys_1__NtB7_14InstantiateMsgNtNtCs6CjExPaL98u_5serde2de11Deserialize11deserializeNtB2_14___FieldVisitorNtB1v_7Visitor9expecting
FNDA:0,_RNvXs0_NvXNvNtNtNtCs7ttpGOJz6iy_13shade_oracles10interfaces4band5proxys_1__NtBa_14InstantiateMsgNtNtCs6CjExPaL98u_5serde2de11Deserialize11deserializeNtB5_9___VisitorNtB1y_7Visitor9expecting
FNDA:2,_RINvXNvNtNtCs7ttpGOJz6iy_13shade_oracles10interfaces4bandsa_1__NtB5_13ReferenceDataNtNtCs6CjExPaL98u_5serde3ser9Serialize9serializeQNtNtCs3JYPxoBuEj2_15serde_json_wasm3ser10SerializerECs19ElR1P30Zw_9mock_band
FNDA:1,_RINvXNvNtNtCs7ttpGOJz6iy_13shade_oracles10interfaces4bands4_1__NtB5_12HandleAnswerNtNtCs6CjExPaL98u_5serde3ser9Serialize9serializeQNtNtCs3JYPxoBuEj2_15serde_json_wasm3ser10SerializerECs19ElR1P30Zw_9mock_band
FNDA:0,_RNvXs7_NtNtNtCs5yQHJDQE64T_13shade_oracles10interfaces4band5proxyNtB5_14ConfigResponseNtNtCs59N989QkIgV_4core3cmp9PartialEq2eqBb_
FNDA:0,_RINvXs0_NvXNvNtNtNtCs5yQHJDQE64T_13shade_oracles10interfaces4band5proxys2_1__NtBb_14ConfigResponseNtNtCs6CjExPaL98u_5serde2de11Deserialize11deserializeNtB6_9___VisitorNtB1A_7Visitor9visit_mappEBh_
FNDA:0,_RNvXNvNtNtCs5yQHJDQE64T_13shade_oracles10interfaces4bands9_1__NtB4_8QueryMsgNtCs8g2TqZEio7D_8schemars10JsonSchema11schema_name
FNDA:0,_RNvXNvNtNtNtCs5yQHJDQE64T_13shade_oracles10interfaces4band5proxys0_1__NtB4_14InstantiateMsgNtCs8g2TqZEio7D_8schemars10JsonSchema11schema_name
FNDA:0,_RINvXNvNtNtNtCs5yQHJDQE64T_13shade_oracles10interfaces4band5proxys_1__NtB5_14InstantiateMsgNtNtCs6CjExPaL98u_5serde2de11Deserialize11deserializepEBb_
FNDA:0,_RINvXs_NvXNvNtNtCs5yQHJDQE64T_13shade_oracles10interfaces4bandse_1__NtBa_16BtrReferenceDataNtNtCs6CjExPaL98u_5serde2de11Deserialize11deserializeNtB5_7___FieldB1r_11deserializepEBe_
FNDA:0,_RNvXNvXNvNtNtCs5yQHJDQE64T_13shade_oracles10interfaces4bands8_1__NtB7_8QueryMsgNtNtCs6CjExPaL98u_5serde2de11Deserialize11deserializeNtB2_14___FieldVisitorNtB1h_7Visitor9expecting
FNDA:0,_RNvXs7_NtNtNtCs5yQHJDQE64T_13shade_oracles10interfaces4band5proxyNtB5_14ConfigResponseNtNtCs59N989QkIgV_4core3cmp9PartialEq2neBb_
FNDA:0,_RNvXNvXs0_NvXNvNtNtCs5yQHJDQE64T_13shade_oracles10interfaces4bands8_1__NtBd_8QueryMsgNtNtCs6CjExPaL98u_5serde2de11Deserialize11deserializeNtB8_9___VisitorNtB1n_7Visitor10visit_enumNtB2_14___FieldVisitorB2s_9expecting
FNDA:0,_RINvXs1_NvXs0_NvXNvNtNtCs5yQHJDQE64T_13shade_oracles10interfaces4bands8_1__NtBh_8QueryMsgNtNtCs6CjExPaL98u_5serde2de11Deserialize11deserializeNtBc_9___VisitorNtB1r_7Visitor10visit_enumNtB6_s_14___FieldVisitorB2w_9visit_strpEBl_
FNDA:0,_RNvXsj_NtNtCs5yQHJDQE64T_13shade_oracles10interfaces4bandNtB5_13ReferenceDataNtNtCs59N989QkIgV_4core5clone5Clone5cloneB9_
FNDA:0,_RNvXNvXNvNtNtCs5yQHJDQE64T_13shade_oracles10interfaces4bandse_1__NtB7_16BtrReferenceDataNtNtCs6CjExPaL98u_5serde2de11Deserialize11deserializeNtB2_14___FieldVisitorNtB1q_7Visitor9expecting
FNDA:0,_RINvXNvXs0_NvXNvNtNtCs5yQHJDQE64T_13shade_oracles10interfaces4bands2_1__NtBe_10ExecuteMsgNtNtCs6CjExPaL98u_5serde2de11Deserialize11deserializeNtB9_9___VisitorNtB1r_7Visitor10visit_enumNtB3_14___FieldVisitorB2w_11visit_bytespEBi_
FNDA:0,_RINvXNvXNvNtNtCs5yQHJDQE64T_13shade_oracles10interfaces4bandsb_1__NtB8_13ReferenceDataNtNtCs6CjExPaL98u_5serde2de11Deserialize11deserializeNtB3_14___FieldVisitorNtB1o_7Visitor9visit_u64pEBc_
FNDA:0,_RNvXNvXNvNtNtNtCs5yQHJDQE64T_13shade_oracles10interfaces4band5proxys_1__NtB7_14InstantiateMsgNtNtCs6CjExPaL98u_5serde2de11Deserialize11deserializeNtB2_14___FieldVisitorNtB1v_7Visitor9expecting
FNDA:0,_RINvXNvXNvNtNtCs5yQHJDQE64T_13shade_oracles10interfaces4bands8_1__NtB8_8QueryMsgNtNtCs6CjExPaL98u_5serde2de11Deserialize11deserializeNtB3_14___FieldVisitorNtB1i_7Visitor9visit_u64pEBc_
FNDA:0,_RNvXNvNtNtCs5yQHJDQE64T_13shade_oracles10interfaces4bands6_1__NtB4_12HandleAnswerNtCs8g2TqZEio7D_8schemars10JsonSchema11json_schema
FNDA:0,_RNvXs0_NvXNvNtNtCs5yQHJDQE64T_13shade_oracles10interfaces4bandse_1__NtBa_16BtrReferenceDataNtNtCs6CjExPaL98u_5serde2de11Deserialize11deserializeNtB5_9___VisitorNtB1t_7Visitor9expecting
FNDA:0,_RNvXs3_NtNtNtCs5yQHJDQE64T_13shade_oracles10interfaces4band5proxyNtB5_14InstantiateMsgNtNtCs59N989QkIgV_4core3cmp9PartialEq2eqBb_
FNDA:0,_RINvXNvXs0_NvXNvNtNtCs5yQHJDQE64T_13shade_oracles10interfaces4bands8_1__NtBe_8QueryMsgNtNtCs6CjExPaL98u_5serde2de11Deserialize11deserializeNtB9_9___VisitorNtB1o_7Visitor10visit_enumNtB3_14___FieldVisitorB2t_9visit_u64pEBi_
FNDA:0,_RINvXs1_NvXs0_NvXNvNtNtCs5yQHJDQE64T_13shade_oracles10interfaces4bands8_1__NtBh_8QueryMsgNtNtCs6CjExPaL98u_5serde2de11Deserialize11deserializeNtBc_9___VisitorNtB1r_7Visitor10visit_enumNtB6_s_14___FieldVisitorB2w_11visit_bytespEBl_
FNDA:0,_RINvXs_NvXNvNtNtCs5yQHJDQE64T_13shade_oracles10interfaces4bands8_1__NtBa_8QueryMsgNtNtCs6CjExPaL98u_5serde2de11Deserialize11deserializeNtB5_7___FieldB1i_11deserializepEBe_
FNDA:0,_RNvXsb_NtNtNtCs5yQHJDQE64T_13shade_oracles10interfaces4band5proxyNtB5_11QuoteSymbolNtNtCs59N989QkIgV_4core3cmp9PartialEq2eqBb_
FNDA:0,_RINvXs0_NvXs0_NvXNvNtNtCs5yQHJDQE64T_13shade_oracles10interfaces4bands2_1__NtBh_10ExecuteMsgNtNtCs6CjExPaL98u_5serde2de11Deserialize11deserializeNtBc_9___VisitorNtB1u_7Visitor10visit_enumNtB6_9___VisitorB2z_9visit_seqpEBl_
FNDA:0,_RINvXs0_NvXNvNtNtNtCs5yQHJDQE64T_13shade_oracles10interfaces4band5proxys2_1__NtBb_14ConfigResponseNtNtCs6CjExPaL98u_5serde2de11Deserialize11deserializeNtB6_9___VisitorNtB1A_7Visitor9visit_seqpEBh_
FNDA:0,_RNvXsu_NtNtCs5yQHJDQE64T_13shade_oracles10interfaces4bandNtB5_17ReferenceDataBulkNtNtCs59N989QkIgV_4core3cmp9PartialEq2neB9_
FNDA:0,_RINvXNvNtNtCs5yQHJDQE64T_13shade_oracles10interfaces4bands2_1__NtB5_10ExecuteMsgNtNtCs6CjExPaL98u_5serde2de11Deserialize11deserializepEB9_
FNDA:0,_RINvXNvXNvNtNtCs5yQHJDQE64T_13shade_oracles10interfaces4bandse_1__NtB8_16BtrReferenceDataNtNtCs6CjExPaL98u_5serde2de11Deserialize11deserializeNtB3_14___FieldVisitorNtB1r_7Visitor9visit_strpEBc_
FNDA:0,_RINvXNvXNvNtNtCs5yQHJDQE64T_13shade_oracles10interfaces4bandse_1__NtB8_16BtrReferenceDataNtNtCs6CjExPaL98u_5serde2de11Deserialize11deserializeNtB3_14___FieldVisitorNtB1r_7Visitor9visit_u64pEBc_
FNDA:0,_RINvXNvNtNtCs5yQHJDQE64T_13shade_oracles10interfaces4bands1_1__NtB5_10ExecuteMsgNtNtCs6CjExPaL98u_5serde3ser9Serialize9serializepEB9_
FNDA:0,_RINvXNvXNvNtNtCs5yQHJDQE64T_13shade_oracles10interfaces4bandsg_1__NtB8_17ReferenceDataBulkNtNtCs6CjExPaL98u_5serde2de11Deserialize11deserializeNtB3_14___FieldVisitorNtB1s_7Visitor11visit_bytespEBc_
FNDA:0,_RINvXNvNtNtCs5yQHJDQE64T_13shade_oracles10interfaces4bandsd_1__NtB5_16BtrReferenceDataNtNtCs6CjExPaL98u_5serde3ser9Serialize9serializepEB9_
FNDA:0,_RNvXNvNtNtCs5yQHJDQE64T_13shade_oracles10interfaces4bandsc_1__NtB4_13ReferenceDataNtCs8g2TqZEio7D_8schemars10JsonSchema11json_schema
FNDA:0,_RNvXNvNtNtNtCs5yQHJDQE64T_13shade_oracles10interfaces4band5proxys3_1__NtB4_14ConfigResponseNtCs8g2TqZEio7D_8schemars10JsonSchema11json_schema
FNDA:0,_RINvXNvNtNtCs5yQHJDQE64T_13shade_oracles10interfaces4bandse_1__NtB5_16BtrReferenceDataNtNtCs6CjExPaL98u_5serde2de11Deserialize11deserializepEB9_
FNDA:0,_RNvXNvNtNtNtCs5yQHJDQE64T_13shade_oracles10interfaces4band5proxys3_1__NtB4_14ConfigResponseNtCs8g2TqZEio7D_8schemars10JsonSchema11schema_name
FNDA:0,_RINvXNvXNvNtNtCs5yQHJDQE64T_13shade_oracles10interfaces4bandsb_1__NtB8_13ReferenceDataNtNtCs6CjExPaL98u_5serde2de11Deserialize11deserializeNtB3_14___FieldVisitorNtB1o_7Visitor11visit_bytespEBc_
FNDA:0,_RINvXs_NvXNvNtNtCs5yQHJDQE64T_13shade_oracles10interfaces4bandsb_1__NtBa_13ReferenceDataNtNtCs6CjExPaL98u_5serde2de11Deserialize11deserializeNtB5_7___FieldB1o_11deserializepEBe_
FNDA:0,_RNvXNvXNvNtNtCs5yQHJDQE64T_13shade_oracles10interfaces4bands2_1__NtB7_10ExecuteMsgNtNtCs6CjExPaL98u_5serde2de11Deserialize11deserializeNtB2_14___FieldVisitorNtB1k_7Visitor9expecting
FNDA:0,_RINvXNvXs0_NvXNvNtNtCs5yQHJDQE64T_13shade_oracles10interfaces4bands2_1__NtBe_10ExecuteMsgNtNtCs6CjExPaL98u_5serde2de11Deserialize11deserializeNtB9_9___VisitorNtB1r_7Visitor10visit_enumNtB3_14___FieldVisitorB2w_9visit_strpEBi_
FNDA:0,_RNvNtNtCs5yQHJDQE64T_13shade_oracles10interfaces4band14reference_data
FNDA:0,_RNvXs6_NtNtCs5yQHJDQE64T_13shade_oracles10interfaces4bandNtB5_10ExecuteMsgNtNtCs59N989QkIgV_4core5clone5Clone5cloneB9_
FNDA:0,_RINvXNvXNvNtNtCs5yQHJDQE64T_13shade_oracles10interfaces4bands_1__NtB8_14InstantiateMsgNtNtCs6CjExPaL98u_5serde2de11Deserialize11deserializeNtB3_14___FieldVisitorNtB1o_7Visitor11visit_bytespEBc_
FNDA:0,_RINvXNvXNvNtNtNtCs5yQHJDQE64T_13shade_oracles10interfaces4band5proxys5_1__NtB8_11QuoteSymbolNtNtCs6CjExPaL98u_5serde2de11Deserialize11deserializeNtB3_9___VisitorNtB1u_7Visitor9visit_seqpEBe_
FNDA:0,_RINvXNvNtNtCs5yQHJDQE64T_13shade_oracles10interfaces4bandsf_1__NtB5_17ReferenceDataBulkNtNtCs6CjExPaL98u_5serde3ser9Serialize9serializepEB9_
FNDA:0,_RNvXs3_NtNtCs5yQHJDQE64T_13shade_oracles10interfaces4bandNtB5_14InstantiateMsgNtNtCs59N989QkIgV_4core3fmt5Debug3fmt
FNDA:0,_RNvXs9_NtNtNtCs5yQHJDQE64T_13shade_oracles10interfaces4band5proxyNtB5_11QuoteSymbolNtNtCs59N989QkIgV_4core3fmt5Debug3fmt
FNDA:0,_RNvXNvNtNtCs5yQHJDQE64T_13shade_oracles10interfaces4bands3_1__NtB4_10ExecuteMsgNtCs8g2TqZEio7D_8schemars10JsonSchema11json_schema
FNDA:0,_RNvXNvNtNtNtCs5yQHJDQE64T_13shade_oracles10interfaces4band5proxys6_1__NtB4_11QuoteSymbolNtCs8g2TqZEio7D_8schemars10JsonSchema11schema_name
FNDA:0,_RINvXs_NvXNvNtNtNtCs5yQHJDQE64T_13shade_oracles10interfaces4band5proxys2_1__NtBa_14ConfigResponseNtNtCs6CjExPaL98u_5serde2de11Deserialize11deserializeNtB5_7___FieldB1x_11deserializepEBg_
FNDA:0,_RNvXs5_NtNtCs5yQHJDQE64T_13shade_oracles10interfaces4bandNtB5_14InstantiateMsgNtNtCs59N989QkIgV_4core3cmp9PartialEq2eqB9_
FNDA:0,_RINvXNvNtNtCs5yQHJDQE64T_13shade_oracles10interfaces4bands4_1__NtB5_12HandleAnswerNtNtCs6CjExPaL98u_5serde3ser9Serialize9serializepEB9_
FNDA:0,_RINvXNvXNvNtNtNtCs5yQHJDQE64T_13shade_oracles10interfaces4band5proxys_1__NtB8_14InstantiateMsgNtNtCs6CjExPaL98u_5serde2de11Deserialize11deserializeNtB3_14___FieldVisitorNtB1w_7Visitor11visit_bytespEBe_
FNDA:0,_RNvXso_NtNtCs5yQHJDQE64T_13shade_oracles10interfaces4bandNtB5_16BtrReferenceDataNtNtCs59N989QkIgV_4core3fmt5Debug3fmt
FNDA:0,_RINvXNvXNvNtNtCs5yQHJDQE64T_13shade_oracles10interfaces4bands5_1__NtB8_12HandleAnswerNtNtCs6CjExPaL98u_5serde2de11Deserialize11deserializeNtB3_14___FieldVisitorNtB1n_7Visitor11visit_bytespEBc_
FNDA:0,_RNvXsr_NtNtCs5yQHJDQE64T_13shade_oracles10interfaces4bandNtB5_17ReferenceDataBulkNtNtCs59N989QkIgV_4core5clone5Clone5cloneB9_
FNDA:0,_RINvXNvXs0_NvXNvNtNtCs5yQHJDQE64T_13shade_oracles10interfaces4bands8_1__NtBe_8QueryMsgNtNtCs6CjExPaL98u_5serde2de11Deserialize11deserializeNtB9_9___VisitorNtB1o_7Visitor10visit_enumNtB3_14___FieldVisitorB2t_9visit_strpEBi_
FNDA:0,_RNvXse_NtNtCs5yQHJDQE64T_13shade_oracles10interfaces4bandNtB5_8QueryMsgNtNtCs59N989QkIgV_4core5clone5Clone5cloneB9_
FNDA:0,_RINvXs0_NvXNvNtNtCs5yQHJDQE64T_13shade_oracles10interfaces4bandsb_1__NtBb_13ReferenceDataNtNtCs6CjExPaL98u_5serde2de11Deserialize11deserializeNtB6_9___VisitorNtB1r_7Visitor9visit_seqpEBf_
FNDA:0,_RNvXs0_NvXNvNtNtCs5yQHJDQE64T_13shade_oracles10interfaces4bands_1__NtBa_14InstantiateMsgNtNtCs6CjExPaL98u_5serde2de11Deserialize11deserializeNtB5_9___VisitorNtB1q_7Visitor9expecting
FNDA:0,_RNvXNvNtNtNtCs5yQHJDQE64T_13shade_oracles10interfaces4band5proxys6_1__NtB4_11QuoteSymbolNtCs8g2TqZEio7D_8schemars10JsonSchema11json_schema
FNDA:0,_RINvXs3_NvXs0_NvXNvNtNtCs5yQHJDQE64T_13shade_oracles10interfaces4bands8_1__NtBh_8QueryMsgNtNtCs6CjExPaL98u_5serde2de11Deserialize11deserializeNtBc_9___VisitorNtB1r_7Visitor10visit_enumNtB6_s_9___VisitorB2w_9visit_seqpEBl_
FNDA:0,_RNvXs0_NtNtNtCs5yQHJDQE64T_13shade_oracles10interfaces4band5proxyNtB5_14InstantiateMsgNtNtCs59N989QkIgV_4core5clone5Clone5cloneBb_
FNDA:0,_RINvXNvXs0_NvXNvNtNtCs5yQHJDQE64T_13shade_oracles10interfaces4bands8_1__NtBe_8QueryMsgNtNtCs6CjExPaL98u_5serde2de11Deserialize11deserializeNtB9_9___VisitorNtB1o_7Visitor10visit_enumNtB3_14___FieldVisitorB2t_11visit_bytespEBi_
FNDA:0,_RNvXNvXNvNtNtCs5yQHJDQE64T_13shade_oracles10interfaces4bandsg_1__NtB7_17ReferenceDataBulkNtNtCs6CjExPaL98u_5serde2de11Deserialize11deserializeNtB2_14___FieldVisitorNtB1r_7Visitor9expecting
FNDA:0,_RINvXs0_NvXs0_NvXNvNtNtCs5yQHJDQE64T_13shade_oracles10interfaces4bands8_1__NtBh_8QueryMsgNtNtCs6CjExPaL98u_5serde2de11Deserialize11deserializeNtBc_9___VisitorNtB1r_7Visitor10visit_enumNtB6_9___VisitorB2w_9visit_mappEBl_
FNDA:0,_RINvXs0_NvXNvNtNtCs5yQHJDQE64T_13shade_oracles10interfaces4bandsb_1__NtBb_13ReferenceDataNtNtCs6CjExPaL98u_5serde2de11Deserialize11deserializeNtB6_9___VisitorNtB1r_7Visitor9visit_mappEBf_
FNDA:0,_RINvXs_NvXNvNtNtCs5yQHJDQE64T_13shade_oracles10interfaces4bandsg_1__NtBa_17ReferenceDataBulkNtNtCs6CjExPaL98u_5serde2de11Deserialize11deserializeNtB5_7___FieldB1s_11deserializepEBe_
FNDA:0,_RINvXs0_NvXNvNtNtNtCs5yQHJDQE64T_13shade_oracles10interfaces4band5proxys_1__NtBb_14InstantiateMsgNtNtCs6CjExPaL98u_5serde2de11Deserialize11deserializeNtB6_9___VisitorNtB1z_7Visitor9visit_mappEBh_
FNDA:0,_RNvXsb_NtNtCs5yQHJDQE64T_13shade_oracles10interfaces4bandNtB5_12HandleAnswerNtNtCs59N989QkIgV_4core3fmt5Debug3fmt
FNDA:0,_RNvXsk_NtNtCs5yQHJDQE64T_13shade_oracles10interfaces4bandNtB5_13ReferenceDataNtNtCs59N989QkIgV_4core3fmt5Debug3fmt
FNDA:0,_RINvXNvXNvNtNtCs5yQHJDQE64T_13shade_oracles10interfaces4bands5_1__NtB8_12HandleAnswerNtNtCs6CjExPaL98u_5serde2de11Deserialize11deserializeNtB3_14___FieldVisitorNtB1n_7Visitor9visit_u64pEBc_
FNDA:0,_RNvXNvNtNtCs5yQHJDQE64T_13shade_oracles10interfaces4bands0_1__NtB4_14InstantiateMsgNtCs8g2TqZEio7D_8schemars10JsonSchema11json_schema
FNDA:0,_RINvXNvNtNtCs5yQHJDQE64T_13shade_oracles10interfaces4bands7_1__NtB5_8QueryMsgNtNtCs6CjExPaL98u_5serde3ser9Serialize9serializepEB9_
FNDA:0,_RINvXNvXs0_NvXNvNtNtCs5yQHJDQE64T_13shade_oracles10interfaces4bands5_1__NtBe_12HandleAnswerNtNtCs6CjExPaL98u_5serde2de11Deserialize11deserializeNtB9_9___VisitorNtB1t_7Visitor10visit_enumNtB3_14___FieldVisitorB2y_9visit_strpEBi_
FNDA:0,_RINvXs0_NvXs0_NvXNvNtNtCs5yQHJDQE64T_13shade_oracles10interfaces4bands5_1__NtBh_12HandleAnswerNtNtCs6CjExPaL98u_5serde2de11Deserialize11deserializeNtBc_9___VisitorNtB1w_7Visitor10visit_enumNtB6_9___VisitorB2B_9visit_mappEBl_
FNDA:0,_RNvXsq_NtNtCs5yQHJDQE64T_13shade_oracles10interfaces4bandNtB5_16BtrReferenceDataNtNtCs59N989QkIgV_4core3cmp9PartialEq2eqB9_
FNDA:0,_RNvXNvXNvNtNtNtCs5yQHJDQE64T_13shade_oracles10interfaces4band5proxys5_1__NtB7_11QuoteSymbolNtNtCs6CjExPaL98u_5serde2de11Deserialize11deserializeNtB2_9___VisitorNtB1t_7Visitor9expecting
FNDA:0,_RINvXNvNtNtCs5yQHJDQE64T_13shade_oracles10interfaces4bandsa_1__NtB5_13ReferenceDataNtNtCs6CjExPaL98u_5serde3ser9Serialize9serializepEB9_
FNDA:0,_RNvXNvXNvNtNtCs5yQHJDQE64T_13shade_oracles10interfaces4bands5_1__NtB7_12HandleAnswerNtNtCs6CjExPaL98u_5serde2de11Deserialize11deserializeNtB2_14___FieldVisitorNtB1m_7Visitor9expecting
FNDA:0,_RINvXNvNtNtNtCs5yQHJDQE64T_13shade_oracles10interfaces4band5proxys4_1__NtB5_11QuoteSymbolNtNtCs6CjExPaL98u_5serde3ser9Serialize9serializepEBb_
FNDA:0,_RINvXs_NvXNvNtNtCs5yQHJDQE64T_13shade_oracles10interfaces4bands5_1__NtBa_12HandleAnswerNtNtCs6CjExPaL98u_5serde2de11Deserialize11deserializeNtB5_7___FieldB1n_11deserializepEBe_
FNDA:0,_RNvXs0_NtNtCs5yQHJDQE64T_13shade_oracles10interfaces4bandNtB5_16BtrReferenceDataINtNtCs59N989QkIgV_4core7convert4FromNtB5_13ReferenceDataE4from
FNDA:0,_RINvXNvXNvNtNtCs5yQHJDQE64T_13shade_oracles10interfaces4bandsg_1__NtB8_17ReferenceDataBulkNtNtCs6CjExPaL98u_5serde2de11Deserialize11deserializeNtB3_14___FieldVisitorNtB1s_7Visitor9visit_strpEBc_
FNDA:0,_RNvXsu_NtNtCs5yQHJDQE64T_13shade_oracles10interfaces4bandNtB5_17ReferenceDataBulkNtNtCs59N989QkIgV_4core3cmp9PartialEq2eqB9_
FNDA:0,_RINvXNvNtNtNtCs5yQHJDQE64T_13shade_oracles10interfaces4band5proxys1_1__NtB5_14ConfigResponseNtNtCs6CjExPaL98u_5serde3ser9Serialize9serializepEBb_
FNDA:0,_RNvXs4_NtNtNtCs5yQHJDQE64T_13shade_oracles10interfaces4band5proxyNtB5_14ConfigResponseNtNtCs59N989QkIgV_4core5clone5Clone5cloneBb_
FNDA:0,_RNvXNvNtNtCs5yQHJDQE64T_13shade_oracles10interfaces4bands0_1__NtB4_14InstantiateMsgNtCs8g2TqZEio7D_8schemars10JsonSchema11schema_name
FNDA:0,_RNvXs0_NvXNvNtNtCs5yQHJDQE64T_13shade_oracles10interfaces4bands2_1__NtBa_10ExecuteMsgNtNtCs6CjExPaL98u_5serde2de11Deserialize11deserializeNtB5_9___VisitorNtB1n_7Visitor9expecting
FNDA:0,_RINvXNvXNvNtNtCs5yQHJDQE64T_13shade_oracles10interfaces4bands2_1__NtB8_10ExecuteMsgNtNtCs6CjExPaL98u_5serde2de11Deserialize11deserializeNtB3_14___FieldVisitorNtB1l_7Visitor11visit_bytespEBc_
FNDA:0,_RINvXs0_NvXNvNtNtCs5yQHJDQE64T_13shade_oracles10interfaces4bands_1__NtBb_14InstantiateMsgNtNtCs6CjExPaL98u_5serde2de11Deserialize11deserializeNtB6_9___VisitorNtB1r_7Visitor9visit_mappEBf_
FNDA:0,_RINvXs_NvXs0_NvXNvNtNtCs5yQHJDQE64T_13shade_oracles10interfaces4bands2_1__NtBg_10ExecuteMsgNtNtCs6CjExPaL98u_5serde2de11Deserialize11deserializeNtBb_9___VisitorNtB1t_7Visitor10visit_enumNtB5_7___FieldB1r_11deserializepEBk_
FNDA:0,_RINvXs0_NvXNvNtNtCs5yQHJDQE64T_13shade_oracles10interfaces4bandsg_1__NtBb_17ReferenceDataBulkNtNtCs6CjExPaL98u_5serde2de11Deserialize11deserializeNtB6_9___VisitorNtB1v_7Visitor9visit_mappEBf_
FNDA:0,_RNvXsd_NtNtCs5yQHJDQE64T_13shade_oracles10interfaces4bandNtB5_12HandleAnswerNtNtCs59N989QkIgV_4core3cmp9PartialEq2neB9_
FNDA:0,_RINvXs0_NvXNvNtNtCs5yQHJDQE64T_13shade_oracles10interfaces4bands8_1__NtBb_8QueryMsgNtNtCs6CjExPaL98u_5serde2de11Deserialize11deserializeNtB6_9___VisitorNtB1l_7Visitor10visit_enumpEBf_
FNDA:0,_RINvXNvXNvNtNtCs5yQHJDQE64T_13shade_oracles10interfaces4bands_1__NtB8_14InstantiateMsgNtNtCs6CjExPaL98u_5serde2de11Deserialize11deserializeNtB3_14___FieldVisitorNtB1o_7Visitor9visit_strpEBc_
FNDA:0,_RNvXs0_NvXNvNtNtNtCs5yQHJDQE64T_13shade_oracles10interfaces4band5proxys_1__NtBa_14InstantiateMsgNtNtCs6CjExPaL98u_5serde2de11Deserialize11deserializeNtB5_9___VisitorNtB1y_7Visitor9expecting
FNDA:0,_RNvXs0_NvXNvNtNtCs5yQHJDQE64T_13shade_oracles10interfaces4bands5_1__NtBa_12HandleAnswerNtNtCs6CjExPaL98u_5serde2de11Deserialize11deserializeNtB5_9___VisitorNtB1p_7Visitor9expecting
FNDA:0,_RINvXNvXNvNtNtCs5yQHJDQE64T_13shade_oracles10interfaces4bands_1__NtB8_14InstantiateMsgNtNtCs6CjExPaL98u_5serde2de11Deserialize11deserializeNtB3_14___FieldVisitorNtB1o_7Visitor9visit_u64pEBc_
FNDA:0,_RINvXs0_NvXNvNtNtCs5yQHJDQE64T_13shade_oracles10interfaces4bandsg_1__NtBb_17ReferenceDataBulkNtNtCs6CjExPaL98u_5serde2de11Deserialize11deserializeNtB6_9___VisitorNtB1v_7Visitor9visit_seqpEBf_
FNDA:0,_RINvXNvNtNtNtCs5yQHJDQE64T_13shade_oracles10interfaces4band5proxys2_1__NtB5_14ConfigResponseNtNtCs6CjExPaL98u_5serde2de11Deserialize11deserializepEBb_
FNDA:0,_RINvXNvXNvNtNtCs5yQHJDQE64T_13shade_oracles10interfaces4bands5_1__NtB8_12HandleAnswerNtNtCs6CjExPaL98u_5serde2de11Deserialize11deserializeNtB3_14___FieldVisitorNtB1n_7Visitor9visit_strpEBc_
FNDA:0,_RNvXsn_NtNtCs5yQHJDQE64T_13shade_oracles10interfaces4bandNtB5_16BtrReferenceDataNtNtCs59N989QkIgV_4core5clone5Clone5cloneB9_
FNDA:0,_RINvXNvXs0_NvXNvNtNtCs5yQHJDQE64T_13shade_oracles10interfaces4bands5_1__NtBe_12HandleAnswerNtNtCs6CjExPaL98u_5serde2de11Deserialize11deserializeNtB9_9___VisitorNtB1t_7Visitor10visit_enumNtB3_14___FieldVisitorB2y_11visit_bytespEBi_
FNDA:0,_RINvXNvNtNtCs5yQHJDQE64T_13shade_oracles10interfaces4bands8_1__NtB5_8QueryMsgNtNtCs6CjExPaL98u_5serde2de11Deserialize11deserializepEB9_
FNDA:0,_RNvXss_NtNtCs5yQHJDQE64T_13shade_oracles10interfaces4bandNtB5_17ReferenceDataBulkNtNtCs59N989QkIgV_4core3fmt5Debug3fmt
FNDA:0,_RNvXNvNtNtCs5yQHJDQE64T_13shade_oracles10interfaces4bands3_1__NtB4_10ExecuteMsgNtCs8g2TqZEio7D_8schemars10JsonSchema11schema_name
FNDA:0,_RNvXNvXs0_NvXNvNtNtCs5yQHJDQE64T_13shade_oracles10interfaces4bands2_1__NtBd_10ExecuteMsgNtNtCs6CjExPaL98u_5serde2de11Deserialize11deserializeNtB8_9___VisitorNtB1q_7Visitor10visit_enumNtB2_14___FieldVisitorB2v_9expecting
FNDA:0,_RNvXsh_NtNtCs5yQHJDQE64T_13shade_oracles10interfaces4bandNtB5_8QueryMsgNtNtCs59N989QkIgV_4core3cmp9PartialEq2eqB9_
FNDA:0,_RINvXNvNtNtCs5yQHJDQE64T_13shade_oracles10interfaces4bands5_1__NtB5_12HandleAnswerNtNtCs6CjExPaL98u_5serde2de11Deserialize11deserializepEB9_
FNDA:0,_RNvXs0_NvXNvNtNtNtCs5yQHJDQE64T_13shade_oracles10interfaces4band5proxys2_1__NtBa_14ConfigResponseNtNtCs6CjExPaL98u_5serde2de11Deserialize11deserializeNtB5_9___VisitorNtB1z_7Visitor9expecting
FNDA:0,_RNvXs5_NtNtNtCs5yQHJDQE64T_13shade_oracles10interfaces4band5proxyNtB5_14ConfigResponseNtNtCs59N989QkIgV_4core3fmt5Debug3fmt
FNDA:0,_RINvXs0_NvXs0_NvXNvNtNtCs5yQHJDQE64T_13shade_oracles10interfaces4bands2_1__NtBh_10ExecuteMsgNtNtCs6CjExPaL98u_5serde2de11Deserialize11deserializeNtBc_9___VisitorNtB1u_7Visitor10visit_enumNtB6_9___VisitorB2z_9visit_mappEBl_
FNDA:0,_RINvXs2_NvXs0_NvXNvNtNtCs5yQHJDQE64T_13shade_oracles10interfaces4bands8_1__NtBh_8QueryMsgNtNtCs6CjExPaL98u_5serde2de11Deserialize11deserializeNtBc_9___VisitorNtB1r_7Visitor10visit_enumNtB6_s_7___FieldB1p_11deserializepEBl_
FNDA:0,_RNvXNvNtNtCs5yQHJDQE64T_13shade_oracles10interfaces4bandsh_1__NtB4_17ReferenceDataBulkNtCs8g2TqZEio7D_8schemars10JsonSchema11json_schema
FNDA:0,_RNvXs3_NtNtNtCs5yQHJDQE64T_13shade_oracles10interfaces4band5proxyNtB5_14InstantiateMsgNtNtCs59N989QkIgV_4core3cmp9PartialEq2neBb_
FNDA:0,_RINvXNvXNvNtNtCs5yQHJDQE64T_13shade_oracles10interfaces4bands8_1__NtB8_8QueryMsgNtNtCs6CjExPaL98u_5serde2de11Deserialize11deserializeNtB3_14___FieldVisitorNtB1i_7Visitor11visit_bytespEBc_
FNDA:0,_RINvXNvNtNtNtCs5yQHJDQE64T_13shade_oracles10interfaces4band5proxy1__NtB5_14InstantiateMsgNtNtCs6CjExPaL98u_5serde3ser9Serialize9serializepEBb_
FNDA:0,_RNvXs2_NtNtCs5yQHJDQE64T_13shade_oracles10interfaces4bandNtB5_14InstantiateMsgNtNtCs59N989QkIgV_4core5clone5Clone5cloneB9_
FNDA:0,_RNvXs0_NvXs0_NvXNvNtNtCs5yQHJDQE64T_13shade_oracles10interfaces4bands2_1__NtBg_10ExecuteMsgNtNtCs6CjExPaL98u_5serde2de11Deserialize11deserializeNtBb_9___VisitorNtB1t_7Visitor10visit_enumNtB5_9___VisitorB2y_9expecting
FNDA:0,_RINvXNvNtNtCs5yQHJDQE64T_13shade_oracles10interfaces4bands_1__NtB5_14InstantiateMsgNtNtCs6CjExPaL98u_5serde2de11Deserialize11deserializepEB9_
FNDA:0,_RNvXNvNtNtCs5yQHJDQE64T_13shade_oracles10interfaces4bands6_1__NtB4_12HandleAnswerNtCs8g2TqZEio7D_8schemars10JsonSchema11schema_name
FNDA:0,_RNvXsf_NtNtCs5yQHJDQE64T_13shade_oracles10interfaces4bandNtB5_8QueryMsgNtNtCs59N989QkIgV_4core3fmt5Debug3fmt
FNDA:0,_RINvXNvXNvNtNtNtCs5yQHJDQE64T_13shade_oracles10interfaces4band5proxys2_1__NtB8_14ConfigResponseNtNtCs6CjExPaL98u_5serde2de11Deserialize11deserializeNtB3_14___FieldVisitorNtB1x_7Visitor11visit_bytespEBe_
FNDA:0,_RINvXs0_NvXNvNtNtCs5yQHJDQE64T_13shade_oracles10interfaces4bandse_1__NtBb_16BtrReferenceDataNtNtCs6CjExPaL98u_5serde2de11Deserialize11deserializeNtB6_9___VisitorNtB1u_7Visitor9visit_seqpEBf_
FNDA:0,_RNvXs3_NvXs0_NvXNvNtNtCs5yQHJDQE64T_13shade_oracles10interfaces4bands8_1__NtBg_8QueryMsgNtNtCs6CjExPaL98u_5serde2de11Deserialize11deserializeNtBb_9___VisitorNtB1q_7Visitor10visit_enumNtB5_s_9___VisitorB2v_9expecting
FNDA:0,_RINvXs_NvXNvNtNtCs5yQHJDQE64T_13shade_oracles10interfaces4bands2_1__NtBa_10ExecuteMsgNtNtCs6CjExPaL98u_5serde2de11Deserialize11deserializeNtB5_7___FieldB1l_11deserializepEBe_
FNDA:0,_RNvXNvXNvNtNtCs5yQHJDQE64T_13shade_oracles10interfaces4bands_1__NtB7_14InstantiateMsgNtNtCs6CjExPaL98u_5serde2de11Deserialize11deserializeNtB2_14___FieldVisitorNtB1n_7Visitor9expecting
FNDA:0,_RINvXNvXNvNtNtNtCs5yQHJDQE64T_13shade_oracles10interfaces4band5proxys_1__NtB8_14InstantiateMsgNtNtCs6CjExPaL98u_5serde2de11Deserialize11deserializeNtB3_14___FieldVisitorNtB1w_7Visitor9visit_u64pEBe_
FNDA:0,_RNvXs0_NvXNvNtNtCs5yQHJDQE64T_13shade_oracles10interfaces4bandsg_1__NtBa_17ReferenceDataBulkNtNtCs6CjExPaL98u_5serde2de11Deserialize11deserializeNtB5_9___VisitorNtB1u_7Visitor9expecting
FNDA:0,_RINvXNvNtNtNtCs5yQHJDQE64T_13shade_oracles10interfaces4band5proxys5_1__NtB5_11QuoteSymbolNtNtCs6CjExPaL98u_5serde2de11Deserialize11deserializepEBb_
FNDA:0,_RNvXNvXNvNtNtNtCs5yQHJDQE64T_13shade_oracles10interfaces4band5proxys2_1__NtB7_14ConfigResponseNtNtCs6CjExPaL98u_5serde2de11Deserialize11deserializeNtB2_14___FieldVisitorNtB1w_7Visitor9expecting
FNDA:0,_RINvXs_NvXNvNtNtNtCs5yQHJDQE64T_13shade_oracles10interfaces4band5proxys_1__NtBa_14InstantiateMsgNtNtCs6CjExPaL98u_5serde2de11Deserialize11deserializeNtB5_7___FieldB1w_11deserializepEBg_
FNDA:0,_RNvXNvNtNtCs5yQHJDQE64T_13shade_oracles10interfaces4bands9_1__NtB4_8QueryMsgNtCs8g2TqZEio7D_8schemars10JsonSchema11json_schema
FNDA:0,_RINvXs0_NvXNvNtNtCs5yQHJDQE64T_13shade_oracles10interfaces4bands_1__NtBb_14InstantiateMsgNtNtCs6CjExPaL98u_5serde2de11Deserialize11deserializeNtB6_9___VisitorNtB1r_7Visitor9visit_seqpEBf_
FNDA:0,_RNvXs1_NtNtNtCs5yQHJDQE64T_13shade_oracles10interfaces4band5proxyNtB5_14InstantiateMsgNtNtCs59N989QkIgV_4core3fmt5Debug3fmt
FNDA:0,_RNvXs0_NvXNvNtNtCs5yQHJDQE64T_13shade_oracles10interfaces4bandsb_1__NtBa_13ReferenceDataNtNtCs6CjExPaL98u_5serde2de11Deserialize11deserializeNtB5_9___VisitorNtB1q_7Visitor9expecting
FNDA:0,_RNvXsi_NtNtCs5yQHJDQE64T_13shade_oracles10interfaces4bandNtB5_8QueryMsgNtNtCs6wB797emF0g_15cosmwasm_schema14query_response14QueryResponses21response_schemas_impl
FNDA:0,_RINvXs_NvXNvNtNtCs5yQHJDQE64T_13shade_oracles10interfaces4bands_1__NtBa_14InstantiateMsgNtNtCs6CjExPaL98u_5serde2de11Deserialize11deserializeNtB5_7___FieldB1o_11deserializepEBe_
FNDA:0,_RINvXs_NvXs0_NvXNvNtNtCs5yQHJDQE64T_13shade_oracles10interfaces4bands5_1__NtBg_12HandleAnswerNtNtCs6CjExPaL98u_5serde2de11Deserialize11deserializeNtBb_9___VisitorNtB1v_7Visitor10visit_enumNtB5_7___FieldB1t_11deserializepEBk_
FNDA:0,_RNvXs0_NvXs0_NvXNvNtNtCs5yQHJDQE64T_13shade_oracles10interfaces4bands5_1__NtBg_12HandleAnswerNtNtCs6CjExPaL98u_5serde2de11Deserialize11deserializeNtBb_9___VisitorNtB1v_7Visitor10visit_enumNtB5_9___VisitorB2A_9expecting
FNDA:0,_RNvXs9_NtNtCs5yQHJDQE64T_13shade_oracles10interfaces4bandNtB5_10ExecuteMsgNtNtCs59N989QkIgV_4core3cmp9PartialEq2neB9_
FNDA:0,_RINvXNvXNvNtNtNtCs5yQHJDQE64T_13shade_oracles10interfaces4band5proxys2_1__NtB8_14ConfigResponseNtNtCs6CjExPaL98u_5serde2de11Deserialize11deserializeNtB3_14___FieldVisitorNtB1x_7Visitor9visit_u64pEBe_
FNDA:0,_RINvXNvXNvNtNtCs5yQHJDQE64T_13shade_oracles10interfaces4bands2_1__NtB8_10ExecuteMsgNtNtCs6CjExPaL98u_5serde2de11Deserialize11deserializeNtB3_14___FieldVisitorNtB1l_7Visitor9visit_strpEBc_
FNDA:0,_RINvXNvNtNtCs5yQHJDQE64T_13shade_oracles10interfaces4bandsb_1__NtB5_13ReferenceDataNtNtCs6CjExPaL98u_5serde2de11Deserialize11deserializepEB9_
FNDA:0,_RNvXsh_NtNtCs5yQHJDQE64T_13shade_oracles10interfaces4bandNtB5_8QueryMsgNtNtCs59N989QkIgV_4core3cmp9PartialEq2neB9_
FNDA:0,_RINvXNvNtNtCs5yQHJDQE64T_13shade_oracles10interfaces4bandsg_1__NtB5_17ReferenceDataBulkNtNtCs6CjExPaL98u_5serde2de11Deserialize11deserializepEB9_
FNDA:0,_RINvXNvXNvNtNtCs5yQHJDQE64T_13shade_oracles10interfaces4bands8_1__NtB8_8QueryMsgNtNtCs6CjExPaL98u_5serde2de11Deserialize11deserializeNtB3_14___FieldVisitorNtB1i_7Visitor9visit_strpEBc_
FNDA:0,_RNvXsq_NtNtCs5yQHJDQE64T_13shade_oracles10interfaces4bandNtB5_16BtrReferenceDataNtNtCs59N989QkIgV_4core3cmp9PartialEq2neB9_
FNDA:0,_RINvXs0_NvXNvNtNtCs5yQHJDQE64T_13shade_oracles10interfaces4bands2_1__NtBb_10ExecuteMsgNtNtCs6CjExPaL98u_5serde2de11Deserialize11deserializeNtB6_9___VisitorNtB1o_7Visitor10visit_enumpEBf_
FNDA:0,_RINvXNvNtNtCs5yQHJDQE64T_13shade_oracles10interfaces4band1__NtB5_14InstantiateMsgNtNtCs6CjExPaL98u_5serde3ser9Serialize9serializepEB9_
FNDA:0,_RINvXs0_NvXNvNtNtCs5yQHJDQE64T_13shade_oracles10interfaces4bandse_1__NtBb_16BtrReferenceDataNtNtCs6CjExPaL98u_5serde2de11Deserialize11deserializeNtB6_9___VisitorNtB1u_7Visitor9visit_mappEBf_
FNDA:0,_RNvXsb_NtNtNtCs5yQHJDQE64T_13shade_oracles10interfaces4band5proxyNtB5_11QuoteSymbolNtNtCs59N989QkIgV_4core3cmp9PartialEq2neBb_
FNDA:0,_RINvXNvXNvNtNtCs5yQHJDQE64T_13shade_oracles10interfaces4bandse_1__NtB8_16BtrReferenceDataNtNtCs6CjExPaL98u_5serde2de11Deserialize11deserializeNtB3_14___FieldVisitorNtB1r_7Visitor11visit_bytespEBc_
FNDA:0,_RINvXs0_NvXNvNtNtNtCs5yQHJDQE64T_13shade_oracles10interfaces4band5proxys_1__NtBb_14InstantiateMsgNtNtCs6CjExPaL98u_5serde2de11Deserialize11deserializeNtB6_9___VisitorNtB1z_7Visitor9visit_seqpEBh_
FNDA:0,_RINvXNvXNvNtNtNtCs5yQHJDQE64T_13shade_oracles10interfaces4band5proxys5_1__NtB8_11QuoteSymbolNtNtCs6CjExPaL98u_5serde2de11Deserialize11deserializeNtB3_9___VisitorNtB1u_7Visitor20visit_newtype_structpEBe_
FNDA:0,_RINvXNvXNvNtNtNtCs5yQHJDQE64T_13shade_oracles10interfaces4band5proxys_1__NtB8_14InstantiateMsgNtNtCs6CjExPaL98u_5serde2de11Deserialize11deserializeNtB3_14___FieldVisitorNtB1w_7Visitor9visit_strpEBe_
FNDA:0,_RINvXs_NvXs0_NvXNvNtNtCs5yQHJDQE64T_13shade_oracles10interfaces4bands8_1__NtBg_8QueryMsgNtNtCs6CjExPaL98u_5serde2de11Deserialize11deserializeNtBb_9___VisitorNtB1q_7Visitor10visit_enumNtB5_7___FieldB1o_11deserializepEBk_
FNDA:0,_RINvXs0_NvXNvNtNtCs5yQHJDQE64T_13shade_oracles10interfaces4bands5_1__NtBb_12HandleAnswerNtNtCs6CjExPaL98u_5serde2de11Deserialize11deserializeNtB6_9___VisitorNtB1q_7Visitor10visit_enumpEBf_
FNDA:0,_RINvXs3_NvXs0_NvXNvNtNtCs5yQHJDQE64T_13shade_oracles10interfaces4bands8_1__NtBh_8QueryMsgNtNtCs6CjExPaL98u_5serde2de11Deserialize11deserializeNtBc_9___VisitorNtB1r_7Visitor10visit_enumNtB6_s_9___VisitorB2w_9visit_mappEBl_
FNDA:0,_RNvXs0_NvXNvNtNtCs5yQHJDQE64T_13shade_oracles10interfaces4bands8_1__NtBa_8QueryMsgNtNtCs6CjExPaL98u_5serde2de11Deserialize11deserializeNtB5_9___VisitorNtB1k_7Visitor9expecting
FNDA:0,_RNvXs0_NvXs0_NvXNvNtNtCs5yQHJDQE64T_13shade_oracles10interfaces4bands8_1__NtBg_8QueryMsgNtNtCs6CjExPaL98u_5serde2de11Deserialize11deserializeNtBb_9___VisitorNtB1q_7Visitor10visit_enumNtB5_9___VisitorB2v_9expecting
FNDA:0,_RNvXNvNtNtCs5yQHJDQE64T_13shade_oracles10interfaces4bandsh_1__NtB4_17ReferenceDataBulkNtCs8g2TqZEio7D_8schemars10JsonSchema11schema_name
FNDA:0,_RINvXs1_NvXs0_NvXNvNtNtCs5yQHJDQE64T_13shade_oracles10interfaces4bands8_1__NtBh_8QueryMsgNtNtCs6CjExPaL98u_5serde2de11Deserialize11deserializeNtBc_9___VisitorNtB1r_7Visitor10visit_enumNtB6_s_14___FieldVisitorB2w_9visit_u64pEBl_
FNDA:0,_RNvXsd_NtNtCs5yQHJDQE64T_13shade_oracles10interfaces4bandNtB5_12HandleAnswerNtNtCs59N989QkIgV_4core3cmp9PartialEq2eqB9_
FNDA:0,_RINvXs0_NvXs0_NvXNvNtNtCs5yQHJDQE64T_13shade_oracles10interfaces4bands8_1__NtBh_8QueryMsgNtNtCs6CjExPaL98u_5serde2de11Deserialize11deserializeNtBc_9___VisitorNtB1r_7Visitor10visit_enumNtB6_9___VisitorB2w_9visit_seqpEBl_
FNDA:0,_RNvXs7_NtNtCs5yQHJDQE64T_13shade_oracles10interfaces4bandNtB5_10ExecuteMsgNtNtCs59N989QkIgV_4core3fmt5Debug3fmt
FNDA:0,_RINvXNvXNvNtNtCs5yQHJDQE64T_13shade_oracles10interfaces4bands2_1__NtB8_10ExecuteMsgNtNtCs6CjExPaL98u_5serde2de11Deserialize11deserializeNtB3_14___FieldVisitorNtB1l_7Visitor9visit_u64pEBc_
FNDA:0,_RNvNtNtCs5yQHJDQE64T_13shade_oracles10interfaces4band19reference_data_bulk
FNDA:0,_RNvXNvXs0_NvXNvNtNtCs5yQHJDQE64T_13shade_oracles10interfaces4bands5_1__NtBd_12HandleAnswerNtNtCs6CjExPaL98u_5serde2de11Deserialize11deserializeNtB8_9___VisitorNtB1s_7Visitor10visit_enumNtB2_14___FieldVisitorB2x_9expecting
FNDA:0,_RNvXs8_NtNtNtCs5yQHJDQE64T_13shade_oracles10interfaces4band5proxyNtB5_11QuoteSymbolNtNtCs59N989QkIgV_4core5clone5Clone5cloneBb_
FNDA:0,_RNvXs9_NtNtCs5yQHJDQE64T_13shade_oracles10interfaces4bandNtB5_10ExecuteMsgNtNtCs59N989QkIgV_4core3cmp9PartialEq2eqB9_
FNDA:0,_RNvXs1_NvXs0_NvXNvNtNtCs5yQHJDQE64T_13shade_oracles10interfaces4bands8_1__NtBg_8QueryMsgNtNtCs6CjExPaL98u_5serde2de11Deserialize11deserializeNtBb_9___VisitorNtB1q_7Visitor10visit_enumNtB5_s_14___FieldVisitorB2v_9expecting
FNDA:0,_RINvXNvXNvNtNtCs5yQHJDQE64T_13shade_oracles10interfaces4bandsg_1__NtB8_17ReferenceDataBulkNtNtCs6CjExPaL98u_5serde2de11Deserialize11deserializeNtB3_14___FieldVisitorNtB1s_7Visitor9visit_u64pEBc_
FNDA:0,_RNvXsa_NtNtCs5yQHJDQE64T_13shade_oracles10interfaces4bandNtB5_12HandleAnswerNtNtCs59N989QkIgV_4core5clone5Clone5cloneB9_
FNDA:0,_RINvXNvXNvNtNtCs5yQHJDQE64T_13shade_oracles10interfaces4bandsb_1__NtB8_13ReferenceDataNtNtCs6CjExPaL98u_5serde2de11Deserialize11deserializeNtB3_14___FieldVisitorNtB1o_7Visitor9visit_strpEBc_
FNDA:0,_RINvXNvXNvNtNtNtCs5yQHJDQE64T_13shade_oracles10interfaces4band5proxys2_1__NtB8_14ConfigResponseNtNtCs6CjExPaL98u_5serde2de11Deserialize11deserializeNtB3_14___FieldVisitorNtB1x_7Visitor9visit_strpEBe_
FNDA:0,_RNvXNvNtNtNtCs5yQHJDQE64T_13shade_oracles10interfaces4band5proxys0_1__NtB4_14InstantiateMsgNtCs8g2TqZEio7D_8schemars10JsonSchema11json_schema
FNDA:0,_RNvXsm_NtNtCs5yQHJDQE64T_13shade_oracles10interfaces4bandNtB5_13ReferenceDataNtNtCs59N989QkIgV_4core3cmp9PartialEq2neB9_
FNDA:0,_RINvXNvXs0_NvXNvNtNtCs5yQHJDQE64T_13shade_oracles10interfaces4bands2_1__NtBe_10ExecuteMsgNtNtCs6CjExPaL98u_5serde2de11Deserialize11deserializeNtB9_9___VisitorNtB1r_7Visitor10visit_enumNtB3_14___FieldVisitorB2w_9visit_u64pEBi_
FNDA:0,_RNvXsm_NtNtCs5yQHJDQE64T_13shade_oracles10interfaces4bandNtB5_13ReferenceDataNtNtCs59N989QkIgV_4core3cmp9PartialEq2eqB9_
FNDA:0,_RINvXs0_NvXs0_NvXNvNtNtCs5yQHJDQE64T_13shade_oracles10interfaces4bands5_1__NtBh_12HandleAnswerNtNtCs6CjExPaL98u_5serde2de11Deserialize11deserializeNtBc_9___VisitorNtB1w_7Visitor10visit_enumNtB6_9___VisitorB2B_9visit_seqpEBl_
FNDA:0,_RNvXNvNtNtCs5yQHJDQE64T_13shade_oracles10interfaces4bandsc_1__NtB4_13ReferenceDataNtCs8g2TqZEio7D_8schemars10JsonSchema11schema_name
FNDA:0,_RNvXNvXNvNtNtCs5yQHJDQE64T_13shade_oracles10interfaces4bandsb_1__NtB7_13ReferenceDataNtNtCs6CjExPaL98u_5serde2de11Deserialize11deserializeNtB2_14___FieldVisitorNtB1n_7Visitor9expecting
FNDA:0,_RINvXNvXs0_NvXNvNtNtCs5yQHJDQE64T_13shade_oracles10interfaces4bands5_1__NtBe_12HandleAnswerNtNtCs6CjExPaL98u_5serde2de11Deserialize11deserializeNtB9_9___VisitorNtB1t_7Visitor10visit_enumNtB3_14___FieldVisitorB2y_9visit_u64pEBi_
FNF:18
FNH:9
DA:12,11
DA:19,480
DA:33,41
DA:38,240
DA:39,0
DA:40,0
DA:53,1902
DA:61,0
DA:62,0
DA:63,0
DA:64,0
DA:65,0
DA:66,0
DA:67,0
DA:70,0
DA:77,0
DA:86,21
DA:87,21
DA:88,21
DA:89,21
DA:90,21
DA:91,21
DA:92,21
DA:93,21
DA:94,21
DA:95,21
DA:96,21
DA:97,21
DA:99,9
DA:100,9
DA:101,9
DA:102,9
DA:103,9
DA:104,9
DA:105,9
DA:106,9
DA:107,9
DA:108,9
DA:109,9
DA:110,9
DA:119,88
DA:126,0
DA:132,24
BRF:0
BRH:0
LF:47
LH:31
end_of_record
SF:/Users/saverypop/Documents/programming/secret-network/shade/oracles/packages/shade_oracles/src/interfaces/common/mod.rs
FN:58,_RINvXs0_NvXs0_NvXNvNtNtCs7ttpGOJz6iy_13shade_oracles10interfaces6commonsb_1__NtBh_10ExecuteMsgNtNtCs6CjExPaL98u_5serde2de11Deserialize11deserializeNtBc_9___VisitorNtB1w_7Visitor10visit_enumNtB6_9___VisitorB2B_9visit_mapNtNtNtCs3JYPxoBuEj2_15serde_json_wasm2de3map9MapAccessECsgkmnL3Ab2bX_24shade_oracles_multi_test
FN:58,_RINvXNvNtNtCs7ttpGOJz6iy_13shade_oracles10interfaces6commonsb_1__NtB5_10ExecuteMsgNtNtCs6CjExPaL98u_5serde2de11Deserialize11deserializeQNtNtCs3JYPxoBuEj2_15serde_json_wasm2de12DeserializerECsgkmnL3Ab2bX_24shade_oracles_multi_test
FN:58,_RINvXs0_NvXNvNtNtCs7ttpGOJz6iy_13shade_oracles10interfaces6commonsb_1__NtBb_10ExecuteMsgNtNtCs6CjExPaL98u_5serde2de11Deserialize11deserializeNtB6_9___VisitorNtB1q_7Visitor10visit_enumNtNtNtCs3JYPxoBuEj2_15serde_json_wasm2de5enum_17UnitVariantAccessECsgkmnL3Ab2bX_24shade_oracles_multi_test
FN:80,_RINvXNvNtNtCs7ttpGOJz6iy_13shade_oracles10interfaces6commonsg_1__NtB5_23InstantiateCommonConfigNtNtCs6CjExPaL98u_5serde3ser9Serialize9serializeQNtNtCs3JYPxoBuEj2_15serde_json_wasm3ser10SerializerECsgkmnL3Ab2bX_24shade_oracles_multi_test
FN:63,_RINvXs0_NvXNvNtNtCs7ttpGOJz6iy_13shade_oracles10interfaces6commonse_1__NtBb_13ConfigUpdatesNtNtCs6CjExPaL98u_5serde2de11Deserialize11deserializeNtB6_9___VisitorNtB1t_7Visitor9visit_mapNtNtNtCs3JYPxoBuEj2_15serde_json_wasm2de3map9MapAccessECsgkmnL3Ab2bX_24shade_oracles_multi_test
FN:63,_RINvXs_NvXNvNtNtCs7ttpGOJz6iy_13shade_oracles10interfaces6commonse_1__NtBa_13ConfigUpdatesNtNtCs6CjExPaL98u_5serde2de11Deserialize11deserializeNtB5_7___FieldB1q_11deserializeNtNtNtCs3JYPxoBuEj2_15serde_json_wasm2de3map6MapKeyECsgkmnL3Ab2bX_24shade_oracles_multi_test
FN:26,_RINvXNvXs0_NvXNvNtNtCs7ttpGOJz6iy_13shade_oracles10interfaces6commons_1__NtBe_11OracleQueryNtNtCs6CjExPaL98u_5serde2de11Deserialize11deserializeNtB9_9___VisitorNtB1t_7Visitor10visit_enumNtB3_14___FieldVisitorB2y_9visit_strNtNtNtCs3JYPxoBuEj2_15serde_json_wasm2de6errors5ErrorECsgkmnL3Ab2bX_24shade_oracles_multi_test
FN:26,_RINvXs2_NvXs0_NvXNvNtNtCs7ttpGOJz6iy_13shade_oracles10interfaces6commons_1__NtBh_11OracleQueryNtNtCs6CjExPaL98u_5serde2de11Deserialize11deserializeNtBc_9___VisitorNtB1w_7Visitor10visit_enumNtB6_s_7___FieldB1u_11deserializeNtNtNtCs3JYPxoBuEj2_15serde_json_wasm2de3map6MapKeyECsgkmnL3Ab2bX_24shade_oracles_multi_test
FN:26,_RINvXs5_NvXs0_NvXNvNtNtCs7ttpGOJz6iy_13shade_oracles10interfaces6commons_1__NtBh_11OracleQueryNtNtCs6CjExPaL98u_5serde2de11Deserialize11deserializeNtBc_9___VisitorNtB1w_7Visitor10visit_enumNtB6_s0_7___FieldB1u_11deserializeNtNtNtCs3JYPxoBuEj2_15serde_json_wasm2de3map6MapKeyECsgkmnL3Ab2bX_24shade_oracles_multi_test
FN:26,_RINvXs0_NvXs0_NvXNvNtNtCs7ttpGOJz6iy_13shade_oracles10interfaces6commons_1__NtBh_11OracleQueryNtNtCs6CjExPaL98u_5serde2de11Deserialize11deserializeNtBc_9___VisitorNtB1w_7Visitor10visit_enumNtB6_9___VisitorB2B_9visit_mapNtNtNtCs3JYPxoBuEj2_15serde_json_wasm2de3map9MapAccessECsgkmnL3Ab2bX_24shade_oracles_multi_test
FN:26,_RINvXs_NvXs0_NvXNvNtNtCs7ttpGOJz6iy_13shade_oracles10interfaces6commons_1__NtBg_11OracleQueryNtNtCs6CjExPaL98u_5serde2de11Deserialize11deserializeNtBb_9___VisitorNtB1v_7Visitor10visit_enumNtB5_7___FieldB1t_11deserializeNtNtNtCs3JYPxoBuEj2_15serde_json_wasm2de3map6MapKeyECsgkmnL3Ab2bX_24shade_oracles_multi_test
FN:58,_RINvXNvXNvNtNtCs7ttpGOJz6iy_13shade_oracles10interfaces6commonsb_1__NtB8_10ExecuteMsgNtNtCs6CjExPaL98u_5serde2de11Deserialize11deserializeNtB3_14___FieldVisitorNtB1n_7Visitor9visit_strNtNtNtCs3JYPxoBuEj2_15serde_json_wasm2de6errors5ErrorECsgkmnL3Ab2bX_24shade_oracles_multi_test
FN:26,_RINvXNvXNvNtNtCs7ttpGOJz6iy_13shade_oracles10interfaces6commons_1__NtB8_11OracleQueryNtNtCs6CjExPaL98u_5serde2de11Deserialize11deserializeNtB3_14___FieldVisitorNtB1n_7Visitor9visit_strNtNtNtCs3JYPxoBuEj2_15serde_json_wasm2de6errors5ErrorECsgkmnL3Ab2bX_24shade_oracles_multi_test
FN:26,_RINvXs3_NvXs0_NvXNvNtNtCs7ttpGOJz6iy_13shade_oracles10interfaces6commons_1__NtBh_11OracleQueryNtNtCs6CjExPaL98u_5serde2de11Deserialize11deserializeNtBc_9___VisitorNtB1w_7Visitor10visit_enumNtB6_s_9___VisitorB2B_9visit_mapNtNtNtCs3JYPxoBuEj2_15serde_json_wasm2de3map9MapAccessECsgkmnL3Ab2bX_24shade_oracles_multi_test
FN:80,_RINvXNvNtNtCs7ttpGOJz6iy_13shade_oracles10interfaces6commonsh_1__NtB5_23InstantiateCommonConfigNtNtCs6CjExPaL98u_5serde2de11Deserialize11deserializeQNtNtCs3JYPxoBuEj2_15serde_json_wasm2de12DeserializerECsgkmnL3Ab2bX_24shade_oracles_multi_test
FN:26,_RINvXs6_NvXs0_NvXNvNtNtCs7ttpGOJz6iy_13shade_oracles10interfaces6commons_1__NtBh_11OracleQueryNtNtCs6CjExPaL98u_5serde2de11Deserialize11deserializeNtBc_9___VisitorNtB1w_7Visitor10visit_enumNtB6_s0_9___VisitorB2B_9visit_mapNtNtNtCs3JYPxoBuEj2_15serde_json_wasm2de3map9MapAccessECsgkmnL3Ab2bX_24shade_oracles_multi_test
FN:80,_RINvXs0_NvXNvNtNtCs7ttpGOJz6iy_13shade_oracles10interfaces6commonsh_1__NtBb_23InstantiateCommonConfigNtNtCs6CjExPaL98u_5serde2de11Deserialize11deserializeNtB6_9___VisitorNtB1D_7Visitor9visit_mapNtNtNtCs3JYPxoBuEj2_15serde_json_wasm2de3map9MapAccessECsgkmnL3Ab2bX_24shade_oracles_multi_test
FN:80,_RINvXs_NvXNvNtNtCs7ttpGOJz6iy_13shade_oracles10interfaces6commonsh_1__NtBa_23InstantiateCommonConfigNtNtCs6CjExPaL98u_5serde2de11Deserialize11deserializeNtB5_7___FieldB1A_11deserializeNtNtNtCs3JYPxoBuEj2_15serde_json_wasm2de3map6MapKeyECsgkmnL3Ab2bX_24shade_oracles_multi_test
FN:26,_RINvXNvNtNtCs7ttpGOJz6iy_13shade_oracles10interfaces6commons_1__NtB5_11OracleQueryNtNtCs6CjExPaL98u_5serde2de11Deserialize11deserializeQNtNtCs3JYPxoBuEj2_15serde_json_wasm2de12DeserializerECsgkmnL3Ab2bX_24shade_oracles_multi_test
FN:58,_RINvXs0_NvXNvNtNtCs7ttpGOJz6iy_13shade_oracles10interfaces6commonsb_1__NtBb_10ExecuteMsgNtNtCs6CjExPaL98u_5serde2de11Deserialize11deserializeNtB6_9___VisitorNtB1q_7Visitor10visit_enumNtNtNtCs3JYPxoBuEj2_15serde_json_wasm2de5enum_19StructVariantAccessECsgkmnL3Ab2bX_24shade_oracles_multi_test
FN:63,_RINvXNvXNvNtNtCs7ttpGOJz6iy_13shade_oracles10interfaces6commonse_1__NtB8_13ConfigUpdatesNtNtCs6CjExPaL98u_5serde2de11Deserialize11deserializeNtB3_14___FieldVisitorNtB1q_7Visitor9visit_strNtNtNtCs3JYPxoBuEj2_15serde_json_wasm2de6errors5ErrorECsgkmnL3Ab2bX_24shade_oracles_multi_test
FN:80,_RINvXNvNtNtCs7ttpGOJz6iy_13shade_oracles10interfaces6commonsh_1__NtB5_23InstantiateCommonConfigNtNtCs6CjExPaL98u_5serde2de11Deserialize11deserializeINtNvNtNtB1z_9___private2de13missing_field24MissingFieldDeserializerNtNtNtCs3JYPxoBuEj2_15serde_json_wasm2de6errors5ErrorEECsgkmnL3Ab2bX_24shade_oracles_multi_test
FN:80,_RINvXNvXNvNtNtCs7ttpGOJz6iy_13shade_oracles10interfaces6commonsh_1__NtB8_23InstantiateCommonConfigNtNtCs6CjExPaL98u_5serde2de11Deserialize11deserializeNtB3_14___FieldVisitorNtB1A_7Visitor9visit_strNtNtNtCs3JYPxoBuEj2_15serde_json_wasm2de6errors5ErrorECsgkmnL3Ab2bX_24shade_oracles_multi_test
FN:63,_RINvXNvNtNtCs7ttpGOJz6iy_13shade_oracles10interfaces6commonse_1__NtB5_13ConfigUpdatesNtNtCs6CjExPaL98u_5serde2de11Deserialize11deserializeINtNvNtNtB1p_9___private2de13missing_field24MissingFieldDeserializerNtNtNtCs3JYPxoBuEj2_15serde_json_wasm2de6errors5ErrorEECsgkmnL3Ab2bX_24shade_oracles_multi_test
FN:26,_RINvXs0_NvXNvNtNtCs7ttpGOJz6iy_13shade_oracles10interfaces6commons_1__NtBb_11OracleQueryNtNtCs6CjExPaL98u_5serde2de11Deserialize11deserializeNtB6_9___VisitorNtB1q_7Visitor10visit_enumNtNtNtCs3JYPxoBuEj2_15serde_json_wasm2de5enum_17UnitVariantAccessECsgkmnL3Ab2bX_24shade_oracles_multi_test
FN:58,_RINvXNvXs0_NvXNvNtNtCs7ttpGOJz6iy_13shade_oracles10interfaces6commonsb_1__NtBe_10ExecuteMsgNtNtCs6CjExPaL98u_5serde2de11Deserialize11deserializeNtB9_9___VisitorNtB1t_7Visitor10visit_enumNtB3_14___FieldVisitorB2y_9visit_strNtNtNtCs3JYPxoBuEj2_15serde_json_wasm2de6errors5ErrorECsgkmnL3Ab2bX_24shade_oracles_multi_test
FN:63,_RINvXNvNtNtCs7ttpGOJz6iy_13shade_oracles10interfaces6commonse_1__NtB5_13ConfigUpdatesNtNtCs6CjExPaL98u_5serde2de11Deserialize11deserializeQNtNtCs3JYPxoBuEj2_15serde_json_wasm2de12DeserializerECsgkmnL3Ab2bX_24shade_oracles_multi_test
FN:26,_RINvXs0_NvXNvNtNtCs7ttpGOJz6iy_13shade_oracles10interfaces6commons_1__NtBb_11OracleQueryNtNtCs6CjExPaL98u_5serde2de11Deserialize11deserializeNtB6_9___VisitorNtB1q_7Visitor10visit_enumNtNtNtCs3JYPxoBuEj2_15serde_json_wasm2de5enum_19StructVariantAccessECsgkmnL3Ab2bX_24shade_oracles_multi_test
FN:58,_RINvXs_NvXNvNtNtCs7ttpGOJz6iy_13shade_oracles10interfaces6commonsb_1__NtBa_10ExecuteMsgNtNtCs6CjExPaL98u_5serde2de11Deserialize11deserializeNtB5_7___FieldB1n_11deserializeQNtNtCs3JYPxoBuEj2_15serde_json_wasm2de12DeserializerECsgkmnL3Ab2bX_24shade_oracles_multi_test
FN:26,_RINvXs_NvXNvNtNtCs7ttpGOJz6iy_13shade_oracles10interfaces6commons_1__NtBa_11OracleQueryNtNtCs6CjExPaL98u_5serde2de11Deserialize11deserializeNtB5_7___FieldB1n_11deserializeQNtNtCs3JYPxoBuEj2_15serde_json_wasm2de12DeserializerECsgkmnL3Ab2bX_24shade_oracles_multi_test
FN:58,_RINvXs_NvXs0_NvXNvNtNtCs7ttpGOJz6iy_13shade_oracles10interfaces6commonsb_1__NtBg_10ExecuteMsgNtNtCs6CjExPaL98u_5serde2de11Deserialize11deserializeNtBb_9___VisitorNtB1v_7Visitor10visit_enumNtB5_7___FieldB1t_11deserializeNtNtNtCs3JYPxoBuEj2_15serde_json_wasm2de3map6MapKeyECsgkmnL3Ab2bX_24shade_oracles_multi_test
FN:26,_RINvXs1_NvXs0_NvXNvNtNtCs7ttpGOJz6iy_13shade_oracles10interfaces6commons_1__NtBh_11OracleQueryNtNtCs6CjExPaL98u_5serde2de11Deserialize11deserializeNtBc_9___VisitorNtB1w_7Visitor10visit_enumNtB6_s_14___FieldVisitorB2B_9visit_strNtNtNtCs3JYPxoBuEj2_15serde_json_wasm2de6errors5ErrorECsgkmnL3Ab2bX_24shade_oracles_multi_test
FN:26,_RINvXs4_NvXs0_NvXNvNtNtCs7ttpGOJz6iy_13shade_oracles10interfaces6commons_1__NtBh_11OracleQueryNtNtCs6CjExPaL98u_5serde2de11Deserialize11deserializeNtBc_9___VisitorNtB1w_7Visitor10visit_enumNtB6_s0_14___FieldVisitorB2B_9visit_strNtNtNtCs3JYPxoBuEj2_15serde_json_wasm2de6errors5ErrorECsgkmnL3Ab2bX_24shade_oracles_multi_test
FN:269,_RINvNtNtCs7ttpGOJz6iy_13shade_oracles10interfaces6common12oracle_queryNtNtCs6Kli61lKT0n_31shade_staking_derivative_oracle8contract28ShadeStakingDerivativeOracleEB1a_
FN:130,_RINvXNvNtNtCs7ttpGOJz6iy_13shade_oracles10interfaces6commonsj_1__NtB5_12CommonConfigNtNtCs6CjExPaL98u_5serde3ser9Serialize9serializeQNtNtCs3JYPxoBuEj2_15serde_json_wasm3ser10SerializerECs6Kli61lKT0n_31shade_staking_derivative_oracle
FN:252,_RINvNtNtCs7ttpGOJz6iy_13shade_oracles10interfaces6common11oracle_execNtNtCs6Kli61lKT0n_31shade_staking_derivative_oracle8contract28ShadeStakingDerivativeOracleEB19_
FN:44,_RINvXNvNtNtCs7ttpGOJz6iy_13shade_oracles10interfaces6commons4_1__NtB5_13PriceResponseNtNtCs6CjExPaL98u_5serde3ser9Serialize9serializeQNtNtCs3JYPxoBuEj2_15serde_json_wasm3ser10SerializerECs6Kli61lKT0n_31shade_staking_derivative_oracle
FN:130,_RINvXs_NvXNvNtNtCs7ttpGOJz6iy_13shade_oracles10interfaces6commonsk_1__NtBa_12CommonConfigNtNtCs6CjExPaL98u_5serde2de11Deserialize11deserializeNtB5_7___FieldB1p_11deserializeNtNtNtCs3JYPxoBuEj2_15serde_json_wasm2de3map6MapKeyECs6Kli61lKT0n_31shade_staking_derivative_oracle
FN:130,_RINvXNvNtNtCs7ttpGOJz6iy_13shade_oracles10interfaces6commonsk_1__NtB5_12CommonConfigNtNtCs6CjExPaL98u_5serde2de11Deserialize11deserializeQNtNtCs3JYPxoBuEj2_15serde_json_wasm2de12DeserializerECs6Kli61lKT0n_31shade_staking_derivative_oracle
FN:130,_RINvXNvXNvNtNtCs7ttpGOJz6iy_13shade_oracles10interfaces6commonsk_1__NtB8_12CommonConfigNtNtCs6CjExPaL98u_5serde2de11Deserialize11deserializeNtB3_14___FieldVisitorNtB1p_7Visitor9visit_strNtNtNtCs3JYPxoBuEj2_15serde_json_wasm2de6errors5ErrorECs6Kli61lKT0n_31shade_staking_derivative_oracle
FN:387,_RNCNvYNtNtCs6Kli61lKT0n_31shade_staking_derivative_oracle8contract28ShadeStakingDerivativeOracleNtNtNtCs7ttpGOJz6iy_13shade_oracles10interfaces6common6Oracle16can_query_prices0B8_
FN:143,_RINvXNvNtNtCs7ttpGOJz6iy_13shade_oracles10interfaces6commonsm_1__NtB5_12HandleAnswerNtNtCs6CjExPaL98u_5serde3ser9Serialize9serializeQNtNtCs3JYPxoBuEj2_15serde_json_wasm3ser10SerializerECs6Kli61lKT0n_31shade_staking_derivative_oracle
FN:130,_RINvXs0_NvXNvNtNtCs7ttpGOJz6iy_13shade_oracles10interfaces6commonsk_1__NtBb_12CommonConfigNtNtCs6CjExPaL98u_5serde2de11Deserialize11deserializeNtB6_9___VisitorNtB1s_7Visitor9visit_mapNtNtNtCs3JYPxoBuEj2_15serde_json_wasm2de3map9MapAccessECs6Kli61lKT0n_31shade_staking_derivative_oracle
FN:148,_RINvXNvNtNtCs7ttpGOJz6iy_13shade_oracles10interfaces6commonsp_1__NtB5_11OraclePriceNtNtCs6CjExPaL98u_5serde3ser9Serialize9serializeQNtNtCs3JYPxoBuEj2_15serde_json_wasm3ser10SerializerECs6Kli61lKT0n_31shade_staking_derivative_oracle
FN:39,_RINvXNvNtNtCs7ttpGOJz6iy_13shade_oracles10interfaces6commons1_1__NtB5_14ConfigResponseNtNtCs6CjExPaL98u_5serde3ser9Serialize9serializeQNtNtCs3JYPxoBuEj2_15serde_json_wasm3ser10SerializerECs6Kli61lKT0n_31shade_staking_derivative_oracle
FN:343,_RNCNvYNtNtCs6Kli61lKT0n_31shade_staking_derivative_oracle8contract28ShadeStakingDerivativeOracleNtNtNtCs7ttpGOJz6iy_13shade_oracles10interfaces6common6Oracle17try_update_config0B8_
FN:49,_RINvXNvNtNtCs7ttpGOJz6iy_13shade_oracles10interfaces6commons7_1__NtB5_14PricesResponseNtNtCs6CjExPaL98u_5serde3ser9Serialize9serializeQNtNtCs3JYPxoBuEj2_15serde_json_wasm3ser10SerializerECs6Kli61lKT0n_31shade_staking_derivative_oracle
FN:397,_RNvYNtNtCs6Kli61lKT0n_31shade_staking_derivative_oracle8contract28ShadeStakingDerivativeOracleNtNtNtCs7ttpGOJz6iy_13shade_oracles10interfaces6common6Oracle15can_query_priceB6_
FN:311,_RNvYNtNtCs6Kli61lKT0n_31shade_staking_derivative_oracle8contract28ShadeStakingDerivativeOracleNtNtNtCs7ttpGOJz6iy_13shade_oracles10interfaces6common6Oracle11init_configB6_
FN:335,_RNvYNtNtCs6Kli61lKT0n_31shade_staking_derivative_oracle8contract28ShadeStakingDerivativeOracleNtNtNtCs7ttpGOJz6iy_13shade_oracles10interfaces6common6Oracle17try_update_configB6_
FN:359,_RNvYNtNtCs6Kli61lKT0n_31shade_staking_derivative_oracle8contract28ShadeStakingDerivativeOracleNtNtNtCs7ttpGOJz6iy_13shade_oracles10interfaces6common6Oracle11config_respB6_
FN:323,_RNvYNtNtCs6Kli61lKT0n_31shade_staking_derivative_oracle8contract28ShadeStakingDerivativeOracleNtNtNtCs7ttpGOJz6iy_13shade_oracles10interfaces6common6Oracle12verify_adminB6_
FN:407,_RNvYNtNtCs6Kli61lKT0n_31shade_staking_derivative_oracle8contract28ShadeStakingDerivativeOracleNtNtNtCs7ttpGOJz6iy_13shade_oracles10interfaces6common6Oracle16try_query_pricesB6_
FN:367,_RNvYNtNtCs6Kli61lKT0n_31shade_staking_derivative_oracle8contract28ShadeStakingDerivativeOracleNtNtNtCs7ttpGOJz6iy_13shade_oracles10interfaces6common6Oracle11prices_respB6_
FN:381,_RNvYNtNtCs6Kli61lKT0n_31shade_staking_derivative_oracle8contract28ShadeStakingDerivativeOracleNtNtNtCs7ttpGOJz6iy_13shade_oracles10interfaces6common6Oracle16can_query_pricesB6_
FN:363,_RNvYNtNtCs6Kli61lKT0n_31shade_staking_derivative_oracle8contract28ShadeStakingDerivativeOracleNtNtNtCs7ttpGOJz6iy_13shade_oracles10interfaces6common6Oracle10price_respB6_
FN:397,_RNvYNtNtCsl4rh8uzcDWC_20siennaswap_lp_oracle8contract18SiennaswapLpOracleNtNtNtCs7ttpGOJz6iy_13shade_oracles10interfaces6common6Oracle15can_query_priceB6_
FN:311,_RNvYNtNtCsl4rh8uzcDWC_20siennaswap_lp_oracle8contract18SiennaswapLpOracleNtNtNtCs7ttpGOJz6iy_13shade_oracles10interfaces6common6Oracle11init_configB6_
FN:335,_RNvYNtNtCsl4rh8uzcDWC_20siennaswap_lp_oracle8contract18SiennaswapLpOracleNtNtNtCs7ttpGOJz6iy_13shade_oracles10interfaces6common6Oracle17try_update_configB6_
FN:323,_RNvYNtNtCsl4rh8uzcDWC_20siennaswap_lp_oracle8contract18SiennaswapLpOracleNtNtNtCs7ttpGOJz6iy_13shade_oracles10interfaces6common6Oracle12verify_adminB6_
FN:407,_RNvYNtNtCsl4rh8uzcDWC_20siennaswap_lp_oracle8contract18SiennaswapLpOracleNtNtNtCs7ttpGOJz6iy_13shade_oracles10interfaces6common6Oracle16try_query_pricesB6_
FN:367,_RNvYNtNtCsl4rh8uzcDWC_20siennaswap_lp_oracle8contract18SiennaswapLpOracleNtNtNtCs7ttpGOJz6iy_13shade_oracles10interfaces6common6Oracle11prices_respB6_
FN:381,_RNvYNtNtCsl4rh8uzcDWC_20siennaswap_lp_oracle8contract18SiennaswapLpOracleNtNtNtCs7ttpGOJz6iy_13shade_oracles10interfaces6common6Oracle16can_query_pricesB6_
FN:363,_RNvYNtNtCsl4rh8uzcDWC_20siennaswap_lp_oracle8contract18SiennaswapLpOracleNtNtNtCs7ttpGOJz6iy_13shade_oracles10interfaces6common6Oracle10price_respB6_
FN:130,_RINvXNvNtNtCs7ttpGOJz6iy_13shade_oracles10interfaces6commonsj_1__NtB5_12CommonConfigNtNtCs6CjExPaL98u_5serde3ser9Serialize9serializeQNtNtCs3JYPxoBuEj2_15serde_json_wasm3ser10SerializerECsl4rh8uzcDWC_20siennaswap_lp_oracle
FN:252,_RINvNtNtCs7ttpGOJz6iy_13shade_oracles10interfaces6common11oracle_execNtNtCsl4rh8uzcDWC_20siennaswap_lp_oracle8contract18SiennaswapLpOracleEB19_
FN:44,_RINvXNvNtNtCs7ttpGOJz6iy_13shade_oracles10interfaces6commons4_1__NtB5_13PriceResponseNtNtCs6CjExPaL98u_5serde3ser9Serialize9serializeQNtNtCs3JYPxoBuEj2_15serde_json_wasm3ser10SerializerECsl4rh8uzcDWC_20siennaswap_lp_oracle
FN:130,_RINvXNvXNvNtNtCs7ttpGOJz6iy_13shade_oracles10interfaces6commonsk_1__NtB8_12CommonConfigNtNtCs6CjExPaL98u_5serde2de11Deserialize11deserializeNtB3_14___FieldVisitorNtB1p_7Visitor9visit_strNtNtNtCs3JYPxoBuEj2_15serde_json_wasm2de6errors5ErrorECsl4rh8uzcDWC_20siennaswap_lp_oracle
FN:148,_RNvXsH_NtNtCs7ttpGOJz6iy_13shade_oracles10interfaces6commonNtB5_11OraclePriceNtNtCs59N989QkIgV_4core5clone5Clone5cloneCsl4rh8uzcDWC_20siennaswap_lp_oracle
FN:143,_RINvXNvNtNtCs7ttpGOJz6iy_13shade_oracles10interfaces6commonsm_1__NtB5_12HandleAnswerNtNtCs6CjExPaL98u_5serde3ser9Serialize9serializeQNtNtCs3JYPxoBuEj2_15serde_json_wasm3ser10SerializerECsl4rh8uzcDWC_20siennaswap_lp_oracle
FN:130,_RINvXs0_NvXNvNtNtCs7ttpGOJz6iy_13shade_oracles10interfaces6commonsk_1__NtBb_12CommonConfigNtNtCs6CjExPaL98u_5serde2de11Deserialize11deserializeNtB6_9___VisitorNtB1s_7Visitor9visit_mapNtNtNtCs3JYPxoBuEj2_15serde_json_wasm2de3map9MapAccessECsl4rh8uzcDWC_20siennaswap_lp_oracle
FN:148,_RINvXNvNtNtCs7ttpGOJz6iy_13shade_oracles10interfaces6commonsp_1__NtB5_11OraclePriceNtNtCs6CjExPaL98u_5serde3ser9Serialize9serializeQNtNtCs3JYPxoBuEj2_15serde_json_wasm3ser10SerializerECsl4rh8uzcDWC_20siennaswap_lp_oracle
FN:130,_RINvXs_NvXNvNtNtCs7ttpGOJz6iy_13shade_oracles10interfaces6commonsk_1__NtBa_12CommonConfigNtNtCs6CjExPaL98u_5serde2de11Deserialize11deserializeNtB5_7___FieldB1p_11deserializeNtNtNtCs3JYPxoBuEj2_15serde_json_wasm2de3map6MapKeyECsl4rh8uzcDWC_20siennaswap_lp_oracle
FN:387,_RNCNvYNtNtCsl4rh8uzcDWC_20siennaswap_lp_oracle8contract18SiennaswapLpOracleNtNtNtCs7ttpGOJz6iy_13shade_oracles10interfaces6common6Oracle16can_query_prices0B8_
FN:343,_RNCNvYNtNtCsl4rh8uzcDWC_20siennaswap_lp_oracle8contract18SiennaswapLpOracleNtNtNtCs7ttpGOJz6iy_13shade_oracles10interfaces6common6Oracle17try_update_config0B8_
FN:130,_RINvXNvNtNtCs7ttpGOJz6iy_13shade_oracles10interfaces6commonsk_1__NtB5_12CommonConfigNtNtCs6CjExPaL98u_5serde2de11Deserialize11deserializeQNtNtCs3JYPxoBuEj2_15serde_json_wasm2de12DeserializerECsl4rh8uzcDWC_20siennaswap_lp_oracle
FN:49,_RINvXNvNtNtCs7ttpGOJz6iy_13shade_oracles10interfaces6commons7_1__NtB5_14PricesResponseNtNtCs6CjExPaL98u_5serde3ser9Serialize9serializeQNtNtCs3JYPxoBuEj2_15serde_json_wasm3ser10SerializerECsl4rh8uzcDWC_20siennaswap_lp_oracle
FN:397,_RNvYNtNtCs8soImV1O5bu_25siennaswap_lp_spot_oracle8contract18SiennaswapLpOracleNtNtNtCs7ttpGOJz6iy_13shade_oracles10interfaces6common6Oracle15can_query_priceB6_
FN:311,_RNvYNtNtCs8soImV1O5bu_25siennaswap_lp_spot_oracle8contract18SiennaswapLpOracleNtNtNtCs7ttpGOJz6iy_13shade_oracles10interfaces6common6Oracle11init_configB6_
FN:335,_RNvYNtNtCs8soImV1O5bu_25siennaswap_lp_spot_oracle8contract18SiennaswapLpOracleNtNtNtCs7ttpGOJz6iy_13shade_oracles10interfaces6common6Oracle17try_update_configB6_
FN:323,_RNvYNtNtCs8soImV1O5bu_25siennaswap_lp_spot_oracle8contract18SiennaswapLpOracleNtNtNtCs7ttpGOJz6iy_13shade_oracles10interfaces6common6Oracle12verify_adminB6_
FN:407,_RNvYNtNtCs8soImV1O5bu_25siennaswap_lp_spot_oracle8contract18SiennaswapLpOracleNtNtNtCs7ttpGOJz6iy_13shade_oracles10interfaces6common6Oracle16try_query_pricesB6_
FN:367,_RNvYNtNtCs8soImV1O5bu_25siennaswap_lp_spot_oracle8contract18SiennaswapLpOracleNtNtNtCs7ttpGOJz6iy_13shade_oracles10interfaces6common6Oracle11prices_respB6_
FN:381,_RNvYNtNtCs8soImV1O5bu_25siennaswap_lp_spot_oracle8contract18SiennaswapLpOracleNtNtNtCs7ttpGOJz6iy_13shade_oracles10interfaces6common6Oracle16can_query_pricesB6_
FN:363,_RNvYNtNtCs8soImV1O5bu_25siennaswap_lp_spot_oracle8contract18SiennaswapLpOracleNtNtNtCs7ttpGOJz6iy_13shade_oracles10interfaces6common6Oracle10price_respB6_
FN:130,_RINvXNvNtNtCs7ttpGOJz6iy_13shade_oracles10interfaces6commonsj_1__NtB5_12CommonConfigNtNtCs6CjExPaL98u_5serde3ser9Serialize9serializeQNtNtCs3JYPxoBuEj2_15serde_json_wasm3ser10SerializerECs8soImV1O5bu_25siennaswap_lp_spot_oracle
FN:252,_RINvNtNtCs7ttpGOJz6iy_13shade_oracles10interfaces6common11oracle_execNtNtCs8soImV1O5bu_25siennaswap_lp_spot_oracle8contract18SiennaswapLpOracleEB19_
FN:44,_RINvXNvNtNtCs7ttpGOJz6iy_13shade_oracles10interfaces6commons4_1__NtB5_13PriceResponseNtNtCs6CjExPaL98u_5serde3ser9Serialize9serializeQNtNtCs3JYPxoBuEj2_15serde_json_wasm3ser10SerializerECs8soImV1O5bu_25siennaswap_lp_spot_oracle
FN:130,_RINvXNvXNvNtNtCs7ttpGOJz6iy_13shade_oracles10interfaces6commonsk_1__NtB8_12CommonConfigNtNtCs6CjExPaL98u_5serde2de11Deserialize11deserializeNtB3_14___FieldVisitorNtB1p_7Visitor9visit_strNtNtNtCs3JYPxoBuEj2_15serde_json_wasm2de6errors5ErrorECs8soImV1O5bu_25siennaswap_lp_spot_oracle
FN:148,_RNvXsH_NtNtCs7ttpGOJz6iy_13shade_oracles10interfaces6commonNtB5_11OraclePriceNtNtCs59N989QkIgV_4core5clone5Clone5cloneCs8soImV1O5bu_25siennaswap_lp_spot_oracle
FN:143,_RINvXNvNtNtCs7ttpGOJz6iy_13shade_oracles10interfaces6commonsm_1__NtB5_12HandleAnswerNtNtCs6CjExPaL98u_5serde3ser9Serialize9serializeQNtNtCs3JYPxoBuEj2_15serde_json_wasm3ser10SerializerECs8soImV1O5bu_25siennaswap_lp_spot_oracle
FN:130,_RINvXs0_NvXNvNtNtCs7ttpGOJz6iy_13shade_oracles10interfaces6commonsk_1__NtBb_12CommonConfigNtNtCs6CjExPaL98u_5serde2de11Deserialize11deserializeNtB6_9___VisitorNtB1s_7Visitor9visit_mapNtNtNtCs3JYPxoBuEj2_15serde_json_wasm2de3map9MapAccessECs8soImV1O5bu_25siennaswap_lp_spot_oracle
FN:148,_RINvXNvNtNtCs7ttpGOJz6iy_13shade_oracles10interfaces6commonsp_1__NtB5_11OraclePriceNtNtCs6CjExPaL98u_5serde3ser9Serialize9serializeQNtNtCs3JYPxoBuEj2_15serde_json_wasm3ser10SerializerECs8soImV1O5bu_25siennaswap_lp_spot_oracle
FN:130,_RINvXs_NvXNvNtNtCs7ttpGOJz6iy_13shade_oracles10interfaces6commonsk_1__NtBa_12CommonConfigNtNtCs6CjExPaL98u_5serde2de11Deserialize11deserializeNtB5_7___FieldB1p_11deserializeNtNtNtCs3JYPxoBuEj2_15serde_json_wasm2de3map6MapKeyECs8soImV1O5bu_25siennaswap_lp_spot_oracle
FN:387,_RNCNvYNtNtCs8soImV1O5bu_25siennaswap_lp_spot_oracle8contract18SiennaswapLpOracleNtNtNtCs7ttpGOJz6iy_13shade_oracles10interfaces6common6Oracle16can_query_prices0B8_
FN:343,_RNCNvYNtNtCs8soImV1O5bu_25siennaswap_lp_spot_oracle8contract18SiennaswapLpOracleNtNtNtCs7ttpGOJz6iy_13shade_oracles10interfaces6common6Oracle17try_update_config0B8_
FN:130,_RINvXNvNtNtCs7ttpGOJz6iy_13shade_oracles10interfaces6commonsk_1__NtB5_12CommonConfigNtNtCs6CjExPaL98u_5serde2de11Deserialize11deserializeQNtNtCs3JYPxoBuEj2_15serde_json_wasm2de12DeserializerECs8soImV1O5bu_25siennaswap_lp_spot_oracle
FN:49,_RINvXNvNtNtCs7ttpGOJz6iy_13shade_oracles10interfaces6commons7_1__NtB5_14PricesResponseNtNtCs6CjExPaL98u_5serde3ser9Serialize9serializeQNtNtCs3JYPxoBuEj2_15serde_json_wasm3ser10SerializerECs8soImV1O5bu_25siennaswap_lp_spot_oracle
FN:397,_RNvYNtNtCseKCZb5Dbj8H_23shadeswap_market_oracle8contract21ShadeswapMarketOracleNtNtNtCs7ttpGOJz6iy_13shade_oracles10interfaces6common6Oracle15can_query_priceB6_
FN:311,_RNvYNtNtCseKCZb5Dbj8H_23shadeswap_market_oracle8contract21ShadeswapMarketOracleNtNtNtCs7ttpGOJz6iy_13shade_oracles10interfaces6common6Oracle11init_configB6_
FN:335,_RNvYNtNtCseKCZb5Dbj8H_23shadeswap_market_oracle8contract21ShadeswapMarketOracleNtNtNtCs7ttpGOJz6iy_13shade_oracles10interfaces6common6Oracle17try_update_configB6_
FN:359,_RNvYNtNtCseKCZb5Dbj8H_23shadeswap_market_oracle8contract21ShadeswapMarketOracleNtNtNtCs7ttpGOJz6iy_13shade_oracles10interfaces6common6Oracle11config_respB6_
FN:407,_RNvYNtNtCseKCZb5Dbj8H_23shadeswap_market_oracle8contract21ShadeswapMarketOracleNtNtNtCs7ttpGOJz6iy_13shade_oracles10interfaces6common6Oracle16try_query_pricesB6_
FN:363,_RNvYNtNtCseKCZb5Dbj8H_23shadeswap_market_oracle8contract21ShadeswapMarketOracleNtNtNtCs7ttpGOJz6iy_13shade_oracles10interfaces6common6Oracle10price_respB6_
FN:323,_RNvYNtNtCseKCZb5Dbj8H_23shadeswap_market_oracle8contract21ShadeswapMarketOracleNtNtNtCs7ttpGOJz6iy_13shade_oracles10interfaces6common6Oracle12verify_adminB6_
FN:367,_RNvYNtNtCseKCZb5Dbj8H_23shadeswap_market_oracle8contract21ShadeswapMarketOracleNtNtNtCs7ttpGOJz6iy_13shade_oracles10interfaces6common6Oracle11prices_respB6_
FN:381,_RNvYNtNtCseKCZb5Dbj8H_23shadeswap_market_oracle8contract21ShadeswapMarketOracleNtNtNtCs7ttpGOJz6iy_13shade_oracles10interfaces6common6Oracle16can_query_pricesB6_
FN:143,_RINvXNvNtNtCs7ttpGOJz6iy_13shade_oracles10interfaces6commonsm_1__NtB5_12HandleAnswerNtNtCs6CjExPaL98u_5serde3ser9Serialize9serializeQNtNtCs3JYPxoBuEj2_15serde_json_wasm3ser10SerializerECseKCZb5Dbj8H_23shadeswap_market_oracle
FN:387,_RNCNvYNtNtCseKCZb5Dbj8H_23shadeswap_market_oracle8contract21ShadeswapMarketOracleNtNtNtCs7ttpGOJz6iy_13shade_oracles10interfaces6common6Oracle16can_query_prices0B8_
FN:148,_RINvXNvNtNtCs7ttpGOJz6iy_13shade_oracles10interfaces6commonsp_1__NtB5_11OraclePriceNtNtCs6CjExPaL98u_5serde3ser9Serialize9serializeQNtNtCs3JYPxoBuEj2_15serde_json_wasm3ser10SerializerECseKCZb5Dbj8H_23shadeswap_market_oracle
FN:39,_RINvXNvNtNtCs7ttpGOJz6iy_13shade_oracles10interfaces6commons1_1__NtB5_14ConfigResponseNtNtCs6CjExPaL98u_5serde3ser9Serialize9serializeQNtNtCs3JYPxoBuEj2_15serde_json_wasm3ser10SerializerECseKCZb5Dbj8H_23shadeswap_market_oracle
FN:252,_RINvNtNtCs7ttpGOJz6iy_13shade_oracles10interfaces6common11oracle_execNtNtCseKCZb5Dbj8H_23shadeswap_market_oracle8contract21ShadeswapMarketOracleEB19_
FN:130,_RINvXNvNtNtCs7ttpGOJz6iy_13shade_oracles10interfaces6commonsk_1__NtB5_12CommonConfigNtNtCs6CjExPaL98u_5serde2de11Deserialize11deserializeQNtNtCs3JYPxoBuEj2_15serde_json_wasm2de12DeserializerECseKCZb5Dbj8H_23shadeswap_market_oracle
FN:49,_RINvXNvNtNtCs7ttpGOJz6iy_13shade_oracles10interfaces6commons7_1__NtB5_14PricesResponseNtNtCs6CjExPaL98u_5serde3ser9Serialize9serializeQNtNtCs3JYPxoBuEj2_15serde_json_wasm3ser10SerializerECseKCZb5Dbj8H_23shadeswap_market_oracle
FN:130,_RINvXNvNtNtCs7ttpGOJz6iy_13shade_oracles10interfaces6commonsj_1__NtB5_12CommonConfigNtNtCs6CjExPaL98u_5serde3ser9Serialize9serializeQNtNtCs3JYPxoBuEj2_15serde_json_wasm3ser10SerializerECseKCZb5Dbj8H_23shadeswap_market_oracle
FN:343,_RNCNvYNtNtCseKCZb5Dbj8H_23shadeswap_market_oracle8contract21ShadeswapMarketOracleNtNtNtCs7ttpGOJz6iy_13shade_oracles10interfaces6common6Oracle17try_update_config0B8_
FN:44,_RINvXNvNtNtCs7ttpGOJz6iy_13shade_oracles10interfaces6commons4_1__NtB5_13PriceResponseNtNtCs6CjExPaL98u_5serde3ser9Serialize9serializeQNtNtCs3JYPxoBuEj2_15serde_json_wasm3ser10SerializerECseKCZb5Dbj8H_23shadeswap_market_oracle
FN:130,_RINvXs0_NvXNvNtNtCs7ttpGOJz6iy_13shade_oracles10interfaces6commonsk_1__NtBb_12CommonConfigNtNtCs6CjExPaL98u_5serde2de11Deserialize11deserializeNtB6_9___VisitorNtB1s_7Visitor9visit_mapNtNtNtCs3JYPxoBuEj2_15serde_json_wasm2de3map9MapAccessECseKCZb5Dbj8H_23shadeswap_market_oracle
FN:130,_RINvXs_NvXNvNtNtCs7ttpGOJz6iy_13shade_oracles10interfaces6commonsk_1__NtBa_12CommonConfigNtNtCs6CjExPaL98u_5serde2de11Deserialize11deserializeNtB5_7___FieldB1p_11deserializeNtNtNtCs3JYPxoBuEj2_15serde_json_wasm2de3map6MapKeyECseKCZb5Dbj8H_23shadeswap_market_oracle
FN:130,_RINvXNvXNvNtNtCs7ttpGOJz6iy_13shade_oracles10interfaces6commonsk_1__NtB8_12CommonConfigNtNtCs6CjExPaL98u_5serde2de11Deserialize11deserializeNtB3_14___FieldVisitorNtB1p_7Visitor9visit_strNtNtNtCs3JYPxoBuEj2_15serde_json_wasm2de6errors5ErrorECseKCZb5Dbj8H_23shadeswap_market_oracle
FN:269,_RINvNtNtCs7ttpGOJz6iy_13shade_oracles10interfaces6common12oracle_queryNtNtCseKCZb5Dbj8H_23shadeswap_market_oracle8contract21ShadeswapMarketOracleEB1a_
FN:397,_RNvYNtNtCs5sRKHz6Zcgz_24siennaswap_market_oracle8contract22SiennaswapMarketOracleNtNtNtCs7ttpGOJz6iy_13shade_oracles10interfaces6common6Oracle15can_query_priceB6_
FN:311,_RNvYNtNtCs5sRKHz6Zcgz_24siennaswap_market_oracle8contract22SiennaswapMarketOracleNtNtNtCs7ttpGOJz6iy_13shade_oracles10interfaces6common6Oracle11init_configB6_
FN:335,_RNvYNtNtCs5sRKHz6Zcgz_24siennaswap_market_oracle8contract22SiennaswapMarketOracleNtNtNtCs7ttpGOJz6iy_13shade_oracles10interfaces6common6Oracle17try_update_configB6_
FN:359,_RNvYNtNtCs5sRKHz6Zcgz_24siennaswap_market_oracle8contract22SiennaswapMarketOracleNtNtNtCs7ttpGOJz6iy_13shade_oracles10interfaces6common6Oracle11config_respB6_
FN:407,_RNvYNtNtCs5sRKHz6Zcgz_24siennaswap_market_oracle8contract22SiennaswapMarketOracleNtNtNtCs7ttpGOJz6iy_13shade_oracles10interfaces6common6Oracle16try_query_pricesB6_
FN:363,_RNvYNtNtCs5sRKHz6Zcgz_24siennaswap_market_oracle8contract22SiennaswapMarketOracleNtNtNtCs7ttpGOJz6iy_13shade_oracles10interfaces6common6Oracle10price_respB6_
FN:323,_RNvYNtNtCs5sRKHz6Zcgz_24siennaswap_market_oracle8contract22SiennaswapMarketOracleNtNtNtCs7ttpGOJz6iy_13shade_oracles10interfaces6common6Oracle12verify_adminB6_
FN:367,_RNvYNtNtCs5sRKHz6Zcgz_24siennaswap_market_oracle8contract22SiennaswapMarketOracleNtNtNtCs7ttpGOJz6iy_13shade_oracles10interfaces6common6Oracle11prices_respB6_
FN:381,_RNvYNtNtCs5sRKHz6Zcgz_24siennaswap_market_oracle8contract22SiennaswapMarketOracleNtNtNtCs7ttpGOJz6iy_13shade_oracles10interfaces6common6Oracle16can_query_pricesB6_
FN:130,_RINvXNvNtNtCs7ttpGOJz6iy_13shade_oracles10interfaces6commonsj_1__NtB5_12CommonConfigNtNtCs6CjExPaL98u_5serde3ser9Serialize9serializeQNtNtCs3JYPxoBuEj2_15serde_json_wasm3ser10SerializerECs5sRKHz6Zcgz_24siennaswap_market_oracle
FN:387,_RNCNvYNtNtCs5sRKHz6Zcgz_24siennaswap_market_oracle8contract22SiennaswapMarketOracleNtNtNtCs7ttpGOJz6iy_13shade_oracles10interfaces6common6Oracle16can_query_prices0B8_
FN:252,_RINvNtNtCs7ttpGOJz6iy_13shade_oracles10interfaces6common11oracle_execNtNtCs5sRKHz6Zcgz_24siennaswap_market_oracle8contract22SiennaswapMarketOracleEB19_
FN:44,_RINvXNvNtNtCs7ttpGOJz6iy_13shade_oracles10interfaces6commons4_1__NtB5_13PriceResponseNtNtCs6CjExPaL98u_5serde3ser9Serialize9serializeQNtNtCs3JYPxoBuEj2_15serde_json_wasm3ser10SerializerECs5sRKHz6Zcgz_24siennaswap_market_oracle
FN:130,_RINvXs0_NvXNvNtNtCs7ttpGOJz6iy_13shade_oracles10interfaces6commonsk_1__NtBb_12CommonConfigNtNtCs6CjExPaL98u_5serde2de11Deserialize11deserializeNtB6_9___VisitorNtB1s_7Visitor9visit_mapNtNtNtCs3JYPxoBuEj2_15serde_json_wasm2de3map9MapAccessECs5sRKHz6Zcgz_24siennaswap_market_oracle
FN:130,_RINvXs_NvXNvNtNtCs7ttpGOJz6iy_13shade_oracles10interfaces6commonsk_1__NtBa_12CommonConfigNtNtCs6CjExPaL98u_5serde2de11Deserialize11deserializeNtB5_7___FieldB1p_11deserializeNtNtNtCs3JYPxoBuEj2_15serde_json_wasm2de3map6MapKeyECs5sRKHz6Zcgz_24siennaswap_market_oracle
FN:130,_RINvXNvXNvNtNtCs7ttpGOJz6iy_13shade_oracles10interfaces6commonsk_1__NtB8_12CommonConfigNtNtCs6CjExPaL98u_5serde2de11Deserialize11deserializeNtB3_14___FieldVisitorNtB1p_7Visitor9visit_strNtNtNtCs3JYPxoBuEj2_15serde_json_wasm2de6errors5ErrorECs5sRKHz6Zcgz_24siennaswap_market_oracle
FN:143,_RINvXNvNtNtCs7ttpGOJz6iy_13shade_oracles10interfaces6commonsm_1__NtB5_12HandleAnswerNtNtCs6CjExPaL98u_5serde3ser9Serialize9serializeQNtNtCs3JYPxoBuEj2_15serde_json_wasm3ser10SerializerECs5sRKHz6Zcgz_24siennaswap_market_oracle
FN:343,_RNCNvYNtNtCs5sRKHz6Zcgz_24siennaswap_market_oracle8contract22SiennaswapMarketOracleNtNtNtCs7ttpGOJz6iy_13shade_oracles10interfaces6common6Oracle17try_update_config0B8_
FN:148,_RINvXNvNtNtCs7ttpGOJz6iy_13shade_oracles10interfaces6commonsp_1__NtB5_11OraclePriceNtNtCs6CjExPaL98u_5serde3ser9Serialize9serializeQNtNtCs3JYPxoBuEj2_15serde_json_wasm3ser10SerializerECs5sRKHz6Zcgz_24siennaswap_market_oracle
FN:39,_RINvXNvNtNtCs7ttpGOJz6iy_13shade_oracles10interfaces6commons1_1__NtB5_14ConfigResponseNtNtCs6CjExPaL98u_5serde3ser9Serialize9serializeQNtNtCs3JYPxoBuEj2_15serde_json_wasm3ser10SerializerECs5sRKHz6Zcgz_24siennaswap_market_oracle
FN:130,_RINvXNvNtNtCs7ttpGOJz6iy_13shade_oracles10interfaces6commonsk_1__NtB5_12CommonConfigNtNtCs6CjExPaL98u_5serde2de11Deserialize11deserializeQNtNtCs3JYPxoBuEj2_15serde_json_wasm2de12DeserializerECs5sRKHz6Zcgz_24siennaswap_market_oracle
FN:49,_RINvXNvNtNtCs7ttpGOJz6iy_13shade_oracles10interfaces6commons7_1__NtB5_14PricesResponseNtNtCs6CjExPaL98u_5serde3ser9Serialize9serializeQNtNtCs3JYPxoBuEj2_15serde_json_wasm3ser10SerializerECs5sRKHz6Zcgz_24siennaswap_market_oracle
FN:269,_RINvNtNtCs7ttpGOJz6iy_13shade_oracles10interfaces6common12oracle_queryNtNtCs5sRKHz6Zcgz_24siennaswap_market_oracle8contract22SiennaswapMarketOracleEB1a_
FN:363,_RNvYNtNtCs5hPCVRE3j1J_12index_oracle8contract11IndexOracleNtNtNtCs7ttpGOJz6iy_13shade_oracles10interfaces6common6Oracle10price_respB6_
FN:311,_RNvYNtNtCs5hPCVRE3j1J_12index_oracle8contract11IndexOracleNtNtNtCs7ttpGOJz6iy_13shade_oracles10interfaces6common6Oracle11init_configB6_
FN:335,_RNvYNtNtCs5hPCVRE3j1J_12index_oracle8contract11IndexOracleNtNtNtCs7ttpGOJz6iy_13shade_oracles10interfaces6common6Oracle17try_update_configB6_
FN:407,_RNvYNtNtCs5hPCVRE3j1J_12index_oracle8contract11IndexOracleNtNtNtCs7ttpGOJz6iy_13shade_oracles10interfaces6common6Oracle16try_query_pricesB6_
FN:367,_RNvYNtNtCs5hPCVRE3j1J_12index_oracle8contract11IndexOracleNtNtNtCs7ttpGOJz6iy_13shade_oracles10interfaces6common6Oracle11prices_respB6_
FN:381,_RNvYNtNtCs5hPCVRE3j1J_12index_oracle8contract11IndexOracleNtNtNtCs7ttpGOJz6iy_13shade_oracles10interfaces6common6Oracle16can_query_pricesB6_
FN:397,_RNvYNtNtCs5hPCVRE3j1J_12index_oracle8contract11IndexOracleNtNtNtCs7ttpGOJz6iy_13shade_oracles10interfaces6common6Oracle15can_query_priceB6_
FN:359,_RNvYNtNtCs5hPCVRE3j1J_12index_oracle8contract11IndexOracleNtNtNtCs7ttpGOJz6iy_13shade_oracles10interfaces6common6Oracle11config_respB6_
FN:323,_RNvYNtNtCs5hPCVRE3j1J_12index_oracle8contract11IndexOracleNtNtNtCs7ttpGOJz6iy_13shade_oracles10interfaces6common6Oracle12verify_adminB6_
FN:143,_RINvXNvNtNtCs7ttpGOJz6iy_13shade_oracles10interfaces6commonsm_1__NtB5_12HandleAnswerNtNtCs6CjExPaL98u_5serde3ser9Serialize9serializeQNtNtCs3JYPxoBuEj2_15serde_json_wasm3ser10SerializerECs5hPCVRE3j1J_12index_oracle
FN:148,_RINvXNvNtNtCs7ttpGOJz6iy_13shade_oracles10interfaces6commonsp_1__NtB5_11OraclePriceNtNtCs6CjExPaL98u_5serde3ser9Serialize9serializeQNtNtCs3JYPxoBuEj2_15serde_json_wasm3ser10SerializerECs5hPCVRE3j1J_12index_oracle
FN:39,_RINvXNvNtNtCs7ttpGOJz6iy_13shade_oracles10interfaces6commons1_1__NtB5_14ConfigResponseNtNtCs6CjExPaL98u_5serde3ser9Serialize9serializeQNtNtCs3JYPxoBuEj2_15serde_json_wasm3ser10SerializerECs5hPCVRE3j1J_12index_oracle
FN:130,_RINvXNvNtNtCs7ttpGOJz6iy_13shade_oracles10interfaces6commonsk_1__NtB5_12CommonConfigNtNtCs6CjExPaL98u_5serde2de11Deserialize11deserializeQNtNtCs3JYPxoBuEj2_15serde_json_wasm2de12DeserializerECs5hPCVRE3j1J_12index_oracle
FN:49,_RINvXNvNtNtCs7ttpGOJz6iy_13shade_oracles10interfaces6commons7_1__NtB5_14PricesResponseNtNtCs6CjExPaL98u_5serde3ser9Serialize9serializeQNtNtCs3JYPxoBuEj2_15serde_json_wasm3ser10SerializerECs5hPCVRE3j1J_12index_oracle
FN:387,_RNCNvYNtNtCs5hPCVRE3j1J_12index_oracle8contract11IndexOracleNtNtNtCs7ttpGOJz6iy_13shade_oracles10interfaces6common6Oracle16can_query_prices0B8_
FN:130,_RINvXNvNtNtCs7ttpGOJz6iy_13shade_oracles10interfaces6commonsj_1__NtB5_12CommonConfigNtNtCs6CjExPaL98u_5serde3ser9Serialize9serializeQNtNtCs3JYPxoBuEj2_15serde_json_wasm3ser10SerializerECs5hPCVRE3j1J_12index_oracle
FN:343,_RNCNvYNtNtCs5hPCVRE3j1J_12index_oracle8contract11IndexOracleNtNtNtCs7ttpGOJz6iy_13shade_oracles10interfaces6common6Oracle17try_update_config0B8_
FN:130,_RINvXs0_NvXNvNtNtCs7ttpGOJz6iy_13shade_oracles10interfaces6commonsk_1__NtBb_12CommonConfigNtNtCs6CjExPaL98u_5serde2de11Deserialize11deserializeNtB6_9___VisitorNtB1s_7Visitor9visit_mapNtNtNtCs3JYPxoBuEj2_15serde_json_wasm2de3map9MapAccessECs5hPCVRE3j1J_12index_oracle
FN:130,_RINvXs_NvXNvNtNtCs7ttpGOJz6iy_13shade_oracles10interfaces6commonsk_1__NtBa_12CommonConfigNtNtCs6CjExPaL98u_5serde2de11Deserialize11deserializeNtB5_7___FieldB1p_11deserializeNtNtNtCs3JYPxoBuEj2_15serde_json_wasm2de3map6MapKeyECs5hPCVRE3j1J_12index_oracle
FN:44,_RINvXNvNtNtCs7ttpGOJz6iy_13shade_oracles10interfaces6commons4_1__NtB5_13PriceResponseNtNtCs6CjExPaL98u_5serde3ser9Serialize9serializeQNtNtCs3JYPxoBuEj2_15serde_json_wasm3ser10SerializerECs5hPCVRE3j1J_12index_oracle
FN:130,_RINvXNvXNvNtNtCs7ttpGOJz6iy_13shade_oracles10interfaces6commonsk_1__NtB8_12CommonConfigNtNtCs6CjExPaL98u_5serde2de11Deserialize11deserializeNtB3_14___FieldVisitorNtB1p_7Visitor9visit_strNtNtNtCs3JYPxoBuEj2_15serde_json_wasm2de6errors5ErrorECs5hPCVRE3j1J_12index_oracle
FN:130,_RINvXNvNtNtCs7ttpGOJz6iy_13shade_oracles10interfaces6commonsk_1__NtB5_12CommonConfigNtNtCs6CjExPaL98u_5serde2de11Deserialize11deserializeQNtNtCs3JYPxoBuEj2_15serde_json_wasm2de12DeserializerECs5J3WLKJaAzT_17proxy_band_oracle
FN:130,_RINvXs_NvXNvNtNtCs7ttpGOJz6iy_13shade_oracles10interfaces6commonsk_1__NtBa_12CommonConfigNtNtCs6CjExPaL98u_5serde2de11Deserialize11deserializeNtB5_7___FieldB1p_11deserializeNtNtNtCs3JYPxoBuEj2_15serde_json_wasm2de3map6MapKeyECs5J3WLKJaAzT_17proxy_band_oracle
FN:143,_RINvXNvNtNtCs7ttpGOJz6iy_13shade_oracles10interfaces6commonsm_1__NtB5_12HandleAnswerNtNtCs6CjExPaL98u_5serde3ser9Serialize9serializeQNtNtCs3JYPxoBuEj2_15serde_json_wasm3ser10SerializerECs5J3WLKJaAzT_17proxy_band_oracle
FN:130,_RINvXNvNtNtCs7ttpGOJz6iy_13shade_oracles10interfaces6commonsj_1__NtB5_12CommonConfigNtNtCs6CjExPaL98u_5serde3ser9Serialize9serializeQNtNtCs3JYPxoBuEj2_15serde_json_wasm3ser10SerializerECs5J3WLKJaAzT_17proxy_band_oracle
FN:130,_RINvXs0_NvXNvNtNtCs7ttpGOJz6iy_13shade_oracles10interfaces6commonsk_1__NtBb_12CommonConfigNtNtCs6CjExPaL98u_5serde2de11Deserialize11deserializeNtB6_9___VisitorNtB1s_7Visitor9visit_mapNtNtNtCs3JYPxoBuEj2_15serde_json_wasm2de3map9MapAccessECs5J3WLKJaAzT_17proxy_band_oracle
FN:148,_RINvXNvNtNtCs7ttpGOJz6iy_13shade_oracles10interfaces6commonsp_1__NtB5_11OraclePriceNtNtCs6CjExPaL98u_5serde3ser9Serialize9serializeQNtNtCs3JYPxoBuEj2_15serde_json_wasm3ser10SerializerECs5J3WLKJaAzT_17proxy_band_oracle
FN:387,_RNCNvYNtNtCs5J3WLKJaAzT_17proxy_band_oracle8contract15ProxyBandOracleNtNtNtCs7ttpGOJz6iy_13shade_oracles10interfaces6common6Oracle16can_query_prices0B8_
FN:269,_RINvNtNtCs7ttpGOJz6iy_13shade_oracles10interfaces6common12oracle_queryNtNtCs5J3WLKJaAzT_17proxy_band_oracle8contract15ProxyBandOracleEB1a_
FN:44,_RINvXNvNtNtCs7ttpGOJz6iy_13shade_oracles10interfaces6commons4_1__NtB5_13PriceResponseNtNtCs6CjExPaL98u_5serde3ser9Serialize9serializeQNtNtCs3JYPxoBuEj2_15serde_json_wasm3ser10SerializerECs5J3WLKJaAzT_17proxy_band_oracle
FN:130,_RINvXNvXNvNtNtCs7ttpGOJz6iy_13shade_oracles10interfaces6commonsk_1__NtB8_12CommonConfigNtNtCs6CjExPaL98u_5serde2de11Deserialize11deserializeNtB3_14___FieldVisitorNtB1p_7Visitor9visit_strNtNtNtCs3JYPxoBuEj2_15serde_json_wasm2de6errors5ErrorECs5J3WLKJaAzT_17proxy_band_oracle
FN:343,_RNCNvYNtNtCs5J3WLKJaAzT_17proxy_band_oracle8contract15ProxyBandOracleNtNtNtCs7ttpGOJz6iy_13shade_oracles10interfaces6common6Oracle17try_update_config0B8_
FN:49,_RINvXNvNtNtCs7ttpGOJz6iy_13shade_oracles10interfaces6commons7_1__NtB5_14PricesResponseNtNtCs6CjExPaL98u_5serde3ser9Serialize9serializeQNtNtCs3JYPxoBuEj2_15serde_json_wasm3ser10SerializerECs5J3WLKJaAzT_17proxy_band_oracle
FN:252,_RINvNtNtCs7ttpGOJz6iy_13shade_oracles10interfaces6common11oracle_execNtNtCs5J3WLKJaAzT_17proxy_band_oracle8contract15ProxyBandOracleEB19_
FN:39,_RINvXNvNtNtCs7ttpGOJz6iy_13shade_oracles10interfaces6commons1_1__NtB5_14ConfigResponseNtNtCs6CjExPaL98u_5serde3ser9Serialize9serializeQNtNtCs3JYPxoBuEj2_15serde_json_wasm3ser10SerializerECs5J3WLKJaAzT_17proxy_band_oracle
FN:397,_RNvYNtNtCs5J3WLKJaAzT_17proxy_band_oracle8contract15ProxyBandOracleNtNtNtCs7ttpGOJz6iy_13shade_oracles10interfaces6common6Oracle15can_query_priceB6_
FN:311,_RNvYNtNtCs5J3WLKJaAzT_17proxy_band_oracle8contract15ProxyBandOracleNtNtNtCs7ttpGOJz6iy_13shade_oracles10interfaces6common6Oracle11init_configB6_
FN:335,_RNvYNtNtCs5J3WLKJaAzT_17proxy_band_oracle8contract15ProxyBandOracleNtNtNtCs7ttpGOJz6iy_13shade_oracles10interfaces6common6Oracle17try_update_configB6_
FN:359,_RNvYNtNtCs5J3WLKJaAzT_17proxy_band_oracle8contract15ProxyBandOracleNtNtNtCs7ttpGOJz6iy_13shade_oracles10interfaces6common6Oracle11config_respB6_
FN:323,_RNvYNtNtCs5J3WLKJaAzT_17proxy_band_oracle8contract15ProxyBandOracleNtNtNtCs7ttpGOJz6iy_13shade_oracles10interfaces6common6Oracle12verify_adminB6_
FN:367,_RNvYNtNtCs5J3WLKJaAzT_17proxy_band_oracle8contract15ProxyBandOracleNtNtNtCs7ttpGOJz6iy_13shade_oracles10interfaces6common6Oracle11prices_respB6_
FN:381,_RNvYNtNtCs5J3WLKJaAzT_17proxy_band_oracle8contract15ProxyBandOracleNtNtNtCs7ttpGOJz6iy_13shade_oracles10interfaces6common6Oracle16can_query_pricesB6_
FN:363,_RNvYNtNtCs5J3WLKJaAzT_17proxy_band_oracle8contract15ProxyBandOracleNtNtNtCs7ttpGOJz6iy_13shade_oracles10interfaces6common6Oracle10price_respB6_
FN:44,_RINvXNvNtNtCs7ttpGOJz6iy_13shade_oracles10interfaces6commons4_1__NtB5_13PriceResponseNtNtCs6CjExPaL98u_5serde3ser9Serialize9serializeQNtNtCs3JYPxoBuEj2_15serde_json_wasm3ser10SerializerECs6Knm8LX4JT4_13oracle_router
FN:148,_RINvXNvNtNtCs7ttpGOJz6iy_13shade_oracles10interfaces6commonsp_1__NtB5_11OraclePriceNtNtCs6CjExPaL98u_5serde3ser9Serialize9serializeQNtNtCs3JYPxoBuEj2_15serde_json_wasm3ser10SerializerECs6Knm8LX4JT4_13oracle_router
FN:49,_RINvXNvNtNtCs7ttpGOJz6iy_13shade_oracles10interfaces6commons7_1__NtB5_14PricesResponseNtNtCs6CjExPaL98u_5serde3ser9Serialize9serializeQNtNtCs3JYPxoBuEj2_15serde_json_wasm3ser10SerializerECs6Knm8LX4JT4_13oracle_router
FN:130,_RINvXs_NvXNvNtNtCs7ttpGOJz6iy_13shade_oracles10interfaces6commonsk_1__NtBa_12CommonConfigNtNtCs6CjExPaL98u_5serde2de11Deserialize11deserializeNtB5_7___FieldB1p_11deserializepEBe_
FN:80,_RNvXsy_NtNtCs7ttpGOJz6iy_13shade_oracles10interfaces6commonNtB5_23InstantiateCommonConfigNtNtCs59N989QkIgV_4core3cmp9PartialEq2neB9_
FN:58,_RINvXs_NvXs0_NvXNvNtNtCs7ttpGOJz6iy_13shade_oracles10interfaces6commonsb_1__NtBg_10ExecuteMsgNtNtCs6CjExPaL98u_5serde2de11Deserialize11deserializeNtBb_9___VisitorNtB1v_7Visitor10visit_enumNtB5_7___FieldB1t_11deserializepEBk_
FN:39,_RNvXsb_NtNtCs7ttpGOJz6iy_13shade_oracles10interfaces6commonNtB5_14ConfigResponseNtNtCs59N989QkIgV_4core5clone5Clone5cloneB9_
FN:26,_RINvXNvXs0_NvXNvNtNtCs7ttpGOJz6iy_13shade_oracles10interfaces6commons_1__NtBe_11OracleQueryNtNtCs6CjExPaL98u_5serde2de11Deserialize11deserializeNtB9_9___VisitorNtB1t_7Visitor10visit_enumNtB3_14___FieldVisitorB2y_9visit_strpEBi_
FN:26,_RINvXNvXNvNtNtCs7ttpGOJz6iy_13shade_oracles10interfaces6commons_1__NtB8_11OracleQueryNtNtCs6CjExPaL98u_5serde2de11Deserialize11deserializeNtB3_14___FieldVisitorNtB1n_7Visitor11visit_bytespEBc_
FN:130,_RNvXsC_NtNtCs7ttpGOJz6iy_13shade_oracles10interfaces6commonNtB5_12CommonConfigNtNtCs59N989QkIgV_4core3cmp9PartialEq2neB9_
FN:148,_RNvXsK_NtNtCs7ttpGOJz6iy_13shade_oracles10interfaces6commonNtB5_11OraclePriceNtNtCs59N989QkIgV_4core3cmp9PartialEq2eqB9_
FN:26,_RINvXs0_NvXNvNtNtCs7ttpGOJz6iy_13shade_oracles10interfaces6commons_1__NtBb_11OracleQueryNtNtCs6CjExPaL98u_5serde2de11Deserialize11deserializeNtB6_9___VisitorNtB1q_7Visitor10visit_enumpEBf_
FN:363,_RNvYpNtNtNtCs7ttpGOJz6iy_13shade_oracles10interfaces6common6Oracle10price_respB9_
FN:26,_RNvXs9_NtNtCs7ttpGOJz6iy_13shade_oracles10interfaces6commonNtB5_11OracleQueryNtNtCs59N989QkIgV_4core3cmp9PartialEq2neB9_
FN:44,_RINvXs0_NvXNvNtNtCs7ttpGOJz6iy_13shade_oracles10interfaces6commons5_1__NtBb_13PriceResponseNtNtCs6CjExPaL98u_5serde2de11Deserialize11deserializeNtB6_9___VisitorNtB1t_7Visitor9visit_seqpEBf_
FN:58,_RNvXsn_NtNtCs7ttpGOJz6iy_13shade_oracles10interfaces6commonNtB5_10ExecuteMsgNtNtCs59N989QkIgV_4core5clone5Clone5cloneB9_
FN:63,_RNvXsu_NtNtCs7ttpGOJz6iy_13shade_oracles10interfaces6commonNtB5_13ConfigUpdatesNtNtCs59N989QkIgV_4core3cmp9PartialEq2eqB9_
FN:63,_RINvXs0_NvXNvNtNtCs7ttpGOJz6iy_13shade_oracles10interfaces6commonse_1__NtBb_13ConfigUpdatesNtNtCs6CjExPaL98u_5serde2de11Deserialize11deserializeNtB6_9___VisitorNtB1t_7Visitor9visit_mappEBf_
FN:39,_RINvXNvXNvNtNtCs7ttpGOJz6iy_13shade_oracles10interfaces6commons2_1__NtB8_14ConfigResponseNtNtCs6CjExPaL98u_5serde2de11Deserialize11deserializeNtB3_14___FieldVisitorNtB1r_7Visitor9visit_u64pEBc_
FN:26,_RINvXNvXNvNtNtCs7ttpGOJz6iy_13shade_oracles10interfaces6commons_1__NtB8_11OracleQueryNtNtCs6CjExPaL98u_5serde2de11Deserialize11deserializeNtB3_14___FieldVisitorNtB1n_7Visitor9visit_u64pEBc_
FN:26,_RINvXs4_NvXs0_NvXNvNtNtCs7ttpGOJz6iy_13shade_oracles10interfaces6commons_1__NtBh_11OracleQueryNtNtCs6CjExPaL98u_5serde2de11Deserialize11deserializeNtBc_9___VisitorNtB1w_7Visitor10visit_enumNtB6_s0_14___FieldVisitorB2B_11visit_bytespEBl_
FN:80,_RNvXsv_NtNtCs7ttpGOJz6iy_13shade_oracles10interfaces6commonNtB5_23InstantiateCommonConfigNtNtCs59N989QkIgV_4core5clone5Clone5cloneB9_
FN:49,_RNvXsm_NtNtCs7ttpGOJz6iy_13shade_oracles10interfaces6commonNtB5_14PricesResponseNtNtCs59N989QkIgV_4core3cmp9PartialEq2eqB9_
FN:130,_RNvXsz_NtNtCs7ttpGOJz6iy_13shade_oracles10interfaces6commonNtB5_12CommonConfigNtNtCs59N989QkIgV_4core5clone5Clone5cloneB9_
FN:80,_RINvXs0_NvXNvNtNtCs7ttpGOJz6iy_13shade_oracles10interfaces6commonsh_1__NtBb_23InstantiateCommonConfigNtNtCs6CjExPaL98u_5serde2de11Deserialize11deserializeNtB6_9___VisitorNtB1D_7Visitor9visit_seqpEBf_
FN:26,_RNvXs6_NtNtCs7ttpGOJz6iy_13shade_oracles10interfaces6commonNtB5_11OracleQueryNtNtCs59N989QkIgV_4core5clone5Clone5cloneB9_
FN:58,_RINvXs0_NvXs0_NvXNvNtNtCs7ttpGOJz6iy_13shade_oracles10interfaces6commonsb_1__NtBh_10ExecuteMsgNtNtCs6CjExPaL98u_5serde2de11Deserialize11deserializeNtBc_9___VisitorNtB1w_7Visitor10visit_enumNtB6_9___VisitorB2B_9visit_seqpEBl_
FN:49,_RNvXsm_NtNtCs7ttpGOJz6iy_13shade_oracles10interfaces6commonNtB5_14PricesResponseNtNtCs59N989QkIgV_4core3cmp9PartialEq2neB9_
FN:80,_RINvXNvXNvNtNtCs7ttpGOJz6iy_13shade_oracles10interfaces6commonsh_1__NtB8_23InstantiateCommonConfigNtNtCs6CjExPaL98u_5serde2de11Deserialize11deserializeNtB3_14___FieldVisitorNtB1A_7Visitor9visit_u64pEBc_
FN:26,_RINvXs6_NvXs0_NvXNvNtNtCs7ttpGOJz6iy_13shade_oracles10interfaces6commons_1__NtBh_11OracleQueryNtNtCs6CjExPaL98u_5serde2de11Deserialize11deserializeNtBc_9___VisitorNtB1w_7Visitor10visit_enumNtB6_s0_9___VisitorB2B_9visit_mappEBl_
FN:148,_RNvXsK_NtNtCs7ttpGOJz6iy_13shade_oracles10interfaces6commonNtB5_11OraclePriceNtNtCs59N989QkIgV_4core3cmp9PartialEq2neB9_
FN:26,_RINvXs1_NvXs0_NvXNvNtNtCs7ttpGOJz6iy_13shade_oracles10interfaces6commons_1__NtBh_11OracleQueryNtNtCs6CjExPaL98u_5serde2de11Deserialize11deserializeNtBc_9___VisitorNtB1w_7Visitor10visit_enumNtB6_s_14___FieldVisitorB2B_9visit_strpEBl_
FN:381,_RNvYpNtNtNtCs7ttpGOJz6iy_13shade_oracles10interfaces6common6Oracle16can_query_pricesB9_
FN:63,_RINvXNvNtNtCs7ttpGOJz6iy_13shade_oracles10interfaces6commonsd_1__NtB5_13ConfigUpdatesNtNtCs6CjExPaL98u_5serde3ser9Serialize9serializepEB9_
FN:49,_RINvXNvNtNtCs7ttpGOJz6iy_13shade_oracles10interfaces6commons7_1__NtB5_14PricesResponseNtNtCs6CjExPaL98u_5serde3ser9Serialize9serializepEB9_
FN:143,_RINvXNvNtNtCs7ttpGOJz6iy_13shade_oracles10interfaces6commonsn_1__NtB5_12HandleAnswerNtNtCs6CjExPaL98u_5serde2de11Deserialize11deserializepEB9_
FN:44,_RINvXNvXNvNtNtCs7ttpGOJz6iy_13shade_oracles10interfaces6commons5_1__NtB8_13PriceResponseNtNtCs6CjExPaL98u_5serde2de11Deserialize11deserializeNtB3_14___FieldVisitorNtB1q_7Visitor11visit_bytespEBc_
FN:130,_RINvXNvNtNtCs7ttpGOJz6iy_13shade_oracles10interfaces6commonsj_1__NtB5_12CommonConfigNtNtCs6CjExPaL98u_5serde3ser9Serialize9serializepEB9_
FN:26,_RINvXNvXs0_NvXNvNtNtCs7ttpGOJz6iy_13shade_oracles10interfaces6commons_1__NtBe_11OracleQueryNtNtCs6CjExPaL98u_5serde2de11Deserialize11deserializeNtB9_9___VisitorNtB1t_7Visitor10visit_enumNtB3_14___FieldVisitorB2y_9visit_u64pEBi_
FN:58,_RINvXNvNtNtCs7ttpGOJz6iy_13shade_oracles10interfaces6commonsb_1__NtB5_10ExecuteMsgNtNtCs6CjExPaL98u_5serde2de11Deserialize11deserializepEB9_
FN:26,_RINvXs_NvXs0_NvXNvNtNtCs7ttpGOJz6iy_13shade_oracles10interfaces6commons_1__NtBg_11OracleQueryNtNtCs6CjExPaL98u_5serde2de11Deserialize11deserializeNtBb_9___VisitorNtB1v_7Visitor10visit_enumNtB5_7___FieldB1t_11deserializepEBk_
FN:49,_RINvXNvXNvNtNtCs7ttpGOJz6iy_13shade_oracles10interfaces6commons8_1__NtB8_14PricesResponseNtNtCs6CjExPaL98u_5serde2de11Deserialize11deserializeNtB3_14___FieldVisitorNtB1r_7Visitor9visit_u64pEBc_
FN:58,_RINvXs0_NvXNvNtNtCs7ttpGOJz6iy_13shade_oracles10interfaces6commonsb_1__NtBb_10ExecuteMsgNtNtCs6CjExPaL98u_5serde2de11Deserialize11deserializeNtB6_9___VisitorNtB1q_7Visitor10visit_enumpEBf_
FN:148,_RINvXNvNtNtCs7ttpGOJz6iy_13shade_oracles10interfaces6commonsp_1__NtB5_11OraclePriceNtNtCs6CjExPaL98u_5serde3ser9Serialize9serializepEB9_
FN:143,_RINvXs0_NvXs0_NvXNvNtNtCs7ttpGOJz6iy_13shade_oracles10interfaces6commonsn_1__NtBh_12HandleAnswerNtNtCs6CjExPaL98u_5serde2de11Deserialize11deserializeNtBc_9___VisitorNtB1y_7Visitor10visit_enumNtB6_9___VisitorB2D_9visit_mappEBl_
FN:311,_RNvYpNtNtNtCs7ttpGOJz6iy_13shade_oracles10interfaces6common6Oracle11init_configB9_
FN:143,_RINvXNvXNvNtNtCs7ttpGOJz6iy_13shade_oracles10interfaces6commonsn_1__NtB8_12HandleAnswerNtNtCs6CjExPaL98u_5serde2de11Deserialize11deserializeNtB3_14___FieldVisitorNtB1p_7Visitor9visit_u64pEBc_
FN:26,_RINvXs2_NvXs0_NvXNvNtNtCs7ttpGOJz6iy_13shade_oracles10interfaces6commons_1__NtBh_11OracleQueryNtNtCs6CjExPaL98u_5serde2de11Deserialize11deserializeNtBc_9___VisitorNtB1w_7Visitor10visit_enumNtB6_s_7___FieldB1u_11deserializepEBl_
FN:39,_RNvXse_NtNtCs7ttpGOJz6iy_13shade_oracles10interfaces6commonNtB5_14ConfigResponseNtNtCs59N989QkIgV_4core3cmp9PartialEq2eqB9_
FN:269,_RINvNtNtCs7ttpGOJz6iy_13shade_oracles10interfaces6common12oracle_querypEB6_
FN:39,_RINvXNvXNvNtNtCs7ttpGOJz6iy_13shade_oracles10interfaces6commons2_1__NtB8_14ConfigResponseNtNtCs6CjExPaL98u_5serde2de11Deserialize11deserializeNtB3_14___FieldVisitorNtB1r_7Visitor11visit_bytespEBc_
FN:58,_RINvXNvXs0_NvXNvNtNtCs7ttpGOJz6iy_13shade_oracles10interfaces6commonsb_1__NtBe_10ExecuteMsgNtNtCs6CjExPaL98u_5serde2de11Deserialize11deserializeNtB9_9___VisitorNtB1t_7Visitor10visit_enumNtB3_14___FieldVisitorB2y_11visit_bytespEBi_
FN:26,_RINvXs3_NvXs0_NvXNvNtNtCs7ttpGOJz6iy_13shade_oracles10interfaces6commons_1__NtBh_11OracleQueryNtNtCs6CjExPaL98u_5serde2de11Deserialize11deserializeNtBc_9___VisitorNtB1w_7Visitor10visit_enumNtB6_s_9___VisitorB2B_9visit_mappEBl_
FN:143,_RINvXNvXs0_NvXNvNtNtCs7ttpGOJz6iy_13shade_oracles10interfaces6commonsn_1__NtBe_12HandleAnswerNtNtCs6CjExPaL98u_5serde2de11Deserialize11deserializeNtB9_9___VisitorNtB1v_7Visitor10visit_enumNtB3_14___FieldVisitorB2A_11visit_bytespEBi_
FN:80,_RINvXs0_NvXNvNtNtCs7ttpGOJz6iy_13shade_oracles10interfaces6commonsh_1__NtBb_23InstantiateCommonConfigNtNtCs6CjExPaL98u_5serde2de11Deserialize11deserializeNtB6_9___VisitorNtB1D_7Visitor9visit_mappEBf_
FN:58,_RNvXsq_NtNtCs7ttpGOJz6iy_13shade_oracles10interfaces6commonNtB5_10ExecuteMsgNtNtCs59N989QkIgV_4core3cmp9PartialEq2neB9_
FN:39,_RINvXNvNtNtCs7ttpGOJz6iy_13shade_oracles10interfaces6commons1_1__NtB5_14ConfigResponseNtNtCs6CjExPaL98u_5serde3ser9Serialize9serializepEB9_
FN:143,_RINvXs0_NvXs0_NvXNvNtNtCs7ttpGOJz6iy_13shade_oracles10interfaces6commonsn_1__NtBh_12HandleAnswerNtNtCs6CjExPaL98u_5serde2de11Deserialize11deserializeNtBc_9___VisitorNtB1y_7Visitor10visit_enumNtB6_9___VisitorB2D_9visit_seqpEBl_
FN:44,_RINvXNvXNvNtNtCs7ttpGOJz6iy_13shade_oracles10interfaces6commons5_1__NtB8_13PriceResponseNtNtCs6CjExPaL98u_5serde2de11Deserialize11deserializeNtB3_14___FieldVisitorNtB1q_7Visitor9visit_u64pEBc_
FN:58,_RNvXsq_NtNtCs7ttpGOJz6iy_13shade_oracles10interfaces6commonNtB5_10ExecuteMsgNtNtCs59N989QkIgV_4core3cmp9PartialEq2eqB9_
FN:343,_RNCNvYpNtNtNtCs7ttpGOJz6iy_13shade_oracles10interfaces6common6Oracle17try_update_config0Bb_
FN:148,_RINvXNvXNvNtNtCs7ttpGOJz6iy_13shade_oracles10interfaces6commonsq_1__NtB8_11OraclePriceNtNtCs6CjExPaL98u_5serde2de11Deserialize11deserializeNtB3_14___FieldVisitorNtB1o_7Visitor9visit_u64pEBc_
FN:143,_RINvXs_NvXNvNtNtCs7ttpGOJz6iy_13shade_oracles10interfaces6commonsn_1__NtBa_12HandleAnswerNtNtCs6CjExPaL98u_5serde2de11Deserialize11deserializeNtB5_7___FieldB1p_11deserializepEBe_
FN:63,_RINvXs_NvXNvNtNtCs7ttpGOJz6iy_13shade_oracles10interfaces6commonse_1__NtBa_13ConfigUpdatesNtNtCs6CjExPaL98u_5serde2de11Deserialize11deserializeNtB5_7___FieldB1q_11deserializepEBe_
FN:63,_RINvXNvXNvNtNtCs7ttpGOJz6iy_13shade_oracles10interfaces6commonse_1__NtB8_13ConfigUpdatesNtNtCs6CjExPaL98u_5serde2de11Deserialize11deserializeNtB3_14___FieldVisitorNtB1q_7Visitor11visit_bytespEBc_
FN:44,_RINvXNvNtNtCs7ttpGOJz6iy_13shade_oracles10interfaces6commons4_1__NtB5_13PriceResponseNtNtCs6CjExPaL98u_5serde3ser9Serialize9serializepEB9_
FN:63,_RNvXsr_NtNtCs7ttpGOJz6iy_13shade_oracles10interfaces6commonNtB5_13ConfigUpdatesNtNtCs59N989QkIgV_4core5clone5Clone5cloneB9_
FN:26,_RINvXs1_NvXs0_NvXNvNtNtCs7ttpGOJz6iy_13shade_oracles10interfaces6commons_1__NtBh_11OracleQueryNtNtCs6CjExPaL98u_5serde2de11Deserialize11deserializeNtBc_9___VisitorNtB1w_7Visitor10visit_enumNtB6_s_14___FieldVisitorB2B_9visit_u64pEBl_
FN:143,_RNvXsG_NtNtCs7ttpGOJz6iy_13shade_oracles10interfaces6commonNtB5_12HandleAnswerNtNtCs59N989QkIgV_4core3cmp9PartialEq2neB9_
FN:58,_RINvXNvXNvNtNtCs7ttpGOJz6iy_13shade_oracles10interfaces6commonsb_1__NtB8_10ExecuteMsgNtNtCs6CjExPaL98u_5serde2de11Deserialize11deserializeNtB3_14___FieldVisitorNtB1n_7Visitor9visit_strpEBc_
FN:335,_RNvYpNtNtNtCs7ttpGOJz6iy_13shade_oracles10interfaces6common6Oracle17try_update_configB9_
FN:26,_RINvXNvXNvNtNtCs7ttpGOJz6iy_13shade_oracles10interfaces6commons_1__NtB8_11OracleQueryNtNtCs6CjExPaL98u_5serde2de11Deserialize11deserializeNtB3_14___FieldVisitorNtB1n_7Visitor9visit_strpEBc_
FN:63,_RINvXs0_NvXNvNtNtCs7ttpGOJz6iy_13shade_oracles10interfaces6commonse_1__NtBb_13ConfigUpdatesNtNtCs6CjExPaL98u_5serde2de11Deserialize11deserializeNtB6_9___VisitorNtB1t_7Visitor9visit_seqpEBf_
FN:26,_RINvXs_NvXNvNtNtCs7ttpGOJz6iy_13shade_oracles10interfaces6commons_1__NtBa_11OracleQueryNtNtCs6CjExPaL98u_5serde2de11Deserialize11deserializeNtB5_7___FieldB1n_11deserializepEBe_
FN:39,_RINvXs0_NvXNvNtNtCs7ttpGOJz6iy_13shade_oracles10interfaces6commons2_1__NtBb_14ConfigResponseNtNtCs6CjExPaL98u_5serde2de11Deserialize11deserializeNtB6_9___VisitorNtB1u_7Visitor9visit_seqpEBf_
FN:26,_RINvXNvXs0_NvXNvNtNtCs7ttpGOJz6iy_13shade_oracles10interfaces6commons_1__NtBe_11OracleQueryNtNtCs6CjExPaL98u_5serde2de11Deserialize11deserializeNtB9_9___VisitorNtB1t_7Visitor10visit_enumNtB3_14___FieldVisitorB2y_11visit_bytespEBi_
FN:130,_RINvXNvXNvNtNtCs7ttpGOJz6iy_13shade_oracles10interfaces6commonsk_1__NtB8_12CommonConfigNtNtCs6CjExPaL98u_5serde2de11Deserialize11deserializeNtB3_14___FieldVisitorNtB1p_7Visitor9visit_u64pEBc_
FN:143,_RNvXsD_NtNtCs7ttpGOJz6iy_13shade_oracles10interfaces6commonNtB5_12HandleAnswerNtNtCs59N989QkIgV_4core5clone5Clone5cloneB9_
FN:44,_RNvXsi_NtNtCs7ttpGOJz6iy_13shade_oracles10interfaces6commonNtB5_13PriceResponseNtNtCs59N989QkIgV_4core3cmp9PartialEq2neB9_
FN:44,_RNvXsi_NtNtCs7ttpGOJz6iy_13shade_oracles10interfaces6commonNtB5_13PriceResponseNtNtCs59N989QkIgV_4core3cmp9PartialEq2eqB9_
FN:26,_RINvXs4_NvXs0_NvXNvNtNtCs7ttpGOJz6iy_13shade_oracles10interfaces6commons_1__NtBh_11OracleQueryNtNtCs6CjExPaL98u_5serde2de11Deserialize11deserializeNtBc_9___VisitorNtB1w_7Visitor10visit_enumNtB6_s0_14___FieldVisitorB2B_9visit_u64pEBl_
FN:39,_RINvXNvXNvNtNtCs7ttpGOJz6iy_13shade_oracles10interfaces6commons2_1__NtB8_14ConfigResponseNtNtCs6CjExPaL98u_5serde2de11Deserialize11deserializeNtB3_14___FieldVisitorNtB1r_7Visitor9visit_strpEBc_
FN:26,_RINvXs3_NvXs0_NvXNvNtNtCs7ttpGOJz6iy_13shade_oracles10interfaces6commons_1__NtBh_11OracleQueryNtNtCs6CjExPaL98u_5serde2de11Deserialize11deserializeNtBc_9___VisitorNtB1w_7Visitor10visit_enumNtB6_s_9___VisitorB2B_9visit_seqpEBl_
FN:39,_RNvXse_NtNtCs7ttpGOJz6iy_13shade_oracles10interfaces6commonNtB5_14ConfigResponseNtNtCs59N989QkIgV_4core3cmp9PartialEq2neB9_
FN:26,_RINvXNvNtNtCs7ttpGOJz6iy_13shade_oracles10interfaces6commons_1__NtB5_11OracleQueryNtNtCs6CjExPaL98u_5serde2de11Deserialize11deserializepEB9_
FN:80,_RNvXsy_NtNtCs7ttpGOJz6iy_13shade_oracles10interfaces6commonNtB5_23InstantiateCommonConfigNtNtCs59N989QkIgV_4core3cmp9PartialEq2eqB9_
FN:148,_RNvXsH_NtNtCs7ttpGOJz6iy_13shade_oracles10interfaces6commonNtB5_11OraclePriceNtNtCs59N989QkIgV_4core5clone5Clone5cloneB9_
FN:44,_RNvXsf_NtNtCs7ttpGOJz6iy_13shade_oracles10interfaces6commonNtB5_13PriceResponseNtNtCs59N989QkIgV_4core5clone5Clone5cloneB9_
FN:143,_RINvXNvXNvNtNtCs7ttpGOJz6iy_13shade_oracles10interfaces6commonsn_1__NtB8_12HandleAnswerNtNtCs6CjExPaL98u_5serde2de11Deserialize11deserializeNtB3_14___FieldVisitorNtB1p_7Visitor9visit_strpEBc_
FN:63,_RINvXNvXNvNtNtCs7ttpGOJz6iy_13shade_oracles10interfaces6commonse_1__NtB8_13ConfigUpdatesNtNtCs6CjExPaL98u_5serde2de11Deserialize11deserializeNtB3_14___FieldVisitorNtB1q_7Visitor9visit_strpEBc_
FN:63,_RINvXNvNtNtCs7ttpGOJz6iy_13shade_oracles10interfaces6commonse_1__NtB5_13ConfigUpdatesNtNtCs6CjExPaL98u_5serde2de11Deserialize11deserializepEB9_
FN:130,_RINvXNvXNvNtNtCs7ttpGOJz6iy_13shade_oracles10interfaces6commonsk_1__NtB8_12CommonConfigNtNtCs6CjExPaL98u_5serde2de11Deserialize11deserializeNtB3_14___FieldVisitorNtB1p_7Visitor11visit_bytespEBc_
FN:26,_RINvXs0_NvXs0_NvXNvNtNtCs7ttpGOJz6iy_13shade_oracles10interfaces6commons_1__NtBh_11OracleQueryNtNtCs6CjExPaL98u_5serde2de11Deserialize11deserializeNtBc_9___VisitorNtB1w_7Visitor10visit_enumNtB6_9___VisitorB2B_9visit_seqpEBl_
FN:130,_RINvXNvXNvNtNtCs7ttpGOJz6iy_13shade_oracles10interfaces6commonsk_1__NtB8_12CommonConfigNtNtCs6CjExPaL98u_5serde2de11Deserialize11deserializeNtB3_14___FieldVisitorNtB1p_7Visitor9visit_strpEBc_
FN:148,_RINvXs0_NvXNvNtNtCs7ttpGOJz6iy_13shade_oracles10interfaces6commonsq_1__NtBb_11OraclePriceNtNtCs6CjExPaL98u_5serde2de11Deserialize11deserializeNtB6_9___VisitorNtB1r_7Visitor9visit_seqpEBf_
FN:80,_RINvXNvNtNtCs7ttpGOJz6iy_13shade_oracles10interfaces6commonsg_1__NtB5_23InstantiateCommonConfigNtNtCs6CjExPaL98u_5serde3ser9Serialize9serializepEB9_
FN:63,_RNvXsu_NtNtCs7ttpGOJz6iy_13shade_oracles10interfaces6commonNtB5_13ConfigUpdatesNtNtCs59N989QkIgV_4core3cmp9PartialEq2neB9_
FN:49,_RINvXs0_NvXNvNtNtCs7ttpGOJz6iy_13shade_oracles10interfaces6commons8_1__NtBb_14PricesResponseNtNtCs6CjExPaL98u_5serde2de11Deserialize11deserializeNtB6_9___VisitorNtB1u_7Visitor9visit_seqpEBf_
FN:80,_RINvXNvNtNtCs7ttpGOJz6iy_13shade_oracles10interfaces6commonsh_1__NtB5_23InstantiateCommonConfigNtNtCs6CjExPaL98u_5serde2de11Deserialize11deserializepEB9_
FN:58,_RINvXNvXs0_NvXNvNtNtCs7ttpGOJz6iy_13shade_oracles10interfaces6commonsb_1__NtBe_10ExecuteMsgNtNtCs6CjExPaL98u_5serde2de11Deserialize11deserializeNtB9_9___VisitorNtB1t_7Visitor10visit_enumNtB3_14___FieldVisitorB2y_9visit_strpEBi_
FN:143,_RNvXsG_NtNtCs7ttpGOJz6iy_13shade_oracles10interfaces6commonNtB5_12HandleAnswerNtNtCs59N989QkIgV_4core3cmp9PartialEq2eqB9_
FN:143,_RINvXs_NvXs0_NvXNvNtNtCs7ttpGOJz6iy_13shade_oracles10interfaces6commonsn_1__NtBg_12HandleAnswerNtNtCs6CjExPaL98u_5serde2de11Deserialize11deserializeNtBb_9___VisitorNtB1x_7Visitor10visit_enumNtB5_7___FieldB1v_11deserializepEBk_
FN:323,_RNvYpNtNtNtCs7ttpGOJz6iy_13shade_oracles10interfaces6common6Oracle12verify_adminB9_
FN:252,_RINvNtNtCs7ttpGOJz6iy_13shade_oracles10interfaces6common11oracle_execpEB6_
FN:387,_RNCNvYpNtNtNtCs7ttpGOJz6iy_13shade_oracles10interfaces6common6Oracle16can_query_prices0Bb_
FN:143,_RINvXs0_NvXNvNtNtCs7ttpGOJz6iy_13shade_oracles10interfaces6commonsn_1__NtBb_12HandleAnswerNtNtCs6CjExPaL98u_5serde2de11Deserialize11deserializeNtB6_9___VisitorNtB1s_7Visitor10visit_enumpEBf_
FN:367,_RNvYpNtNtNtCs7ttpGOJz6iy_13shade_oracles10interfaces6common6Oracle11prices_respB9_
FN:130,_RINvXs0_NvXNvNtNtCs7ttpGOJz6iy_13shade_oracles10interfaces6commonsk_1__NtBb_12CommonConfigNtNtCs6CjExPaL98u_5serde2de11Deserialize11deserializeNtB6_9___VisitorNtB1s_7Visitor9visit_seqpEBf_
FN:80,_RINvXNvXNvNtNtCs7ttpGOJz6iy_13shade_oracles10interfaces6commonsh_1__NtB8_23InstantiateCommonConfigNtNtCs6CjExPaL98u_5serde2de11Deserialize11deserializeNtB3_14___FieldVisitorNtB1A_7Visitor11visit_bytespEBc_
FN:26,_RINvXs5_NvXs0_NvXNvNtNtCs7ttpGOJz6iy_13shade_oracles10interfaces6commons_1__NtBh_11OracleQueryNtNtCs6CjExPaL98u_5serde2de11Deserialize11deserializeNtBc_9___VisitorNtB1w_7Visitor10visit_enumNtB6_s0_7___FieldB1u_11deserializepEBl_
FN:397,_RNvYpNtNtNtCs7ttpGOJz6iy_13shade_oracles10interfaces6common6Oracle15can_query_priceB9_
FN:58,_RINvXNvXNvNtNtCs7ttpGOJz6iy_13shade_oracles10interfaces6commonsb_1__NtB8_10ExecuteMsgNtNtCs6CjExPaL98u_5serde2de11Deserialize11deserializeNtB3_14___FieldVisitorNtB1n_7Visitor11visit_bytespEBc_
FN:39,_RINvXNvNtNtCs7ttpGOJz6iy_13shade_oracles10interfaces6commons2_1__NtB5_14ConfigResponseNtNtCs6CjExPaL98u_5serde2de11Deserialize11deserializepEB9_
FN:80,_RINvXs_NvXNvNtNtCs7ttpGOJz6iy_13shade_oracles10interfaces6commonsh_1__NtBa_23InstantiateCommonConfigNtNtCs6CjExPaL98u_5serde2de11Deserialize11deserializeNtB5_7___FieldB1A_11deserializepEBe_
FN:58,_RINvXs0_NvXs0_NvXNvNtNtCs7ttpGOJz6iy_13shade_oracles10interfaces6commonsb_1__NtBh_10ExecuteMsgNtNtCs6CjExPaL98u_5serde2de11Deserialize11deserializeNtBc_9___VisitorNtB1w_7Visitor10visit_enumNtB6_9___VisitorB2B_9visit_mappEBl_
FN:407,_RNvYpNtNtNtCs7ttpGOJz6iy_13shade_oracles10interfaces6common6Oracle16try_query_pricesB9_
FN:26,_RINvXs6_NvXs0_NvXNvNtNtCs7ttpGOJz6iy_13shade_oracles10interfaces6commons_1__NtBh_11OracleQueryNtNtCs6CjExPaL98u_5serde2de11Deserialize11deserializeNtBc_9___VisitorNtB1w_7Visitor10visit_enumNtB6_s0_9___VisitorB2B_9visit_seqpEBl_
FN:49,_RINvXNvXNvNtNtCs7ttpGOJz6iy_13shade_oracles10interfaces6commons8_1__NtB8_14PricesResponseNtNtCs6CjExPaL98u_5serde2de11Deserialize11deserializeNtB3_14___FieldVisitorNtB1r_7Visitor11visit_bytespEBc_
FN:130,_RINvXs0_NvXNvNtNtCs7ttpGOJz6iy_13shade_oracles10interfaces6commonsk_1__NtBb_12CommonConfigNtNtCs6CjExPaL98u_5serde2de11Deserialize11deserializeNtB6_9___VisitorNtB1s_7Visitor9visit_mappEBf_
FN:58,_RINvXNvXNvNtNtCs7ttpGOJz6iy_13shade_oracles10interfaces6commonsb_1__NtB8_10ExecuteMsgNtNtCs6CjExPaL98u_5serde2de11Deserialize11deserializeNtB3_14___FieldVisitorNtB1n_7Visitor9visit_u64pEBc_
FN:143,_RINvXNvXNvNtNtCs7ttpGOJz6iy_13shade_oracles10interfaces6commonsn_1__NtB8_12HandleAnswerNtNtCs6CjExPaL98u_5serde2de11Deserialize11deserializeNtB3_14___FieldVisitorNtB1p_7Visitor11visit_bytespEBc_
FN:148,_RINvXNvXNvNtNtCs7ttpGOJz6iy_13shade_oracles10interfaces6commonsq_1__NtB8_11OraclePriceNtNtCs6CjExPaL98u_5serde2de11Deserialize11deserializeNtB3_14___FieldVisitorNtB1o_7Visitor11visit_bytespEBc_
FN:63,_RINvXNvXNvNtNtCs7ttpGOJz6iy_13shade_oracles10interfaces6commonse_1__NtB8_13ConfigUpdatesNtNtCs6CjExPaL98u_5serde2de11Deserialize11deserializeNtB3_14___FieldVisitorNtB1q_7Visitor9visit_u64pEBc_
FN:143,_RINvXNvNtNtCs7ttpGOJz6iy_13shade_oracles10interfaces6commonsm_1__NtB5_12HandleAnswerNtNtCs6CjExPaL98u_5serde3ser9Serialize9serializepEB9_
FN:26,_RINvXs4_NvXs0_NvXNvNtNtCs7ttpGOJz6iy_13shade_oracles10interfaces6commons_1__NtBh_11OracleQueryNtNtCs6CjExPaL98u_5serde2de11Deserialize11deserializeNtBc_9___VisitorNtB1w_7Visitor10visit_enumNtB6_s0_14___FieldVisitorB2B_9visit_strpEBl_
FN:58,_RINvXNvXs0_NvXNvNtNtCs7ttpGOJz6iy_13shade_oracles10interfaces6commonsb_1__NtBe_10ExecuteMsgNtNtCs6CjExPaL98u_5serde2de11Deserialize11deserializeNtB9_9___VisitorNtB1t_7Visitor10visit_enumNtB3_14___FieldVisitorB2y_9visit_u64pEBi_
FN:39,_RINvXs0_NvXNvNtNtCs7ttpGOJz6iy_13shade_oracles10interfaces6commons2_1__NtBb_14ConfigResponseNtNtCs6CjExPaL98u_5serde2de11Deserialize11deserializeNtB6_9___VisitorNtB1u_7Visitor9visit_mappEBf_
FN:58,_RINvXs_NvXNvNtNtCs7ttpGOJz6iy_13shade_oracles10interfaces6commonsb_1__NtBa_10ExecuteMsgNtNtCs6CjExPaL98u_5serde2de11Deserialize11deserializeNtB5_7___FieldB1n_11deserializepEBe_
FN:143,_RINvXNvXs0_NvXNvNtNtCs7ttpGOJz6iy_13shade_oracles10interfaces6commonsn_1__NtBe_12HandleAnswerNtNtCs6CjExPaL98u_5serde2de11Deserialize11deserializeNtB9_9___VisitorNtB1v_7Visitor10visit_enumNtB3_14___FieldVisitorB2A_9visit_u64pEBi_
FN:130,_RINvXNvNtNtCs7ttpGOJz6iy_13shade_oracles10interfaces6commonsk_1__NtB5_12CommonConfigNtNtCs6CjExPaL98u_5serde2de11Deserialize11deserializepEB9_
FN:49,_RNvXsj_NtNtCs7ttpGOJz6iy_13shade_oracles10interfaces6commonNtB5_14PricesResponseNtNtCs59N989QkIgV_4core5clone5Clone5cloneB9_
FN:58,_RINvXNvNtNtCs7ttpGOJz6iy_13shade_oracles10interfaces6commonsa_1__NtB5_10ExecuteMsgNtNtCs6CjExPaL98u_5serde3ser9Serialize9serializepEB9_
FN:80,_RINvXNvXNvNtNtCs7ttpGOJz6iy_13shade_oracles10interfaces6commonsh_1__NtB8_23InstantiateCommonConfigNtNtCs6CjExPaL98u_5serde2de11Deserialize11deserializeNtB3_14___FieldVisitorNtB1A_7Visitor9visit_strpEBc_
FN:39,_RINvXs_NvXNvNtNtCs7ttpGOJz6iy_13shade_oracles10interfaces6commons2_1__NtBa_14ConfigResponseNtNtCs6CjExPaL98u_5serde2de11Deserialize11deserializeNtB5_7___FieldB1r_11deserializepEBe_
FN:26,_RINvXs1_NvXs0_NvXNvNtNtCs7ttpGOJz6iy_13shade_oracles10interfaces6commons_1__NtBh_11OracleQueryNtNtCs6CjExPaL98u_5serde2de11Deserialize11deserializeNtBc_9___VisitorNtB1w_7Visitor10visit_enumNtB6_s_14___FieldVisitorB2B_11visit_bytespEBl_
FN:130,_RNvXsC_NtNtCs7ttpGOJz6iy_13shade_oracles10interfaces6commonNtB5_12CommonConfigNtNtCs59N989QkIgV_4core3cmp9PartialEq2eqB9_
FN:143,_RINvXNvXs0_NvXNvNtNtCs7ttpGOJz6iy_13shade_oracles10interfaces6commonsn_1__NtBe_12HandleAnswerNtNtCs6CjExPaL98u_5serde2de11Deserialize11deserializeNtB9_9___VisitorNtB1v_7Visitor10visit_enumNtB3_14___FieldVisitorB2A_9visit_strpEBi_
FN:26,_RINvXs0_NvXs0_NvXNvNtNtCs7ttpGOJz6iy_13shade_oracles10interfaces6commons_1__NtBh_11OracleQueryNtNtCs6CjExPaL98u_5serde2de11Deserialize11deserializeNtBc_9___VisitorNtB1w_7Visitor10visit_enumNtB6_9___VisitorB2B_9visit_mappEBl_
FN:359,_RNvYpNtNtNtCs7ttpGOJz6iy_13shade_oracles10interfaces6common6Oracle11config_respB9_
FN:26,_RNvXs9_NtNtCs7ttpGOJz6iy_13shade_oracles10interfaces6commonNtB5_11OracleQueryNtNtCs59N989QkIgV_4core3cmp9PartialEq2eqB9_
FN:44,_RNvXNvNtNtCs7ttpGOJz6iy_13shade_oracles10interfaces6commons6_1__NtB4_13PriceResponseNtCs8g2TqZEio7D_8schemars10JsonSchema11schema_name
FN:58,_RNvXs0_NvXs0_NvXNvNtNtCs7ttpGOJz6iy_13shade_oracles10interfaces6commonsb_1__NtBg_10ExecuteMsgNtNtCs6CjExPaL98u_5serde2de11Deserialize11deserializeNtBb_9___VisitorNtB1v_7Visitor10visit_enumNtB5_9___VisitorB2A_9expecting
FN:27,_RNvXsa_NtNtCs7ttpGOJz6iy_13shade_oracles10interfaces6commonNtB5_11OracleQueryNtNtCs6wB797emF0g_15cosmwasm_schema14query_response14QueryResponses21response_schemas_impl
FN:63,_RNvXNvNtNtCs7ttpGOJz6iy_13shade_oracles10interfaces6commonsf_1__NtB4_13ConfigUpdatesNtCs8g2TqZEio7D_8schemars10JsonSchema11json_schema
FN:143,_RNvXNvXs0_NvXNvNtNtCs7ttpGOJz6iy_13shade_oracles10interfaces6commonsn_1__NtBd_12HandleAnswerNtNtCs6CjExPaL98u_5serde2de11Deserialize11deserializeNtB8_9___VisitorNtB1u_7Visitor10visit_enumNtB2_14___FieldVisitorB2z_9expecting
FN:98,_RNvMs_NtNtCs7ttpGOJz6iy_13shade_oracles10interfaces6commonNtB4_23InstantiateCommonConfig3new
FN:130,_RNvXNvXNvNtNtCs7ttpGOJz6iy_13shade_oracles10interfaces6commonsk_1__NtB7_12CommonConfigNtNtCs6CjExPaL98u_5serde2de11Deserialize11deserializeNtB2_14___FieldVisitorNtB1o_7Visitor9expecting
FN:58,_RNvXs0_NvXNvNtNtCs7ttpGOJz6iy_13shade_oracles10interfaces6commonsb_1__NtBa_10ExecuteMsgNtNtCs6CjExPaL98u_5serde2de11Deserialize11deserializeNtB5_9___VisitorNtB1p_7Visitor9expecting
FN:203,_RNvMs3_NtNtCs7ttpGOJz6iy_13shade_oracles10interfaces6commonNtB5_14BtrOraclePrice10calc_value
FN:130,_RNvXNvNtNtCs7ttpGOJz6iy_13shade_oracles10interfaces6commonsl_1__NtB4_12CommonConfigNtCs8g2TqZEio7D_8schemars10JsonSchema11json_schema
FN:80,_RNvXs0_NvXNvNtNtCs7ttpGOJz6iy_13shade_oracles10interfaces6commonsh_1__NtBa_23InstantiateCommonConfigNtNtCs6CjExPaL98u_5serde2de11Deserialize11deserializeNtB5_9___VisitorNtB1C_7Visitor9expecting
FN:148,_RNvXsI_NtNtCs7ttpGOJz6iy_13shade_oracles10interfaces6commonNtB5_11OraclePriceNtNtCs59N989QkIgV_4core3fmt5Debug3fmt
FN:148,_RNvXNvNtNtCs7ttpGOJz6iy_13shade_oracles10interfaces6commonsr_1__NtB4_11OraclePriceNtCs8g2TqZEio7D_8schemars10JsonSchema11json_schema
FN:58,_RNvXso_NtNtCs7ttpGOJz6iy_13shade_oracles10interfaces6commonNtB5_10ExecuteMsgNtNtCs59N989QkIgV_4core3fmt5Debug3fmt
FN:49,_RINvXs_NvXNvNtNtCs7ttpGOJz6iy_13shade_oracles10interfaces6commons8_1__NtBa_14PricesResponseNtNtCs6CjExPaL98u_5serde2de11Deserialize11deserializeNtB5_7___FieldB1r_11deserializeNtNtNtCs3JYPxoBuEj2_15serde_json_wasm2de3map6MapKeyEBe_
FN:80,_RNvXNvNtNtCs7ttpGOJz6iy_13shade_oracles10interfaces6commonsi_1__NtB4_23InstantiateCommonConfigNtCs8g2TqZEio7D_8schemars10JsonSchema11json_schema
FN:188,_RNvMs3_NtNtCs7ttpGOJz6iy_13shade_oracles10interfaces6commonNtB5_14BtrOraclePrice4data
FN:49,_RNvXs0_NvXNvNtNtCs7ttpGOJz6iy_13shade_oracles10interfaces6commons8_1__NtBa_14PricesResponseNtNtCs6CjExPaL98u_5serde2de11Deserialize11deserializeNtB5_9___VisitorNtB1t_7Visitor9expecting
FN:26,_RINvXNvNtNtCs7ttpGOJz6iy_13shade_oracles10interfaces6common1__NtB5_11OracleQueryNtNtCs6CjExPaL98u_5serde3ser9Serialize9serializeQNtNtCs3JYPxoBuEj2_15serde_json_wasm3ser10SerializerEB9_
FN:176,_RNvXs2_NtNtCs7ttpGOJz6iy_13shade_oracles10interfaces6commonNtB5_14BtrOraclePriceINtNtCs59N989QkIgV_4core7convert4FromNtB5_11OraclePriceE4from
FN:130,_RNvXsA_NtNtCs7ttpGOJz6iy_13shade_oracles10interfaces6commonNtB5_12CommonConfigNtNtCs59N989QkIgV_4core3fmt5Debug3fmt
FN:49,_RNvXNvXNvNtNtCs7ttpGOJz6iy_13shade_oracles10interfaces6commons8_1__NtB7_14PricesResponseNtNtCs6CjExPaL98u_5serde2de11Deserialize11deserializeNtB2_14___FieldVisitorNtB1q_7Visitor9expecting
FN:130,_RNvXNvNtNtCs7ttpGOJz6iy_13shade_oracles10interfaces6commonsl_1__NtB4_12CommonConfigNtCs8g2TqZEio7D_8schemars10JsonSchema11schema_name
FN:49,_RNvXNvNtNtCs7ttpGOJz6iy_13shade_oracles10interfaces6commons9_1__NtB4_14PricesResponseNtCs8g2TqZEio7D_8schemars10JsonSchema11json_schema
FN:26,_RNvXNvXNvNtNtCs7ttpGOJz6iy_13shade_oracles10interfaces6commons_1__NtB7_11OracleQueryNtNtCs6CjExPaL98u_5serde2de11Deserialize11deserializeNtB2_14___FieldVisitorNtB1m_7Visitor9expecting
FN:63,_RNvXs0_NvXNvNtNtCs7ttpGOJz6iy_13shade_oracles10interfaces6commonse_1__NtBa_13ConfigUpdatesNtNtCs6CjExPaL98u_5serde2de11Deserialize11deserializeNtB5_9___VisitorNtB1s_7Visitor9expecting
FN:80,_RNvXNvNtNtCs7ttpGOJz6iy_13shade_oracles10interfaces6commonsi_1__NtB4_23InstantiateCommonConfigNtCs8g2TqZEio7D_8schemars10JsonSchema11schema_name
FN:148,_RINvXNvNtNtCs7ttpGOJz6iy_13shade_oracles10interfaces6commonsq_1__NtB5_11OraclePriceNtNtCs6CjExPaL98u_5serde2de11Deserialize11deserializeINtNvNtNtB1n_9___private2de13missing_field24MissingFieldDeserializerNtNtNtCs3JYPxoBuEj2_15serde_json_wasm2de6errors5ErrorEEB9_
FN:148,_RNvXNvNtNtCs7ttpGOJz6iy_13shade_oracles10interfaces6commonsr_1__NtB4_11OraclePriceNtCs8g2TqZEio7D_8schemars10JsonSchema11schema_name
FN:49,_RINvXs0_NvXNvNtNtCs7ttpGOJz6iy_13shade_oracles10interfaces6commons8_1__NtBb_14PricesResponseNtNtCs6CjExPaL98u_5serde2de11Deserialize11deserializeNtB6_9___VisitorNtB1u_7Visitor9visit_mapNtNtNtCs3JYPxoBuEj2_15serde_json_wasm2de3map9MapAccessEBf_
FN:44,_RNvXNvXNvNtNtCs7ttpGOJz6iy_13shade_oracles10interfaces6commons5_1__NtB7_13PriceResponseNtNtCs6CjExPaL98u_5serde2de11Deserialize11deserializeNtB2_14___FieldVisitorNtB1p_7Visitor9expecting
FN:222,_RNvMs3_NtNtCs7ttpGOJz6iy_13shade_oracles10interfaces6commonNtB5_14BtrOraclePrice14is_stale_price
FN:26,_RNvXs0_NvXNvNtNtCs7ttpGOJz6iy_13shade_oracles10interfaces6commons_1__NtBa_11OracleQueryNtNtCs6CjExPaL98u_5serde2de11Deserialize11deserializeNtB5_9___VisitorNtB1p_7Visitor9expecting
FN:63,_RNvXNvXNvNtNtCs7ttpGOJz6iy_13shade_oracles10interfaces6commonse_1__NtB7_13ConfigUpdatesNtNtCs6CjExPaL98u_5serde2de11Deserialize11deserializeNtB2_14___FieldVisitorNtB1p_7Visitor9expecting
FN:49,_RINvXNvNtNtCs7ttpGOJz6iy_13shade_oracles10interfaces6commons8_1__NtB5_14PricesResponseNtNtCs6CjExPaL98u_5serde2de11Deserialize11deserializeQNtNtCs3JYPxoBuEj2_15serde_json_wasm2de12DeserializerEB9_
FN:49,_RINvXNvXNvNtNtCs7ttpGOJz6iy_13shade_oracles10interfaces6commons8_1__NtB8_14PricesResponseNtNtCs6CjExPaL98u_5serde2de11Deserialize11deserializeNtB3_14___FieldVisitorNtB1r_7Visitor9visit_strNtNtNtCs3JYPxoBuEj2_15serde_json_wasm2de6errors5ErrorEBc_
FN:49,_RNvXsk_NtNtCs7ttpGOJz6iy_13shade_oracles10interfaces6commonNtB5_14PricesResponseNtNtCs59N989QkIgV_4core3fmt5Debug3fmt
FN:58,_RNvXNvNtNtCs7ttpGOJz6iy_13shade_oracles10interfaces6commonsc_1__NtB4_10ExecuteMsgNtCs8g2TqZEio7D_8schemars10JsonSchema11json_schema
FN:39,_RNvXNvNtNtCs7ttpGOJz6iy_13shade_oracles10interfaces6commons3_1__NtB4_14ConfigResponseNtCs8g2TqZEio7D_8schemars10JsonSchema11json_schema
FN:234,_RNvNtNtCs7ttpGOJz6iy_13shade_oracles10interfaces6common30throw_unsupported_symbol_error
FN:39,_RNvXNvXNvNtNtCs7ttpGOJz6iy_13shade_oracles10interfaces6commons2_1__NtB7_14ConfigResponseNtNtCs6CjExPaL98u_5serde2de11Deserialize11deserializeNtB2_14___FieldVisitorNtB1q_7Visitor9expecting
FN:63,_RNvXNvNtNtCs7ttpGOJz6iy_13shade_oracles10interfaces6commonsf_1__NtB4_13ConfigUpdatesNtCs8g2TqZEio7D_8schemars10JsonSchema11schema_name
FN:143,_RNvXNvNtNtCs7ttpGOJz6iy_13shade_oracles10interfaces6commonso_1__NtB4_12HandleAnswerNtCs8g2TqZEio7D_8schemars10JsonSchema11json_schema
FN:148,_RNvXs0_NvXNvNtNtCs7ttpGOJz6iy_13shade_oracles10interfaces6commonsq_1__NtBa_11OraclePriceNtNtCs6CjExPaL98u_5serde2de11Deserialize11deserializeNtB5_9___VisitorNtB1q_7Visitor9expecting
FN:164,_RNvMs1_NtNtCs7ttpGOJz6iy_13shade_oracles10interfaces6commonNtB5_11OraclePrice4data
FN:143,_RNvXsE_NtNtCs7ttpGOJz6iy_13shade_oracles10interfaces6commonNtB5_12HandleAnswerNtNtCs59N989QkIgV_4core3fmt5Debug3fmt
FN:143,_RNvXs0_NvXs0_NvXNvNtNtCs7ttpGOJz6iy_13shade_oracles10interfaces6commonsn_1__NtBg_12HandleAnswerNtNtCs6CjExPaL98u_5serde2de11Deserialize11deserializeNtBb_9___VisitorNtB1x_7Visitor10visit_enumNtB5_9___VisitorB2C_9expecting
FN:208,_RNvMs3_NtNtCs7ttpGOJz6iy_13shade_oracles10interfaces6commonNtB5_14BtrOraclePrice11calc_amount
FN:143,_RNvXNvNtNtCs7ttpGOJz6iy_13shade_oracles10interfaces6commonso_1__NtB4_12HandleAnswerNtCs8g2TqZEio7D_8schemars10JsonSchema11schema_name
FN:148,_RINvXNvNtNtCs7ttpGOJz6iy_13shade_oracles10interfaces6commonsq_1__NtB5_11OraclePriceNtNtCs6CjExPaL98u_5serde2de11Deserialize11deserializeQNtNtCs3JYPxoBuEj2_15serde_json_wasm2de12DeserializerEB9_
FN:148,_RNvXNvXNvNtNtCs7ttpGOJz6iy_13shade_oracles10interfaces6commonsq_1__NtB7_11OraclePriceNtNtCs6CjExPaL98u_5serde2de11Deserialize11deserializeNtB2_14___FieldVisitorNtB1n_7Visitor9expecting
FN:39,_RNvXsc_NtNtCs7ttpGOJz6iy_13shade_oracles10interfaces6commonNtB5_14ConfigResponseNtNtCs59N989QkIgV_4core3fmt5Debug3fmt
FN:58,_RNvXNvNtNtCs7ttpGOJz6iy_13shade_oracles10interfaces6commonsc_1__NtB4_10ExecuteMsgNtCs8g2TqZEio7D_8schemars10JsonSchema11schema_name
FN:130,_RNvXs0_NvXNvNtNtCs7ttpGOJz6iy_13shade_oracles10interfaces6commonsk_1__NtBa_12CommonConfigNtNtCs6CjExPaL98u_5serde2de11Deserialize11deserializeNtB5_9___VisitorNtB1r_7Visitor9expecting
FN:26,_RNvXs7_NtNtCs7ttpGOJz6iy_13shade_oracles10interfaces6commonNtB5_11OracleQueryNtNtCs59N989QkIgV_4core3fmt5Debug3fmt
FN:297,_RNvXs5_NtNtCs7ttpGOJz6iy_13shade_oracles10interfaces6commonNtB5_10OracleImplNtB5_6Oracle15try_query_price
FN:161,_RNvMs1_NtNtCs7ttpGOJz6iy_13shade_oracles10interfaces6commonNtB5_11OraclePrice3key
FN:44,_RINvXNvNtNtCs7ttpGOJz6iy_13shade_oracles10interfaces6commons5_1__NtB5_13PriceResponseNtNtCs6CjExPaL98u_5serde2de11Deserialize11deserializeQNtNtCs3JYPxoBuEj2_15serde_json_wasm2de12DeserializerEB9_
FN:44,_RINvXNvXNvNtNtCs7ttpGOJz6iy_13shade_oracles10interfaces6commons5_1__NtB8_13PriceResponseNtNtCs6CjExPaL98u_5serde2de11Deserialize11deserializeNtB3_14___FieldVisitorNtB1q_7Visitor9visit_strNtNtNtCs3JYPxoBuEj2_15serde_json_wasm2de6errors5ErrorEBc_
FN:58,_RNvXNvXs0_NvXNvNtNtCs7ttpGOJz6iy_13shade_oracles10interfaces6commonsb_1__NtBd_10ExecuteMsgNtNtCs6CjExPaL98u_5serde2de11Deserialize11deserializeNtB8_9___VisitorNtB1s_7Visitor10visit_enumNtB2_14___FieldVisitorB2x_9expecting
FN:26,_RNvXNvNtNtCs7ttpGOJz6iy_13shade_oracles10interfaces6commons0_1__NtB4_11OracleQueryNtCs8g2TqZEio7D_8schemars10JsonSchema11json_schema
FN:143,_RNvXNvXNvNtNtCs7ttpGOJz6iy_13shade_oracles10interfaces6commonsn_1__NtB7_12HandleAnswerNtNtCs6CjExPaL98u_5serde2de11Deserialize11deserializeNtB2_14___FieldVisitorNtB1o_7Visitor9expecting
FN:148,_RINvXNvXNvNtNtCs7ttpGOJz6iy_13shade_oracles10interfaces6commonsq_1__NtB8_11OraclePriceNtNtCs6CjExPaL98u_5serde2de11Deserialize11deserializeNtB3_14___FieldVisitorNtB1o_7Visitor9visit_strNtNtNtCs3JYPxoBuEj2_15serde_json_wasm2de6errors5ErrorEBc_
FN:111,_RNvMs_NtNtCs7ttpGOJz6iy_13shade_oracles10interfaces6commonNtB4_23InstantiateCommonConfig10into_valid
FN:44,_RINvXs_NvXNvNtNtCs7ttpGOJz6iy_13shade_oracles10interfaces6commons5_1__NtBa_13PriceResponseNtNtCs6CjExPaL98u_5serde2de11Deserialize11deserializeNtB5_7___FieldB1q_11deserializeNtNtNtCs3JYPxoBuEj2_15serde_json_wasm2de3map6MapKeyEBe_
FN:49,_RNvXNvNtNtCs7ttpGOJz6iy_13shade_oracles10interfaces6commons9_1__NtB4_14PricesResponseNtCs8g2TqZEio7D_8schemars10JsonSchema11schema_name
FN:80,_RNvXNvXNvNtNtCs7ttpGOJz6iy_13shade_oracles10interfaces6commonsh_1__NtB7_23InstantiateCommonConfigNtNtCs6CjExPaL98u_5serde2de11Deserialize11deserializeNtB2_14___FieldVisitorNtB1z_7Visitor9expecting
FN:155,_RNvMs1_NtNtCs7ttpGOJz6iy_13shade_oracles10interfaces6commonNtB5_11OraclePrice3new
FN:44,_RNvXs0_NvXNvNtNtCs7ttpGOJz6iy_13shade_oracles10interfaces6commons5_1__NtBa_13PriceResponseNtNtCs6CjExPaL98u_5serde2de11Deserialize11deserializeNtB5_9___VisitorNtB1s_7Visitor9expecting
FN:143,_RNvXs0_NvXNvNtNtCs7ttpGOJz6iy_13shade_oracles10interfaces6commonsn_1__NtBa_12HandleAnswerNtNtCs6CjExPaL98u_5serde2de11Deserialize11deserializeNtB5_9___VisitorNtB1r_7Visitor9expecting
FN:44,_RNvXNvNtNtCs7ttpGOJz6iy_13shade_oracles10interfaces6commons6_1__NtB4_13PriceResponseNtCs8g2TqZEio7D_8schemars10JsonSchema11json_schema
FN:39,_RNvXNvNtNtCs7ttpGOJz6iy_13shade_oracles10interfaces6commons3_1__NtB4_14ConfigResponseNtCs8g2TqZEio7D_8schemars10JsonSchema11schema_name
FN:26,_RNvXs1_NvXs0_NvXNvNtNtCs7ttpGOJz6iy_13shade_oracles10interfaces6commons_1__NtBg_11OracleQueryNtNtCs6CjExPaL98u_5serde2de11Deserialize11deserializeNtBb_9___VisitorNtB1v_7Visitor10visit_enumNtB5_s_14___FieldVisitorB2A_9expecting
FN:185,_RNvMs3_NtNtCs7ttpGOJz6iy_13shade_oracles10interfaces6commonNtB5_14BtrOraclePrice3key
FN:26,_RNvXs4_NvXs0_NvXNvNtNtCs7ttpGOJz6iy_13shade_oracles10interfaces6commons_1__NtBg_11OracleQueryNtNtCs6CjExPaL98u_5serde2de11Deserialize11deserializeNtBb_9___VisitorNtB1v_7Visitor10visit_enumNtB5_s0_14___FieldVisitorB2A_9expecting
FN:26,_RNvXNvXs0_NvXNvNtNtCs7ttpGOJz6iy_13shade_oracles10interfaces6commons_1__NtBd_11OracleQueryNtNtCs6CjExPaL98u_5serde2de11Deserialize11deserializeNtB8_9___VisitorNtB1s_7Visitor10visit_enumNtB2_14___FieldVisitorB2x_9expecting
FN:44,_RINvXs0_NvXNvNtNtCs7ttpGOJz6iy_13shade_oracles10interfaces6commons5_1__NtBb_13PriceResponseNtNtCs6CjExPaL98u_5serde2de11Deserialize11deserializeNtB6_9___VisitorNtB1t_7Visitor9visit_mapNtNtNtCs3JYPxoBuEj2_15serde_json_wasm2de3map9MapAccessEBf_
FN:238,_RNvNtNtCs7ttpGOJz6iy_13shade_oracles10interfaces6common11is_disabled
FN:39,_RNvXs0_NvXNvNtNtCs7ttpGOJz6iy_13shade_oracles10interfaces6commons2_1__NtBa_14ConfigResponseNtNtCs6CjExPaL98u_5serde2de11Deserialize11deserializeNtB5_9___VisitorNtB1t_7Visitor9expecting
FN:80,_RNvXsw_NtNtCs7ttpGOJz6iy_13shade_oracles10interfaces6commonNtB5_23InstantiateCommonConfigNtNtCs59N989QkIgV_4core3fmt5Debug3fmt
FN:26,_RNvXs3_NvXs0_NvXNvNtNtCs7ttpGOJz6iy_13shade_oracles10interfaces6commons_1__NtBg_11OracleQueryNtNtCs6CjExPaL98u_5serde2de11Deserialize11deserializeNtBb_9___VisitorNtB1v_7Visitor10visit_enumNtB5_s_9___VisitorB2A_9expecting
FN:148,_RINvXs_NvXNvNtNtCs7ttpGOJz6iy_13shade_oracles10interfaces6commonsq_1__NtBa_11OraclePriceNtNtCs6CjExPaL98u_5serde2de11Deserialize11deserializeNtB5_7___FieldB1o_11deserializeNtNtNtCs3JYPxoBuEj2_15serde_json_wasm2de3map6MapKeyEBe_
FN:63,_RNvXss_NtNtCs7ttpGOJz6iy_13shade_oracles10interfaces6commonNtB5_13ConfigUpdatesNtNtCs59N989QkIgV_4core3fmt5Debug3fmt
FN:148,_RINvXs0_NvXNvNtNtCs7ttpGOJz6iy_13shade_oracles10interfaces6commonsq_1__NtBb_11OraclePriceNtNtCs6CjExPaL98u_5serde2de11Deserialize11deserializeNtB6_9___VisitorNtB1r_7Visitor9visit_mapNtNtNtCs3JYPxoBuEj2_15serde_json_wasm2de3map9MapAccessEBf_
FN:44,_RNvXsg_NtNtCs7ttpGOJz6iy_13shade_oracles10interfaces6commonNtB5_13PriceResponseNtNtCs59N989QkIgV_4core3fmt5Debug3fmt
FN:26,_RNvXs6_NvXs0_NvXNvNtNtCs7ttpGOJz6iy_13shade_oracles10interfaces6commons_1__NtBg_11OracleQueryNtNtCs6CjExPaL98u_5serde2de11Deserialize11deserializeNtBb_9___VisitorNtB1v_7Visitor10visit_enumNtB5_s0_9___VisitorB2A_9expecting
FN:26,_RNvXNvNtNtCs7ttpGOJz6iy_13shade_oracles10interfaces6commons0_1__NtB4_11OracleQueryNtCs8g2TqZEio7D_8schemars10JsonSchema11schema_name
FN:58,_RNvXNvXNvNtNtCs7ttpGOJz6iy_13shade_oracles10interfaces6commonsb_1__NtB7_10ExecuteMsgNtNtCs6CjExPaL98u_5serde2de11Deserialize11deserializeNtB2_14___FieldVisitorNtB1m_7Visitor9expecting
FN:26,_RNvXs0_NvXs0_NvXNvNtNtCs7ttpGOJz6iy_13shade_oracles10interfaces6commons_1__NtBg_11OracleQueryNtNtCs6CjExPaL98u_5serde2de11Deserialize11deserializeNtBb_9___VisitorNtB1v_7Visitor10visit_enumNtB5_9___VisitorB2A_9expecting
FN:191,_RNvMs3_NtNtCs7ttpGOJz6iy_13shade_oracles10interfaces6commonNtB5_14BtrOraclePrice18time_since_updated
FN:63,_RINvXNvNtNtCs7ttpGOJz6iy_13shade_oracles10interfaces6commonsd_1__NtB5_13ConfigUpdatesNtNtCs6CjExPaL98u_5serde3ser9Serialize9serializeQNtNtCs3JYPxoBuEj2_15serde_json_wasm3ser10SerializerECsbzkiAqBzvMp_11integration
FN:39,_RNvXsb_NtNtCs5yQHJDQE64T_13shade_oracles10interfaces6commonNtB5_14ConfigResponseNtNtCs59N989QkIgV_4core5clone5Clone5cloneB9_
FN:80,_RNvXsy_NtNtCs5yQHJDQE64T_13shade_oracles10interfaces6commonNtB5_23InstantiateCommonConfigNtNtCs59N989QkIgV_4core3cmp9PartialEq2neB9_
FN:58,_RINvXNvXs0_NvXNvNtNtCs5yQHJDQE64T_13shade_oracles10interfaces6commonsb_1__NtBe_10ExecuteMsgNtNtCs6CjExPaL98u_5serde2de11Deserialize11deserializeNtB9_9___VisitorNtB1t_7Visitor10visit_enumNtB3_14___FieldVisitorB2y_11visit_bytespEBi_
FN:39,_RINvXNvXNvNtNtCs5yQHJDQE64T_13shade_oracles10interfaces6commons2_1__NtB8_14ConfigResponseNtNtCs6CjExPaL98u_5serde2de11Deserialize11deserializeNtB3_14___FieldVisitorNtB1r_7Visitor11visit_bytespEBc_
FN:148,_RINvXNvNtNtCs5yQHJDQE64T_13shade_oracles10interfaces6commonsp_1__NtB5_11OraclePriceNtNtCs6CjExPaL98u_5serde3ser9Serialize9serializepEB9_
FN:148,_RINvXNvXNvNtNtCs5yQHJDQE64T_13shade_oracles10interfaces6commonsq_1__NtB8_11OraclePriceNtNtCs6CjExPaL98u_5serde2de11Deserialize11deserializeNtB3_14___FieldVisitorNtB1o_7Visitor9visit_strpEBc_
FN:130,_RNvXsC_NtNtCs5yQHJDQE64T_13shade_oracles10interfaces6commonNtB5_12CommonConfigNtNtCs59N989QkIgV_4core3cmp9PartialEq2neB9_
FN:143,_RINvXs0_NvXNvNtNtCs5yQHJDQE64T_13shade_oracles10interfaces6commonsn_1__NtBb_12HandleAnswerNtNtCs6CjExPaL98u_5serde2de11Deserialize11deserializeNtB6_9___VisitorNtB1s_7Visitor10visit_enumpEBf_
FN:407,_RNvYpNtNtNtCs5yQHJDQE64T_13shade_oracles10interfaces6common6Oracle16try_query_pricesB9_
FN:335,_RNvYpNtNtNtCs5yQHJDQE64T_13shade_oracles10interfaces6common6Oracle17try_update_configB9_
FN:26,_RINvXs_NvXs0_NvXNvNtNtCs5yQHJDQE64T_13shade_oracles10interfaces6commons_1__NtBg_11OracleQueryNtNtCs6CjExPaL98u_5serde2de11Deserialize11deserializeNtBb_9___VisitorNtB1v_7Visitor10visit_enumNtB5_7___FieldB1t_11deserializepEBk_
FN:148,_RNvXsK_NtNtCs5yQHJDQE64T_13shade_oracles10interfaces6commonNtB5_11OraclePriceNtNtCs59N989QkIgV_4core3cmp9PartialEq2eqB9_
FN:44,_RINvXNvXNvNtNtCs5yQHJDQE64T_13shade_oracles10interfaces6commons5_1__NtB8_13PriceResponseNtNtCs6CjExPaL98u_5serde2de11Deserialize11deserializeNtB3_14___FieldVisitorNtB1q_7Visitor9visit_u64pEBc_
FN:148,_RINvXs_NvXNvNtNtCs5yQHJDQE64T_13shade_oracles10interfaces6commonsq_1__NtBa_11OraclePriceNtNtCs6CjExPaL98u_5serde2de11Deserialize11deserializeNtB5_7___FieldB1o_11deserializepEBe_
FN:26,_RNvXs9_NtNtCs5yQHJDQE64T_13shade_oracles10interfaces6commonNtB5_11OracleQueryNtNtCs59N989QkIgV_4core3cmp9PartialEq2neB9_
FN:80,_RINvXNvXNvNtNtCs5yQHJDQE64T_13shade_oracles10interfaces6commonsh_1__NtB8_23InstantiateCommonConfigNtNtCs6CjExPaL98u_5serde2de11Deserialize11deserializeNtB3_14___FieldVisitorNtB1A_7Visitor11visit_bytespEBc_
FN:26,_RINvXs1_NvXs0_NvXNvNtNtCs5yQHJDQE64T_13shade_oracles10interfaces6commons_1__NtBh_11OracleQueryNtNtCs6CjExPaL98u_5serde2de11Deserialize11deserializeNtBc_9___VisitorNtB1w_7Visitor10visit_enumNtB6_s_14___FieldVisitorB2B_11visit_bytespEBl_
FN:58,_RNvXsn_NtNtCs5yQHJDQE64T_13shade_oracles10interfaces6commonNtB5_10ExecuteMsgNtNtCs59N989QkIgV_4core5clone5Clone5cloneB9_
FN:39,_RNvXNvNtNtCs5yQHJDQE64T_13shade_oracles10interfaces6commons3_1__NtB4_14ConfigResponseNtCs8g2TqZEio7D_8schemars10JsonSchema11schema_name
FN:238,_RNvNtNtCs5yQHJDQE64T_13shade_oracles10interfaces6common11is_disabled
FN:63,_RNvXsu_NtNtCs5yQHJDQE64T_13shade_oracles10interfaces6commonNtB5_13ConfigUpdatesNtNtCs59N989QkIgV_4core3cmp9PartialEq2eqB9_
FN:58,_RINvXs0_NvXs0_NvXNvNtNtCs5yQHJDQE64T_13shade_oracles10interfaces6commonsb_1__NtBh_10ExecuteMsgNtNtCs6CjExPaL98u_5serde2de11Deserialize11deserializeNtBc_9___VisitorNtB1w_7Visitor10visit_enumNtB6_9___VisitorB2B_9visit_mappEBl_
FN:26,_RINvXNvXNvNtNtCs5yQHJDQE64T_13shade_oracles10interfaces6commons_1__NtB8_11OracleQueryNtNtCs6CjExPaL98u_5serde2de11Deserialize11deserializeNtB3_14___FieldVisitorNtB1n_7Visitor9visit_strpEBc_
FN:58,_RINvXs0_NvXs0_NvXNvNtNtCs5yQHJDQE64T_13shade_oracles10interfaces6commonsb_1__NtBh_10ExecuteMsgNtNtCs6CjExPaL98u_5serde2de11Deserialize11deserializeNtBc_9___VisitorNtB1w_7Visitor10visit_enumNtB6_9___VisitorB2B_9visit_seqpEBl_
FN:130,_RNvXsA_NtNtCs5yQHJDQE64T_13shade_oracles10interfaces6commonNtB5_12CommonConfigNtNtCs59N989QkIgV_4core3fmt5Debug3fmt
FN:26,_RINvXs2_NvXs0_NvXNvNtNtCs5yQHJDQE64T_13shade_oracles10interfaces6commons_1__NtBh_11OracleQueryNtNtCs6CjExPaL98u_5serde2de11Deserialize11deserializeNtBc_9___VisitorNtB1w_7Visitor10visit_enumNtB6_s_7___FieldB1u_11deserializepEBl_
FN:80,_RNvXsv_NtNtCs5yQHJDQE64T_13shade_oracles10interfaces6commonNtB5_23InstantiateCommonConfigNtNtCs59N989QkIgV_4core5clone5Clone5cloneB9_
FN:63,_RNvXs0_NvXNvNtNtCs5yQHJDQE64T_13shade_oracles10interfaces6commonse_1__NtBa_13ConfigUpdatesNtNtCs6CjExPaL98u_5serde2de11Deserialize11deserializeNtB5_9___VisitorNtB1s_7Visitor9expecting
FN:143,_RINvXNvXNvNtNtCs5yQHJDQE64T_13shade_oracles10interfaces6commonsn_1__NtB8_12HandleAnswerNtNtCs6CjExPaL98u_5serde2de11Deserialize11deserializeNtB3_14___FieldVisitorNtB1p_7Visitor11visit_bytespEBc_
FN:49,_RNvXsm_NtNtCs5yQHJDQE64T_13shade_oracles10interfaces6commonNtB5_14PricesResponseNtNtCs59N989QkIgV_4core3cmp9PartialEq2eqB9_
FN:26,_RNvXs3_NvXs0_NvXNvNtNtCs5yQHJDQE64T_13shade_oracles10interfaces6commons_1__NtBg_11OracleQueryNtNtCs6CjExPaL98u_5serde2de11Deserialize11deserializeNtBb_9___VisitorNtB1v_7Visitor10visit_enumNtB5_s_9___VisitorB2A_9expecting
FN:130,_RNvXsz_NtNtCs5yQHJDQE64T_13shade_oracles10interfaces6commonNtB5_12CommonConfigNtNtCs59N989QkIgV_4core5clone5Clone5cloneB9_
FN:143,_RNvXNvXs0_NvXNvNtNtCs5yQHJDQE64T_13shade_oracles10interfaces6commonsn_1__NtBd_12HandleAnswerNtNtCs6CjExPaL98u_5serde2de11Deserialize11deserializeNtB8_9___VisitorNtB1u_7Visitor10visit_enumNtB2_14___FieldVisitorB2z_9expecting
FN:363,_RNvYpNtNtNtCs5yQHJDQE64T_13shade_oracles10interfaces6common6Oracle10price_respB9_
FN:269,_RINvNtNtCs5yQHJDQE64T_13shade_oracles10interfaces6common12oracle_querypEB6_
FN:26,_RINvXNvNtNtCs5yQHJDQE64T_13shade_oracles10interfaces6commons_1__NtB5_11OracleQueryNtNtCs6CjExPaL98u_5serde2de11Deserialize11deserializepEB9_
FN:49,_RINvXNvXNvNtNtCs5yQHJDQE64T_13shade_oracles10interfaces6commons8_1__NtB8_14PricesResponseNtNtCs6CjExPaL98u_5serde2de11Deserialize11deserializeNtB3_14___FieldVisitorNtB1r_7Visitor11visit_bytespEBc_
FN:49,_RINvXNvNtNtCs5yQHJDQE64T_13shade_oracles10interfaces6commons7_1__NtB5_14PricesResponseNtNtCs6CjExPaL98u_5serde3ser9Serialize9serializepEB9_
FN:26,_RNvXs6_NtNtCs5yQHJDQE64T_13shade_oracles10interfaces6commonNtB5_11OracleQueryNtNtCs59N989QkIgV_4core5clone5Clone5cloneB9_
FN:80,_RNvXNvNtNtCs5yQHJDQE64T_13shade_oracles10interfaces6commonsi_1__NtB4_23InstantiateCommonConfigNtCs8g2TqZEio7D_8schemars10JsonSchema11schema_name
FN:58,_RINvXNvXNvNtNtCs5yQHJDQE64T_13shade_oracles10interfaces6commonsb_1__NtB8_10ExecuteMsgNtNtCs6CjExPaL98u_5serde2de11Deserialize11deserializeNtB3_14___FieldVisitorNtB1n_7Visitor9visit_u64pEBc_
FN:130,_RNvXNvXNvNtNtCs5yQHJDQE64T_13shade_oracles10interfaces6commonsk_1__NtB7_12CommonConfigNtNtCs6CjExPaL98u_5serde2de11Deserialize11deserializeNtB2_14___FieldVisitorNtB1o_7Visitor9expecting
FN:39,_RNvXNvNtNtCs5yQHJDQE64T_13shade_oracles10interfaces6commons3_1__NtB4_14ConfigResponseNtCs8g2TqZEio7D_8schemars10JsonSchema11json_schema
FN:49,_RNvXsm_NtNtCs5yQHJDQE64T_13shade_oracles10interfaces6commonNtB5_14PricesResponseNtNtCs59N989QkIgV_4core3cmp9PartialEq2neB9_
FN:148,_RINvXNvNtNtCs5yQHJDQE64T_13shade_oracles10interfaces6commonsq_1__NtB5_11OraclePriceNtNtCs6CjExPaL98u_5serde2de11Deserialize11deserializepEB9_
FN:58,_RINvXNvNtNtCs5yQHJDQE64T_13shade_oracles10interfaces6commonsa_1__NtB5_10ExecuteMsgNtNtCs6CjExPaL98u_5serde3ser9Serialize9serializepEB9_
FN:58,_RNvXNvXNvNtNtCs5yQHJDQE64T_13shade_oracles10interfaces6commonsb_1__NtB7_10ExecuteMsgNtNtCs6CjExPaL98u_5serde2de11Deserialize11deserializeNtB2_14___FieldVisitorNtB1m_7Visitor9expecting
FN:148,_RNvXsK_NtNtCs5yQHJDQE64T_13shade_oracles10interfaces6commonNtB5_11OraclePriceNtNtCs59N989QkIgV_4core3cmp9PartialEq2neB9_
FN:143,_RINvXNvXs0_NvXNvNtNtCs5yQHJDQE64T_13shade_oracles10interfaces6commonsn_1__NtBe_12HandleAnswerNtNtCs6CjExPaL98u_5serde2de11Deserialize11deserializeNtB9_9___VisitorNtB1v_7Visitor10visit_enumNtB3_14___FieldVisitorB2A_9visit_u64pEBi_
FN:44,_RINvXNvNtNtCs5yQHJDQE64T_13shade_oracles10interfaces6commons5_1__NtB5_13PriceResponseNtNtCs6CjExPaL98u_5serde2de11Deserialize11deserializepEB9_
FN:130,_RINvXNvXNvNtNtCs5yQHJDQE64T_13shade_oracles10interfaces6commonsk_1__NtB8_12CommonConfigNtNtCs6CjExPaL98u_5serde2de11Deserialize11deserializeNtB3_14___FieldVisitorNtB1p_7Visitor9visit_u64pEBc_
FN:80,_RINvXs_NvXNvNtNtCs5yQHJDQE64T_13shade_oracles10interfaces6commonsh_1__NtBa_23InstantiateCommonConfigNtNtCs6CjExPaL98u_5serde2de11Deserialize11deserializeNtB5_7___FieldB1A_11deserializepEBe_
FN:234,_RNvNtNtCs5yQHJDQE64T_13shade_oracles10interfaces6common30throw_unsupported_symbol_error
FN:49,_RINvXs0_NvXNvNtNtCs5yQHJDQE64T_13shade_oracles10interfaces6commons8_1__NtBb_14PricesResponseNtNtCs6CjExPaL98u_5serde2de11Deserialize11deserializeNtB6_9___VisitorNtB1u_7Visitor9visit_seqpEBf_
FN:130,_RNvXs0_NvXNvNtNtCs5yQHJDQE64T_13shade_oracles10interfaces6commonsk_1__NtBa_12CommonConfigNtNtCs6CjExPaL98u_5serde2de11Deserialize11deserializeNtB5_9___VisitorNtB1r_7Visitor9expecting
FN:176,_RNvXs2_NtNtCs5yQHJDQE64T_13shade_oracles10interfaces6commonNtB5_14BtrOraclePriceINtNtCs59N989QkIgV_4core7convert4FromNtB5_11OraclePriceE4from
FN:58,_RINvXNvXs0_NvXNvNtNtCs5yQHJDQE64T_13shade_oracles10interfaces6commonsb_1__NtBe_10ExecuteMsgNtNtCs6CjExPaL98u_5serde2de11Deserialize11deserializeNtB9_9___VisitorNtB1t_7Visitor10visit_enumNtB3_14___FieldVisitorB2y_9visit_u64pEBi_
FN:130,_RINvXNvXNvNtNtCs5yQHJDQE64T_13shade_oracles10interfaces6commonsk_1__NtB8_12CommonConfigNtNtCs6CjExPaL98u_5serde2de11Deserialize11deserializeNtB3_14___FieldVisitorNtB1p_7Visitor9visit_strpEBc_
FN:222,_RNvMs3_NtNtCs5yQHJDQE64T_13shade_oracles10interfaces6commonNtB5_14BtrOraclePrice14is_stale_price
FN:58,_RNvXs0_NvXNvNtNtCs5yQHJDQE64T_13shade_oracles10interfaces6commonsb_1__NtBa_10ExecuteMsgNtNtCs6CjExPaL98u_5serde2de11Deserialize11deserializeNtB5_9___VisitorNtB1p_7Visitor9expecting
FN:49,_RNvXNvXNvNtNtCs5yQHJDQE64T_13shade_oracles10interfaces6commons8_1__NtB7_14PricesResponseNtNtCs6CjExPaL98u_5serde2de11Deserialize11deserializeNtB2_14___FieldVisitorNtB1q_7Visitor9expecting
FN:143,_RNvXNvNtNtCs5yQHJDQE64T_13shade_oracles10interfaces6commonso_1__NtB4_12HandleAnswerNtCs8g2TqZEio7D_8schemars10JsonSchema11schema_name
FN:143,_RINvXNvXNvNtNtCs5yQHJDQE64T_13shade_oracles10interfaces6commonsn_1__NtB8_12HandleAnswerNtNtCs6CjExPaL98u_5serde2de11Deserialize11deserializeNtB3_14___FieldVisitorNtB1p_7Visitor9visit_strpEBc_
FN:397,_RNvYpNtNtNtCs5yQHJDQE64T_13shade_oracles10interfaces6common6Oracle15can_query_priceB9_
FN:63,_RINvXNvXNvNtNtCs5yQHJDQE64T_13shade_oracles10interfaces6commonse_1__NtB8_13ConfigUpdatesNtNtCs6CjExPaL98u_5serde2de11Deserialize11deserializeNtB3_14___FieldVisitorNtB1q_7Visitor9visit_strpEBc_
FN:148,_RINvXNvXNvNtNtCs5yQHJDQE64T_13shade_oracles10interfaces6commonsq_1__NtB8_11OraclePriceNtNtCs6CjExPaL98u_5serde2de11Deserialize11deserializeNtB3_14___FieldVisitorNtB1o_7Visitor9visit_u64pEBc_
FN:143,_RINvXNvXs0_NvXNvNtNtCs5yQHJDQE64T_13shade_oracles10interfaces6commonsn_1__NtBe_12HandleAnswerNtNtCs6CjExPaL98u_5serde2de11Deserialize11deserializeNtB9_9___VisitorNtB1v_7Visitor10visit_enumNtB3_14___FieldVisitorB2A_11visit_bytespEBi_
FN:39,_RNvXse_NtNtCs5yQHJDQE64T_13shade_oracles10interfaces6commonNtB5_14ConfigResponseNtNtCs59N989QkIgV_4core3cmp9PartialEq2eqB9_
FN:185,_RNvMs3_NtNtCs5yQHJDQE64T_13shade_oracles10interfaces6commonNtB5_14BtrOraclePrice3key
FN:80,_RINvXs0_NvXNvNtNtCs5yQHJDQE64T_13shade_oracles10interfaces6commonsh_1__NtBb_23InstantiateCommonConfigNtNtCs6CjExPaL98u_5serde2de11Deserialize11deserializeNtB6_9___VisitorNtB1D_7Visitor9visit_mappEBf_
FN:130,_RINvXNvXNvNtNtCs5yQHJDQE64T_13shade_oracles10interfaces6commonsk_1__NtB8_12CommonConfigNtNtCs6CjExPaL98u_5serde2de11Deserialize11deserializeNtB3_14___FieldVisitorNtB1p_7Visitor11visit_bytespEBc_
FN:44,_RNvXNvNtNtCs5yQHJDQE64T_13shade_oracles10interfaces6commons6_1__NtB4_13PriceResponseNtCs8g2TqZEio7D_8schemars10JsonSchema11schema_name
FN:44,_RINvXNvNtNtCs5yQHJDQE64T_13shade_oracles10interfaces6commons4_1__NtB5_13PriceResponseNtNtCs6CjExPaL98u_5serde3ser9Serialize9serializepEB9_
FN:58,_RNvXso_NtNtCs5yQHJDQE64T_13shade_oracles10interfaces6commonNtB5_10ExecuteMsgNtNtCs59N989QkIgV_4core3fmt5Debug3fmt
FN:58,_RINvXs_NvXNvNtNtCs5yQHJDQE64T_13shade_oracles10interfaces6commonsb_1__NtBa_10ExecuteMsgNtNtCs6CjExPaL98u_5serde2de11Deserialize11deserializeNtB5_7___FieldB1n_11deserializepEBe_
FN:49,_RNvXNvNtNtCs5yQHJDQE64T_13shade_oracles10interfaces6commons9_1__NtB4_14PricesResponseNtCs8g2TqZEio7D_8schemars10JsonSchema11json_schema
FN:58,_RNvXsq_NtNtCs5yQHJDQE64T_13shade_oracles10interfaces6commonNtB5_10ExecuteMsgNtNtCs59N989QkIgV_4core3cmp9PartialEq2neB9_
FN:26,_RINvXs6_NvXs0_NvXNvNtNtCs5yQHJDQE64T_13shade_oracles10interfaces6commons_1__NtBh_11OracleQueryNtNtCs6CjExPaL98u_5serde2de11Deserialize11deserializeNtBc_9___VisitorNtB1w_7Visitor10visit_enumNtB6_s0_9___VisitorB2B_9visit_mappEBl_
FN:58,_RNvXsq_NtNtCs5yQHJDQE64T_13shade_oracles10interfaces6commonNtB5_10ExecuteMsgNtNtCs59N989QkIgV_4core3cmp9PartialEq2eqB9_
FN:26,_RINvXNvXNvNtNtCs5yQHJDQE64T_13shade_oracles10interfaces6commons_1__NtB8_11OracleQueryNtNtCs6CjExPaL98u_5serde2de11Deserialize11deserializeNtB3_14___FieldVisitorNtB1n_7Visitor9visit_u64pEBc_
FN:161,_RNvMs1_NtNtCs5yQHJDQE64T_13shade_oracles10interfaces6commonNtB5_11OraclePrice3key
FN:49,_RINvXs_NvXNvNtNtCs5yQHJDQE64T_13shade_oracles10interfaces6commons8_1__NtBa_14PricesResponseNtNtCs6CjExPaL98u_5serde2de11Deserialize11deserializeNtB5_7___FieldB1r_11deserializepEBe_
FN:44,_RNvXNvNtNtCs5yQHJDQE64T_13shade_oracles10interfaces6commons6_1__NtB4_13PriceResponseNtCs8g2TqZEio7D_8schemars10JsonSchema11json_schema
FN:130,_RINvXNvNtNtCs5yQHJDQE64T_13shade_oracles10interfaces6commonsk_1__NtB5_12CommonConfigNtNtCs6CjExPaL98u_5serde2de11Deserialize11deserializepEB9_
FN:49,_RNvXs0_NvXNvNtNtCs5yQHJDQE64T_13shade_oracles10interfaces6commons8_1__NtBa_14PricesResponseNtNtCs6CjExPaL98u_5serde2de11Deserialize11deserializeNtB5_9___VisitorNtB1t_7Visitor9expecting
FN:359,_RNvYpNtNtNtCs5yQHJDQE64T_13shade_oracles10interfaces6common6Oracle11config_respB9_
FN:27,_RNvXsa_NtNtCs5yQHJDQE64T_13shade_oracles10interfaces6commonNtB5_11OracleQueryNtNtCs6wB797emF0g_15cosmwasm_schema14query_response14QueryResponses21response_schemas_impl
FN:148,_RNvXNvXNvNtNtCs5yQHJDQE64T_13shade_oracles10interfaces6commonsq_1__NtB7_11OraclePriceNtNtCs6CjExPaL98u_5serde2de11Deserialize11deserializeNtB2_14___FieldVisitorNtB1n_7Visitor9expecting
FN:26,_RINvXs3_NvXs0_NvXNvNtNtCs5yQHJDQE64T_13shade_oracles10interfaces6commons_1__NtBh_11OracleQueryNtNtCs6CjExPaL98u_5serde2de11Deserialize11deserializeNtBc_9___VisitorNtB1w_7Visitor10visit_enumNtB6_s_9___VisitorB2B_9visit_seqpEBl_
FN:58,_RNvXs0_NvXs0_NvXNvNtNtCs5yQHJDQE64T_13shade_oracles10interfaces6commonsb_1__NtBg_10ExecuteMsgNtNtCs6CjExPaL98u_5serde2de11Deserialize11deserializeNtBb_9___VisitorNtB1v_7Visitor10visit_enumNtB5_9___VisitorB2A_9expecting
FN:63,_RNvXsr_NtNtCs5yQHJDQE64T_13shade_oracles10interfaces6commonNtB5_13ConfigUpdatesNtNtCs59N989QkIgV_4core5clone5Clone5cloneB9_
FN:63,_RNvXNvNtNtCs5yQHJDQE64T_13shade_oracles10interfaces6commonsf_1__NtB4_13ConfigUpdatesNtCs8g2TqZEio7D_8schemars10JsonSchema11schema_name
FN:143,_RNvXsG_NtNtCs5yQHJDQE64T_13shade_oracles10interfaces6commonNtB5_12HandleAnswerNtNtCs59N989QkIgV_4core3cmp9PartialEq2neB9_
FN:49,_RINvXNvXNvNtNtCs5yQHJDQE64T_13shade_oracles10interfaces6commons8_1__NtB8_14PricesResponseNtNtCs6CjExPaL98u_5serde2de11Deserialize11deserializeNtB3_14___FieldVisitorNtB1r_7Visitor9visit_strpEBc_
FN:63,_RINvXNvNtNtCs5yQHJDQE64T_13shade_oracles10interfaces6commonse_1__NtB5_13ConfigUpdatesNtNtCs6CjExPaL98u_5serde2de11Deserialize11deserializepEB9_
FN:39,_RNvXsc_NtNtCs5yQHJDQE64T_13shade_oracles10interfaces6commonNtB5_14ConfigResponseNtNtCs59N989QkIgV_4core3fmt5Debug3fmt
FN:44,_RINvXNvXNvNtNtCs5yQHJDQE64T_13shade_oracles10interfaces6commons5_1__NtB8_13PriceResponseNtNtCs6CjExPaL98u_5serde2de11Deserialize11deserializeNtB3_14___FieldVisitorNtB1q_7Visitor9visit_strpEBc_
FN:297,_RNvXs5_NtNtCs5yQHJDQE64T_13shade_oracles10interfaces6commonNtB5_10OracleImplNtB5_6Oracle15try_query_price
FN:343,_RNCNvYpNtNtNtCs5yQHJDQE64T_13shade_oracles10interfaces6common6Oracle17try_update_config0Bb_
FN:63,_RINvXNvNtNtCs5yQHJDQE64T_13shade_oracles10interfaces6commonsd_1__NtB5_13ConfigUpdatesNtNtCs6CjExPaL98u_5serde3ser9Serialize9serializepEB9_
FN:58,_RINvXNvNtNtCs5yQHJDQE64T_13shade_oracles10interfaces6commonsb_1__NtB5_10ExecuteMsgNtNtCs6CjExPaL98u_5serde2de11Deserialize11deserializepEB9_
FN:39,_RINvXs0_NvXNvNtNtCs5yQHJDQE64T_13shade_oracles10interfaces6commons2_1__NtBb_14ConfigResponseNtNtCs6CjExPaL98u_5serde2de11Deserialize11deserializeNtB6_9___VisitorNtB1u_7Visitor9visit_seqpEBf_
FN:26,_RNvXNvNtNtCs5yQHJDQE64T_13shade_oracles10interfaces6commons0_1__NtB4_11OracleQueryNtCs8g2TqZEio7D_8schemars10JsonSchema11schema_name
FN:26,_RNvXNvXNvNtNtCs5yQHJDQE64T_13shade_oracles10interfaces6commons_1__NtB7_11OracleQueryNtNtCs6CjExPaL98u_5serde2de11Deserialize11deserializeNtB2_14___FieldVisitorNtB1m_7Visitor9expecting
FN:63,_RINvXNvXNvNtNtCs5yQHJDQE64T_13shade_oracles10interfaces6commonse_1__NtB8_13ConfigUpdatesNtNtCs6CjExPaL98u_5serde2de11Deserialize11deserializeNtB3_14___FieldVisitorNtB1q_7Visitor11visit_bytespEBc_
FN:203,_RNvMs3_NtNtCs5yQHJDQE64T_13shade_oracles10interfaces6commonNtB5_14BtrOraclePrice10calc_value
FN:387,_RNCNvYpNtNtNtCs5yQHJDQE64T_13shade_oracles10interfaces6common6Oracle16can_query_prices0Bb_
FN:58,_RINvXNvXNvNtNtCs5yQHJDQE64T_13shade_oracles10interfaces6commonsb_1__NtB8_10ExecuteMsgNtNtCs6CjExPaL98u_5serde2de11Deserialize11deserializeNtB3_14___FieldVisitorNtB1n_7Visitor9visit_strpEBc_
FN:367,_RNvYpNtNtNtCs5yQHJDQE64T_13shade_oracles10interfaces6common6Oracle11prices_respB9_
FN:49,_RINvXNvNtNtCs5yQHJDQE64T_13shade_oracles10interfaces6commons8_1__NtB5_14PricesResponseNtNtCs6CjExPaL98u_5serde2de11Deserialize11deserializepEB9_
FN:44,_RNvXs0_NvXNvNtNtCs5yQHJDQE64T_13shade_oracles10interfaces6commons5_1__NtBa_13PriceResponseNtNtCs6CjExPaL98u_5serde2de11Deserialize11deserializeNtB5_9___VisitorNtB1s_7Visitor9expecting
FN:26,_RNvXs0_NvXNvNtNtCs5yQHJDQE64T_13shade_oracles10interfaces6commons_1__NtBa_11OracleQueryNtNtCs6CjExPaL98u_5serde2de11Deserialize11deserializeNtB5_9___VisitorNtB1p_7Visitor9expecting
FN:44,_RINvXs0_NvXNvNtNtCs5yQHJDQE64T_13shade_oracles10interfaces6commons5_1__NtBb_13PriceResponseNtNtCs6CjExPaL98u_5serde2de11Deserialize11deserializeNtB6_9___VisitorNtB1t_7Visitor9visit_seqpEBf_
FN:143,_RNvXsD_NtNtCs5yQHJDQE64T_13shade_oracles10interfaces6commonNtB5_12HandleAnswerNtNtCs59N989QkIgV_4core5clone5Clone5cloneB9_
FN:311,_RNvYpNtNtNtCs5yQHJDQE64T_13shade_oracles10interfaces6common6Oracle11init_configB9_
FN:143,_RNvXNvXNvNtNtCs5yQHJDQE64T_13shade_oracles10interfaces6commonsn_1__NtB7_12HandleAnswerNtNtCs6CjExPaL98u_5serde2de11Deserialize11deserializeNtB2_14___FieldVisitorNtB1o_7Visitor9expecting
FN:44,_RNvXsi_NtNtCs5yQHJDQE64T_13shade_oracles10interfaces6commonNtB5_13PriceResponseNtNtCs59N989QkIgV_4core3cmp9PartialEq2neB9_
FN:26,_RNvXs4_NvXs0_NvXNvNtNtCs5yQHJDQE64T_13shade_oracles10interfaces6commons_1__NtBg_11OracleQueryNtNtCs6CjExPaL98u_5serde2de11Deserialize11deserializeNtBb_9___VisitorNtB1v_7Visitor10visit_enumNtB5_s0_14___FieldVisitorB2A_9expecting
FN:44,_RNvXsi_NtNtCs5yQHJDQE64T_13shade_oracles10interfaces6commonNtB5_13PriceResponseNtNtCs59N989QkIgV_4core3cmp9PartialEq2eqB9_
FN:26,_RINvXs5_NvXs0_NvXNvNtNtCs5yQHJDQE64T_13shade_oracles10interfaces6commons_1__NtBh_11OracleQueryNtNtCs6CjExPaL98u_5serde2de11Deserialize11deserializeNtBc_9___VisitorNtB1w_7Visitor10visit_enumNtB6_s0_7___FieldB1u_11deserializepEBl_
FN:63,_RINvXs0_NvXNvNtNtCs5yQHJDQE64T_13shade_oracles10interfaces6commonse_1__NtBb_13ConfigUpdatesNtNtCs6CjExPaL98u_5serde2de11Deserialize11deserializeNtB6_9___VisitorNtB1t_7Visitor9visit_seqpEBf_
FN:26,_RINvXNvNtNtCs5yQHJDQE64T_13shade_oracles10interfaces6common1__NtB5_11OracleQueryNtNtCs6CjExPaL98u_5serde3ser9Serialize9serializepEB9_
FN:143,_RNvXNvNtNtCs5yQHJDQE64T_13shade_oracles10interfaces6commonso_1__NtB4_12HandleAnswerNtCs8g2TqZEio7D_8schemars10JsonSchema11json_schema
FN:58,_RNvXNvNtNtCs5yQHJDQE64T_13shade_oracles10interfaces6commonsc_1__NtB4_10ExecuteMsgNtCs8g2TqZEio7D_8schemars10JsonSchema11json_schema
FN:143,_RNvXsE_NtNtCs5yQHJDQE64T_13shade_oracles10interfaces6commonNtB5_12HandleAnswerNtNtCs59N989QkIgV_4core3fmt5Debug3fmt
FN:39,_RNvXse_NtNtCs5yQHJDQE64T_13shade_oracles10interfaces6commonNtB5_14ConfigResponseNtNtCs59N989QkIgV_4core3cmp9PartialEq2neB9_
FN:26,_RINvXs3_NvXs0_NvXNvNtNtCs5yQHJDQE64T_13shade_oracles10interfaces6commons_1__NtBh_11OracleQueryNtNtCs6CjExPaL98u_5serde2de11Deserialize11deserializeNtBc_9___VisitorNtB1w_7Visitor10visit_enumNtB6_s_9___VisitorB2B_9visit_mappEBl_
FN:49,_RINvXs0_NvXNvNtNtCs5yQHJDQE64T_13shade_oracles10interfaces6commons8_1__NtBb_14PricesResponseNtNtCs6CjExPaL98u_5serde2de11Deserialize11deserializeNtB6_9___VisitorNtB1u_7Visitor9visit_mappEBf_
FN:130,_RINvXs_NvXNvNtNtCs5yQHJDQE64T_13shade_oracles10interfaces6commonsk_1__NtBa_12CommonConfigNtNtCs6CjExPaL98u_5serde2de11Deserialize11deserializeNtB5_7___FieldB1p_11deserializepEBe_
FN:49,_RNvXNvNtNtCs5yQHJDQE64T_13shade_oracles10interfaces6commons9_1__NtB4_14PricesResponseNtCs8g2TqZEio7D_8schemars10JsonSchema11schema_name
FN:39,_RINvXNvNtNtCs5yQHJDQE64T_13shade_oracles10interfaces6commons2_1__NtB5_14ConfigResponseNtNtCs6CjExPaL98u_5serde2de11Deserialize11deserializepEB9_
FN:58,_RINvXs_NvXs0_NvXNvNtNtCs5yQHJDQE64T_13shade_oracles10interfaces6commonsb_1__NtBg_10ExecuteMsgNtNtCs6CjExPaL98u_5serde2de11Deserialize11deserializeNtBb_9___VisitorNtB1v_7Visitor10visit_enumNtB5_7___FieldB1t_11deserializepEBk_
FN:80,_RNvXsw_NtNtCs5yQHJDQE64T_13shade_oracles10interfaces6commonNtB5_23InstantiateCommonConfigNtNtCs59N989QkIgV_4core3fmt5Debug3fmt
FN:26,_RINvXs6_NvXs0_NvXNvNtNtCs5yQHJDQE64T_13shade_oracles10interfaces6commons_1__NtBh_11OracleQueryNtNtCs6CjExPaL98u_5serde2de11Deserialize11deserializeNtBc_9___VisitorNtB1w_7Visitor10visit_enumNtB6_s0_9___VisitorB2B_9visit_seqpEBl_
FN:26,_RINvXs0_NvXs0_NvXNvNtNtCs5yQHJDQE64T_13shade_oracles10interfaces6commons_1__NtBh_11OracleQueryNtNtCs6CjExPaL98u_5serde2de11Deserialize11deserializeNtBc_9___VisitorNtB1w_7Visitor10visit_enumNtB6_9___VisitorB2B_9visit_seqpEBl_
FN:143,_RINvXNvXNvNtNtCs5yQHJDQE64T_13shade_oracles10interfaces6commonsn_1__NtB8_12HandleAnswerNtNtCs6CjExPaL98u_5serde2de11Deserialize11deserializeNtB3_14___FieldVisitorNtB1p_7Visitor9visit_u64pEBc_
FN:44,_RINvXNvXNvNtNtCs5yQHJDQE64T_13shade_oracles10interfaces6commons5_1__NtB8_13PriceResponseNtNtCs6CjExPaL98u_5serde2de11Deserialize11deserializeNtB3_14___FieldVisitorNtB1q_7Visitor11visit_bytespEBc_
FN:381,_RNvYpNtNtNtCs5yQHJDQE64T_13shade_oracles10interfaces6common6Oracle16can_query_pricesB9_
FN:39,_RINvXNvNtNtCs5yQHJDQE64T_13shade_oracles10interfaces6commons1_1__NtB5_14ConfigResponseNtNtCs6CjExPaL98u_5serde3ser9Serialize9serializepEB9_
FN:26,_RINvXs4_NvXs0_NvXNvNtNtCs5yQHJDQE64T_13shade_oracles10interfaces6commons_1__NtBh_11OracleQueryNtNtCs6CjExPaL98u_5serde2de11Deserialize11deserializeNtBc_9___VisitorNtB1w_7Visitor10visit_enumNtB6_s0_14___FieldVisitorB2B_9visit_u64pEBl_
FN:143,_RINvXNvXs0_NvXNvNtNtCs5yQHJDQE64T_13shade_oracles10interfaces6commonsn_1__NtBe_12HandleAnswerNtNtCs6CjExPaL98u_5serde2de11Deserialize11deserializeNtB9_9___VisitorNtB1v_7Visitor10visit_enumNtB3_14___FieldVisitorB2A_9visit_strpEBi_
FN:80,_RNvXsy_NtNtCs5yQHJDQE64T_13shade_oracles10interfaces6commonNtB5_23InstantiateCommonConfigNtNtCs59N989QkIgV_4core3cmp9PartialEq2eqB9_
FN:49,_RINvXNvXNvNtNtCs5yQHJDQE64T_13shade_oracles10interfaces6commons8_1__NtB8_14PricesResponseNtNtCs6CjExPaL98u_5serde2de11Deserialize11deserializeNtB3_14___FieldVisitorNtB1r_7Visitor9visit_u64pEBc_
FN:148,_RNvXsH_NtNtCs5yQHJDQE64T_13shade_oracles10interfaces6commonNtB5_11OraclePriceNtNtCs59N989QkIgV_4core5clone5Clone5cloneB9_
FN:63,_RINvXs0_NvXNvNtNtCs5yQHJDQE64T_13shade_oracles10interfaces6commonse_1__NtBb_13ConfigUpdatesNtNtCs6CjExPaL98u_5serde2de11Deserialize11deserializeNtB6_9___VisitorNtB1t_7Visitor9visit_mappEBf_
FN:58,_RINvXNvXs0_NvXNvNtNtCs5yQHJDQE64T_13shade_oracles10interfaces6commonsb_1__NtBe_10ExecuteMsgNtNtCs6CjExPaL98u_5serde2de11Deserialize11deserializeNtB9_9___VisitorNtB1t_7Visitor10visit_enumNtB3_14___FieldVisitorB2y_9visit_strpEBi_
FN:44,_RNvXsf_NtNtCs5yQHJDQE64T_13shade_oracles10interfaces6commonNtB5_13PriceResponseNtNtCs59N989QkIgV_4core5clone5Clone5cloneB9_
FN:148,_RINvXs0_NvXNvNtNtCs5yQHJDQE64T_13shade_oracles10interfaces6commonsq_1__NtBb_11OraclePriceNtNtCs6CjExPaL98u_5serde2de11Deserialize11deserializeNtB6_9___VisitorNtB1r_7Visitor9visit_seqpEBf_
FN:26,_RNvXs0_NvXs0_NvXNvNtNtCs5yQHJDQE64T_13shade_oracles10interfaces6commons_1__NtBg_11OracleQueryNtNtCs6CjExPaL98u_5serde2de11Deserialize11deserializeNtBb_9___VisitorNtB1v_7Visitor10visit_enumNtB5_9___VisitorB2A_9expecting
FN:323,_RNvYpNtNtNtCs5yQHJDQE64T_13shade_oracles10interfaces6common6Oracle12verify_adminB9_
FN:80,_RNvXs0_NvXNvNtNtCs5yQHJDQE64T_13shade_oracles10interfaces6commonsh_1__NtBa_23InstantiateCommonConfigNtNtCs6CjExPaL98u_5serde2de11Deserialize11deserializeNtB5_9___VisitorNtB1C_7Visitor9expecting
FN:148,_RNvXNvNtNtCs5yQHJDQE64T_13shade_oracles10interfaces6commonsr_1__NtB4_11OraclePriceNtCs8g2TqZEio7D_8schemars10JsonSchema11json_schema
FN:63,_RNvXsu_NtNtCs5yQHJDQE64T_13shade_oracles10interfaces6commonNtB5_13ConfigUpdatesNtNtCs59N989QkIgV_4core3cmp9PartialEq2neB9_
FN:148,_RNvXsI_NtNtCs5yQHJDQE64T_13shade_oracles10interfaces6commonNtB5_11OraclePriceNtNtCs59N989QkIgV_4core3fmt5Debug3fmt
FN:80,_RINvXs0_NvXNvNtNtCs5yQHJDQE64T_13shade_oracles10interfaces6commonsh_1__NtBb_23InstantiateCommonConfigNtNtCs6CjExPaL98u_5serde2de11Deserialize11deserializeNtB6_9___VisitorNtB1D_7Visitor9visit_seqpEBf_
FN:130,_RINvXs0_NvXNvNtNtCs5yQHJDQE64T_13shade_oracles10interfaces6commonsk_1__NtBb_12CommonConfigNtNtCs6CjExPaL98u_5serde2de11Deserialize11deserializeNtB6_9___VisitorNtB1s_7Visitor9visit_mappEBf_
FN:143,_RNvXsG_NtNtCs5yQHJDQE64T_13shade_oracles10interfaces6commonNtB5_12HandleAnswerNtNtCs59N989QkIgV_4core3cmp9PartialEq2eqB9_
FN:155,_RNvMs1_NtNtCs5yQHJDQE64T_13shade_oracles10interfaces6commonNtB5_11OraclePrice3new
FN:58,_RINvXNvXNvNtNtCs5yQHJDQE64T_13shade_oracles10interfaces6commonsb_1__NtB8_10ExecuteMsgNtNtCs6CjExPaL98u_5serde2de11Deserialize11deserializeNtB3_14___FieldVisitorNtB1n_7Visitor11visit_bytespEBc_
FN:130,_RINvXs0_NvXNvNtNtCs5yQHJDQE64T_13shade_oracles10interfaces6commonsk_1__NtBb_12CommonConfigNtNtCs6CjExPaL98u_5serde2de11Deserialize11deserializeNtB6_9___VisitorNtB1s_7Visitor9visit_seqpEBf_
FN:80,_RINvXNvNtNtCs5yQHJDQE64T_13shade_oracles10interfaces6commonsg_1__NtB5_23InstantiateCommonConfigNtNtCs6CjExPaL98u_5serde3ser9Serialize9serializepEB9_
FN:143,_RINvXs0_NvXs0_NvXNvNtNtCs5yQHJDQE64T_13shade_oracles10interfaces6commonsn_1__NtBh_12HandleAnswerNtNtCs6CjExPaL98u_5serde2de11Deserialize11deserializeNtBc_9___VisitorNtB1y_7Visitor10visit_enumNtB6_9___VisitorB2D_9visit_mappEBl_
FN:26,_RNvXNvXs0_NvXNvNtNtCs5yQHJDQE64T_13shade_oracles10interfaces6commons_1__NtBd_11OracleQueryNtNtCs6CjExPaL98u_5serde2de11Deserialize11deserializeNtB8_9___VisitorNtB1s_7Visitor10visit_enumNtB2_14___FieldVisitorB2x_9expecting
FN:143,_RNvXs0_NvXs0_NvXNvNtNtCs5yQHJDQE64T_13shade_oracles10interfaces6commonsn_1__NtBg_12HandleAnswerNtNtCs6CjExPaL98u_5serde2de11Deserialize11deserializeNtBb_9___VisitorNtB1x_7Visitor10visit_enumNtB5_9___VisitorB2C_9expecting
FN:44,_RINvXs_NvXNvNtNtCs5yQHJDQE64T_13shade_oracles10interfaces6commons5_1__NtBa_13PriceResponseNtNtCs6CjExPaL98u_5serde2de11Deserialize11deserializeNtB5_7___FieldB1q_11deserializepEBe_
FN:26,_RINvXs0_NvXs0_NvXNvNtNtCs5yQHJDQE64T_13shade_oracles10interfaces6commons_1__NtBh_11OracleQueryNtNtCs6CjExPaL98u_5serde2de11Deserialize11deserializeNtBc_9___VisitorNtB1w_7Visitor10visit_enumNtB6_9___VisitorB2B_9visit_mappEBl_
FN:39,_RINvXs0_NvXNvNtNtCs5yQHJDQE64T_13shade_oracles10interfaces6commons2_1__NtBb_14ConfigResponseNtNtCs6CjExPaL98u_5serde2de11Deserialize11deserializeNtB6_9___VisitorNtB1u_7Visitor9visit_mappEBf_
FN:39,_RNvXNvXNvNtNtCs5yQHJDQE64T_13shade_oracles10interfaces6commons2_1__NtB7_14ConfigResponseNtNtCs6CjExPaL98u_5serde2de11Deserialize11deserializeNtB2_14___FieldVisitorNtB1q_7Visitor9expecting
FN:26,_RINvXNvXNvNtNtCs5yQHJDQE64T_13shade_oracles10interfaces6commons_1__NtB8_11OracleQueryNtNtCs6CjExPaL98u_5serde2de11Deserialize11deserializeNtB3_14___FieldVisitorNtB1n_7Visitor11visit_bytespEBc_
FN:111,_RNvMs_NtNtCs5yQHJDQE64T_13shade_oracles10interfaces6commonNtB4_23InstantiateCommonConfig10into_valid
FN:148,_RINvXs0_NvXNvNtNtCs5yQHJDQE64T_13shade_oracles10interfaces6commonsq_1__NtBb_11OraclePriceNtNtCs6CjExPaL98u_5serde2de11Deserialize11deserializeNtB6_9___VisitorNtB1r_7Visitor9visit_mappEBf_
FN:39,_RINvXs_NvXNvNtNtCs5yQHJDQE64T_13shade_oracles10interfaces6commons2_1__NtBa_14ConfigResponseNtNtCs6CjExPaL98u_5serde2de11Deserialize11deserializeNtB5_7___FieldB1r_11deserializepEBe_
FN:63,_RNvXNvNtNtCs5yQHJDQE64T_13shade_oracles10interfaces6commonsf_1__NtB4_13ConfigUpdatesNtCs8g2TqZEio7D_8schemars10JsonSchema11json_schema
FN:26,_RNvXs1_NvXs0_NvXNvNtNtCs5yQHJDQE64T_13shade_oracles10interfaces6commons_1__NtBg_11OracleQueryNtNtCs6CjExPaL98u_5serde2de11Deserialize11deserializeNtBb_9___VisitorNtB1v_7Visitor10visit_enumNtB5_s_14___FieldVisitorB2A_9expecting
FN:143,_RINvXNvNtNtCs5yQHJDQE64T_13shade_oracles10interfaces6commonsn_1__NtB5_12HandleAnswerNtNtCs6CjExPaL98u_5serde2de11Deserialize11deserializepEB9_
FN:80,_RNvXNvNtNtCs5yQHJDQE64T_13shade_oracles10interfaces6commonsi_1__NtB4_23InstantiateCommonConfigNtCs8g2TqZEio7D_8schemars10JsonSchema11json_schema
FN:143,_RINvXNvNtNtCs5yQHJDQE64T_13shade_oracles10interfaces6commonsm_1__NtB5_12HandleAnswerNtNtCs6CjExPaL98u_5serde3ser9Serialize9serializepEB9_
FN:26,_RINvXs4_NvXs0_NvXNvNtNtCs5yQHJDQE64T_13shade_oracles10interfaces6commons_1__NtBh_11OracleQueryNtNtCs6CjExPaL98u_5serde2de11Deserialize11deserializeNtBc_9___VisitorNtB1w_7Visitor10visit_enumNtB6_s0_14___FieldVisitorB2B_11visit_bytespEBl_
FN:26,_RINvXs4_NvXs0_NvXNvNtNtCs5yQHJDQE64T_13shade_oracles10interfaces6commons_1__NtBh_11OracleQueryNtNtCs6CjExPaL98u_5serde2de11Deserialize11deserializeNtBc_9___VisitorNtB1w_7Visitor10visit_enumNtB6_s0_14___FieldVisitorB2B_9visit_strpEBl_
FN:39,_RINvXNvXNvNtNtCs5yQHJDQE64T_13shade_oracles10interfaces6commons2_1__NtB8_14ConfigResponseNtNtCs6CjExPaL98u_5serde2de11Deserialize11deserializeNtB3_14___FieldVisitorNtB1r_7Visitor9visit_u64pEBc_
FN:44,_RINvXs0_NvXNvNtNtCs5yQHJDQE64T_13shade_oracles10interfaces6commons5_1__NtBb_13PriceResponseNtNtCs6CjExPaL98u_5serde2de11Deserialize11deserializeNtB6_9___VisitorNtB1t_7Visitor9visit_mappEBf_
FN:58,_RINvXs0_NvXNvNtNtCs5yQHJDQE64T_13shade_oracles10interfaces6commonsb_1__NtBb_10ExecuteMsgNtNtCs6CjExPaL98u_5serde2de11Deserialize11deserializeNtB6_9___VisitorNtB1q_7Visitor10visit_enumpEBf_
FN:98,_RNvMs_NtNtCs5yQHJDQE64T_13shade_oracles10interfaces6commonNtB4_23InstantiateCommonConfig3new
FN:63,_RNvXNvXNvNtNtCs5yQHJDQE64T_13shade_oracles10interfaces6commonse_1__NtB7_13ConfigUpdatesNtNtCs6CjExPaL98u_5serde2de11Deserialize11deserializeNtB2_14___FieldVisitorNtB1p_7Visitor9expecting
FN:39,_RNvXs0_NvXNvNtNtCs5yQHJDQE64T_13shade_oracles10interfaces6commons2_1__NtBa_14ConfigResponseNtNtCs6CjExPaL98u_5serde2de11Deserialize11deserializeNtB5_9___VisitorNtB1t_7Visitor9expecting
FN:188,_RNvMs3_NtNtCs5yQHJDQE64T_13shade_oracles10interfaces6commonNtB5_14BtrOraclePrice4data
FN:130,_RNvXNvNtNtCs5yQHJDQE64T_13shade_oracles10interfaces6commonsl_1__NtB4_12CommonConfigNtCs8g2TqZEio7D_8schemars10JsonSchema11schema_name
FN:26,_RINvXNvXs0_NvXNvNtNtCs5yQHJDQE64T_13shade_oracles10interfaces6commons_1__NtBe_11OracleQueryNtNtCs6CjExPaL98u_5serde2de11Deserialize11deserializeNtB9_9___VisitorNtB1t_7Visitor10visit_enumNtB3_14___FieldVisitorB2y_9visit_u64pEBi_
FN:26,_RINvXs0_NvXNvNtNtCs5yQHJDQE64T_13shade_oracles10interfaces6commons_1__NtBb_11OracleQueryNtNtCs6CjExPaL98u_5serde2de11Deserialize11deserializeNtB6_9___VisitorNtB1q_7Visitor10visit_enumpEBf_
FN:80,_RINvXNvXNvNtNtCs5yQHJDQE64T_13shade_oracles10interfaces6commonsh_1__NtB8_23InstantiateCommonConfigNtNtCs6CjExPaL98u_5serde2de11Deserialize11deserializeNtB3_14___FieldVisitorNtB1A_7Visitor9visit_u64pEBc_
FN:143,_RINvXs_NvXNvNtNtCs5yQHJDQE64T_13shade_oracles10interfaces6commonsn_1__NtBa_12HandleAnswerNtNtCs6CjExPaL98u_5serde2de11Deserialize11deserializeNtB5_7___FieldB1p_11deserializepEBe_
FN:63,_RINvXs_NvXNvNtNtCs5yQHJDQE64T_13shade_oracles10interfaces6commonse_1__NtBa_13ConfigUpdatesNtNtCs6CjExPaL98u_5serde2de11Deserialize11deserializeNtB5_7___FieldB1q_11deserializepEBe_
FN:208,_RNvMs3_NtNtCs5yQHJDQE64T_13shade_oracles10interfaces6commonNtB5_14BtrOraclePrice11calc_amount
FN:58,_RNvXNvNtNtCs5yQHJDQE64T_13shade_oracles10interfaces6commonsc_1__NtB4_10ExecuteMsgNtCs8g2TqZEio7D_8schemars10JsonSchema11schema_name
FN:26,_RNvXs7_NtNtCs5yQHJDQE64T_13shade_oracles10interfaces6commonNtB5_11OracleQueryNtNtCs59N989QkIgV_4core3fmt5Debug3fmt
FN:80,_RINvXNvNtNtCs5yQHJDQE64T_13shade_oracles10interfaces6commonsh_1__NtB5_23InstantiateCommonConfigNtNtCs6CjExPaL98u_5serde2de11Deserialize11deserializepEB9_
FN:39,_RINvXNvXNvNtNtCs5yQHJDQE64T_13shade_oracles10interfaces6commons2_1__NtB8_14ConfigResponseNtNtCs6CjExPaL98u_5serde2de11Deserialize11deserializeNtB3_14___FieldVisitorNtB1r_7Visitor9visit_strpEBc_
FN:26,_RINvXNvXs0_NvXNvNtNtCs5yQHJDQE64T_13shade_oracles10interfaces6commons_1__NtBe_11OracleQueryNtNtCs6CjExPaL98u_5serde2de11Deserialize11deserializeNtB9_9___VisitorNtB1t_7Visitor10visit_enumNtB3_14___FieldVisitorB2y_11visit_bytespEBi_
FN:63,_RNvXss_NtNtCs5yQHJDQE64T_13shade_oracles10interfaces6commonNtB5_13ConfigUpdatesNtNtCs59N989QkIgV_4core3fmt5Debug3fmt
FN:26,_RINvXs1_NvXs0_NvXNvNtNtCs5yQHJDQE64T_13shade_oracles10interfaces6commons_1__NtBh_11OracleQueryNtNtCs6CjExPaL98u_5serde2de11Deserialize11deserializeNtBc_9___VisitorNtB1w_7Visitor10visit_enumNtB6_s_14___FieldVisitorB2B_9visit_strpEBl_
FN:191,_RNvMs3_NtNtCs5yQHJDQE64T_13shade_oracles10interfaces6commonNtB5_14BtrOraclePrice18time_since_updated
FN:80,_RNvXNvXNvNtNtCs5yQHJDQE64T_13shade_oracles10interfaces6commonsh_1__NtB7_23InstantiateCommonConfigNtNtCs6CjExPaL98u_5serde2de11Deserialize11deserializeNtB2_14___FieldVisitorNtB1z_7Visitor9expecting
FN:26,_RINvXs_NvXNvNtNtCs5yQHJDQE64T_13shade_oracles10interfaces6commons_1__NtBa_11OracleQueryNtNtCs6CjExPaL98u_5serde2de11Deserialize11deserializeNtB5_7___FieldB1n_11deserializepEBe_
FN:143,_RINvXs_NvXs0_NvXNvNtNtCs5yQHJDQE64T_13shade_oracles10interfaces6commonsn_1__NtBg_12HandleAnswerNtNtCs6CjExPaL98u_5serde2de11Deserialize11deserializeNtBb_9___VisitorNtB1x_7Visitor10visit_enumNtB5_7___FieldB1v_11deserializepEBk_
FN:252,_RINvNtNtCs5yQHJDQE64T_13shade_oracles10interfaces6common11oracle_execpEB6_
FN:130,_RNvXNvNtNtCs5yQHJDQE64T_13shade_oracles10interfaces6commonsl_1__NtB4_12CommonConfigNtCs8g2TqZEio7D_8schemars10JsonSchema11json_schema
FN:148,_RINvXNvXNvNtNtCs5yQHJDQE64T_13shade_oracles10interfaces6commonsq_1__NtB8_11OraclePriceNtNtCs6CjExPaL98u_5serde2de11Deserialize11deserializeNtB3_14___FieldVisitorNtB1o_7Visitor11visit_bytespEBc_
FN:148,_RNvXNvNtNtCs5yQHJDQE64T_13shade_oracles10interfaces6commonsr_1__NtB4_11OraclePriceNtCs8g2TqZEio7D_8schemars10JsonSchema11schema_name
FN:143,_RINvXs0_NvXs0_NvXNvNtNtCs5yQHJDQE64T_13shade_oracles10interfaces6commonsn_1__NtBh_12HandleAnswerNtNtCs6CjExPaL98u_5serde2de11Deserialize11deserializeNtBc_9___VisitorNtB1y_7Visitor10visit_enumNtB6_9___VisitorB2D_9visit_seqpEBl_
FN:63,_RINvXNvXNvNtNtCs5yQHJDQE64T_13shade_oracles10interfaces6commonse_1__NtB8_13ConfigUpdatesNtNtCs6CjExPaL98u_5serde2de11Deserialize11deserializeNtB3_14___FieldVisitorNtB1q_7Visitor9visit_u64pEBc_
FN:143,_RNvXs0_NvXNvNtNtCs5yQHJDQE64T_13shade_oracles10interfaces6commonsn_1__NtBa_12HandleAnswerNtNtCs6CjExPaL98u_5serde2de11Deserialize11deserializeNtB5_9___VisitorNtB1r_7Visitor9expecting
FN:49,_RNvXsj_NtNtCs5yQHJDQE64T_13shade_oracles10interfaces6commonNtB5_14PricesResponseNtNtCs59N989QkIgV_4core5clone5Clone5cloneB9_
FN:26,_RNvXs6_NvXs0_NvXNvNtNtCs5yQHJDQE64T_13shade_oracles10interfaces6commons_1__NtBg_11OracleQueryNtNtCs6CjExPaL98u_5serde2de11Deserialize11deserializeNtBb_9___VisitorNtB1v_7Visitor10visit_enumNtB5_s0_9___VisitorB2A_9expecting
FN:44,_RNvXNvXNvNtNtCs5yQHJDQE64T_13shade_oracles10interfaces6commons5_1__NtB7_13PriceResponseNtNtCs6CjExPaL98u_5serde2de11Deserialize11deserializeNtB2_14___FieldVisitorNtB1p_7Visitor9expecting
FN:49,_RNvXsk_NtNtCs5yQHJDQE64T_13shade_oracles10interfaces6commonNtB5_14PricesResponseNtNtCs59N989QkIgV_4core3fmt5Debug3fmt
FN:58,_RNvXNvXs0_NvXNvNtNtCs5yQHJDQE64T_13shade_oracles10interfaces6commonsb_1__NtBd_10ExecuteMsgNtNtCs6CjExPaL98u_5serde2de11Deserialize11deserializeNtB8_9___VisitorNtB1s_7Visitor10visit_enumNtB2_14___FieldVisitorB2x_9expecting
FN:130,_RNvXsC_NtNtCs5yQHJDQE64T_13shade_oracles10interfaces6commonNtB5_12CommonConfigNtNtCs59N989QkIgV_4core3cmp9PartialEq2eqB9_
FN:164,_RNvMs1_NtNtCs5yQHJDQE64T_13shade_oracles10interfaces6commonNtB5_11OraclePrice4data
FN:148,_RNvXs0_NvXNvNtNtCs5yQHJDQE64T_13shade_oracles10interfaces6commonsq_1__NtBa_11OraclePriceNtNtCs6CjExPaL98u_5serde2de11Deserialize11deserializeNtB5_9___VisitorNtB1q_7Visitor9expecting
FN:26,_RNvXNvNtNtCs5yQHJDQE64T_13shade_oracles10interfaces6commons0_1__NtB4_11OracleQueryNtCs8g2TqZEio7D_8schemars10JsonSchema11json_schema
FN:26,_RINvXNvXs0_NvXNvNtNtCs5yQHJDQE64T_13shade_oracles10interfaces6commons_1__NtBe_11OracleQueryNtNtCs6CjExPaL98u_5serde2de11Deserialize11deserializeNtB9_9___VisitorNtB1t_7Visitor10visit_enumNtB3_14___FieldVisitorB2y_9visit_strpEBi_
FN:130,_RINvXNvNtNtCs5yQHJDQE64T_13shade_oracles10interfaces6commonsj_1__NtB5_12CommonConfigNtNtCs6CjExPaL98u_5serde3ser9Serialize9serializepEB9_
FN:26,_RNvXs9_NtNtCs5yQHJDQE64T_13shade_oracles10interfaces6commonNtB5_11OracleQueryNtNtCs59N989QkIgV_4core3cmp9PartialEq2eqB9_
FN:80,_RINvXNvXNvNtNtCs5yQHJDQE64T_13shade_oracles10interfaces6commonsh_1__NtB8_23InstantiateCommonConfigNtNtCs6CjExPaL98u_5serde2de11Deserialize11deserializeNtB3_14___FieldVisitorNtB1A_7Visitor9visit_strpEBc_
FN:26,_RINvXs1_NvXs0_NvXNvNtNtCs5yQHJDQE64T_13shade_oracles10interfaces6commons_1__NtBh_11OracleQueryNtNtCs6CjExPaL98u_5serde2de11Deserialize11deserializeNtBc_9___VisitorNtB1w_7Visitor10visit_enumNtB6_s_14___FieldVisitorB2B_9visit_u64pEBl_
FN:44,_RNvXsg_NtNtCs5yQHJDQE64T_13shade_oracles10interfaces6commonNtB5_13PriceResponseNtNtCs59N989QkIgV_4core3fmt5Debug3fmt
FNDA:0,_RINvXs0_NvXs0_NvXNvNtNtCs7ttpGOJz6iy_13shade_oracles10interfaces6commonsb_1__NtBh_10ExecuteMsgNtNtCs6CjExPaL98u_5serde2de11Deserialize11deserializeNtBc_9___VisitorNtB1w_7Visitor10visit_enumNtB6_9___VisitorB2B_9visit_mapNtNtNtCs3JYPxoBuEj2_15serde_json_wasm2de3map9MapAccessECsgkmnL3Ab2bX_24shade_oracles_multi_test
FNDA:0,_RINvXNvNtNtCs7ttpGOJz6iy_13shade_oracles10interfaces6commonsb_1__NtB5_10ExecuteMsgNtNtCs6CjExPaL98u_5serde2de11Deserialize11deserializeQNtNtCs3JYPxoBuEj2_15serde_json_wasm2de12DeserializerECsgkmnL3Ab2bX_24shade_oracles_multi_test
FNDA:0,_RINvXs0_NvXNvNtNtCs7ttpGOJz6iy_13shade_oracles10interfaces6commonsb_1__NtBb_10ExecuteMsgNtNtCs6CjExPaL98u_5serde2de11Deserialize11deserializeNtB6_9___VisitorNtB1q_7Visitor10visit_enumNtNtNtCs3JYPxoBuEj2_15serde_json_wasm2de5enum_17UnitVariantAccessECsgkmnL3Ab2bX_24shade_oracles_multi_test
FNDA:22,_RINvXNvNtNtCs7ttpGOJz6iy_13shade_oracles10interfaces6commonsg_1__NtB5_23InstantiateCommonConfigNtNtCs6CjExPaL98u_5serde3ser9Serialize9serializeQNtNtCs3JYPxoBuEj2_15serde_json_wasm3ser10SerializerECsgkmnL3Ab2bX_24shade_oracles_multi_test
FNDA:0,_RINvXs0_NvXNvNtNtCs7ttpGOJz6iy_13shade_oracles10interfaces6commonse_1__NtBb_13ConfigUpdatesNtNtCs6CjExPaL98u_5serde2de11Deserialize11deserializeNtB6_9___VisitorNtB1t_7Visitor9visit_mapNtNtNtCs3JYPxoBuEj2_15serde_json_wasm2de3map9MapAccessECsgkmnL3Ab2bX_24shade_oracles_multi_test
FNDA:0,_RINvXs_NvXNvNtNtCs7ttpGOJz6iy_13shade_oracles10interfaces6commonse_1__NtBa_13ConfigUpdatesNtNtCs6CjExPaL98u_5serde2de11Deserialize11deserializeNtB5_7___FieldB1q_11deserializeNtNtNtCs3JYPxoBuEj2_15serde_json_wasm2de3map6MapKeyECsgkmnL3Ab2bX_24shade_oracles_multi_test
FNDA:0,_RINvXNvXs0_NvXNvNtNtCs7ttpGOJz6iy_13shade_oracles10interfaces6commons_1__NtBe_11OracleQueryNtNtCs6CjExPaL98u_5serde2de11Deserialize11deserializeNtB9_9___VisitorNtB1t_7Visitor10visit_enumNtB3_14___FieldVisitorB2y_9visit_strNtNtNtCs3JYPxoBuEj2_15serde_json_wasm2de6errors5ErrorECsgkmnL3Ab2bX_24shade_oracles_multi_test
FNDA:21,_RINvXs2_NvXs0_NvXNvNtNtCs7ttpGOJz6iy_13shade_oracles10interfaces6commons_1__NtBh_11OracleQueryNtNtCs6CjExPaL98u_5serde2de11Deserialize11deserializeNtBc_9___VisitorNtB1w_7Visitor10visit_enumNtB6_s_7___FieldB1u_11deserializeNtNtNtCs3JYPxoBuEj2_15serde_json_wasm2de3map6MapKeyECsgkmnL3Ab2bX_24shade_oracles_multi_test
FNDA:9,_RINvXs5_NvXs0_NvXNvNtNtCs7ttpGOJz6iy_13shade_oracles10interfaces6commons_1__NtBh_11OracleQueryNtNtCs6CjExPaL98u_5serde2de11Deserialize11deserializeNtBc_9___VisitorNtB1w_7Visitor10visit_enumNtB6_s0_7___FieldB1u_11deserializeNtNtNtCs3JYPxoBuEj2_15serde_json_wasm2de3map6MapKeyECsgkmnL3Ab2bX_24shade_oracles_multi_test
FNDA:0,_RINvXs0_NvXs0_NvXNvNtNtCs7ttpGOJz6iy_13shade_oracles10interfaces6commons_1__NtBh_11OracleQueryNtNtCs6CjExPaL98u_5serde2de11Deserialize11deserializeNtBc_9___VisitorNtB1w_7Visitor10visit_enumNtB6_9___VisitorB2B_9visit_mapNtNtNtCs3JYPxoBuEj2_15serde_json_wasm2de3map9MapAccessECsgkmnL3Ab2bX_24shade_oracles_multi_test
FNDA:0,_RINvXs_NvXs0_NvXNvNtNtCs7ttpGOJz6iy_13shade_oracles10interfaces6commons_1__NtBg_11OracleQueryNtNtCs6CjExPaL98u_5serde2de11Deserialize11deserializeNtBb_9___VisitorNtB1v_7Visitor10visit_enumNtB5_7___FieldB1t_11deserializeNtNtNtCs3JYPxoBuEj2_15serde_json_wasm2de3map6MapKeyECsgkmnL3Ab2bX_24shade_oracles_multi_test
FNDA:0,_RINvXNvXNvNtNtCs7ttpGOJz6iy_13shade_oracles10interfaces6commonsb_1__NtB8_10ExecuteMsgNtNtCs6CjExPaL98u_5serde2de11Deserialize11deserializeNtB3_14___FieldVisitorNtB1n_7Visitor9visit_strNtNtNtCs3JYPxoBuEj2_15serde_json_wasm2de6errors5ErrorECsgkmnL3Ab2bX_24shade_oracles_multi_test
FNDA:30,_RINvXNvXNvNtNtCs7ttpGOJz6iy_13shade_oracles10interfaces6commons_1__NtB8_11OracleQueryNtNtCs6CjExPaL98u_5serde2de11Deserialize11deserializeNtB3_14___FieldVisitorNtB1n_7Visitor9visit_strNtNtNtCs3JYPxoBuEj2_15serde_json_wasm2de6errors5ErrorECsgkmnL3Ab2bX_24shade_oracles_multi_test
FNDA:21,_RINvXs3_NvXs0_NvXNvNtNtCs7ttpGOJz6iy_13shade_oracles10interfaces6commons_1__NtBh_11OracleQueryNtNtCs6CjExPaL98u_5serde2de11Deserialize11deserializeNtBc_9___VisitorNtB1w_7Visitor10visit_enumNtB6_s_9___VisitorB2B_9visit_mapNtNtNtCs3JYPxoBuEj2_15serde_json_wasm2de3map9MapAccessECsgkmnL3Ab2bX_24shade_oracles_multi_test
FNDA:22,_RINvXNvNtNtCs7ttpGOJz6iy_13shade_oracles10interfaces6commonsh_1__NtB5_23InstantiateCommonConfigNtNtCs6CjExPaL98u_5serde2de11Deserialize11deserializeQNtNtCs3JYPxoBuEj2_15serde_json_wasm2de12DeserializerECsgkmnL3Ab2bX_24shade_oracles_multi_test
FNDA:9,_RINvXs6_NvXs0_NvXNvNtNtCs7ttpGOJz6iy_13shade_oracles10interfaces6commons_1__NtBh_11OracleQueryNtNtCs6CjExPaL98u_5serde2de11Deserialize11deserializeNtBc_9___VisitorNtB1w_7Visitor10visit_enumNtB6_s0_9___VisitorB2B_9visit_mapNtNtNtCs3JYPxoBuEj2_15serde_json_wasm2de3map9MapAccessECsgkmnL3Ab2bX_24shade_oracles_multi_test
FNDA:110,_RINvXs0_NvXNvNtNtCs7ttpGOJz6iy_13shade_oracles10interfaces6commonsh_1__NtBb_23InstantiateCommonConfigNtNtCs6CjExPaL98u_5serde2de11Deserialize11deserializeNtB6_9___VisitorNtB1D_7Visitor9visit_mapNtNtNtCs3JYPxoBuEj2_15serde_json_wasm2de3map9MapAccessECsgkmnL3Ab2bX_24shade_oracles_multi_test
FNDA:88,_RINvXs_NvXNvNtNtCs7ttpGOJz6iy_13shade_oracles10interfaces6commonsh_1__NtBa_23InstantiateCommonConfigNtNtCs6CjExPaL98u_5serde2de11Deserialize11deserializeNtB5_7___FieldB1A_11deserializeNtNtNtCs3JYPxoBuEj2_15serde_json_wasm2de3map6MapKeyECsgkmnL3Ab2bX_24shade_oracles_multi_test
FNDA:30,_RINvXNvNtNtCs7ttpGOJz6iy_13shade_oracles10interfaces6commons_1__NtB5_11OracleQueryNtNtCs6CjExPaL98u_5serde2de11Deserialize11deserializeQNtNtCs3JYPxoBuEj2_15serde_json_wasm2de12DeserializerECsgkmnL3Ab2bX_24shade_oracles_multi_test
FNDA:0,_RINvXs0_NvXNvNtNtCs7ttpGOJz6iy_13shade_oracles10interfaces6commonsb_1__NtBb_10ExecuteMsgNtNtCs6CjExPaL98u_5serde2de11Deserialize11deserializeNtB6_9___VisitorNtB1q_7Visitor10visit_enumNtNtNtCs3JYPxoBuEj2_15serde_json_wasm2de5enum_19StructVariantAccessECsgkmnL3Ab2bX_24shade_oracles_multi_test
FNDA:0,_RINvXNvXNvNtNtCs7ttpGOJz6iy_13shade_oracles10interfaces6commonse_1__NtB8_13ConfigUpdatesNtNtCs6CjExPaL98u_5serde2de11Deserialize11deserializeNtB3_14___FieldVisitorNtB1q_7Visitor9visit_strNtNtNtCs3JYPxoBuEj2_15serde_json_wasm2de6errors5ErrorECsgkmnL3Ab2bX_24shade_oracles_multi_test
FNDA:0,_RINvXNvNtNtCs7ttpGOJz6iy_13shade_oracles10interfaces6commonsh_1__NtB5_23InstantiateCommonConfigNtNtCs6CjExPaL98u_5serde2de11Deserialize11deserializeINtNvNtNtB1z_9___private2de13missing_field24MissingFieldDeserializerNtNtNtCs3JYPxoBuEj2_15serde_json_wasm2de6errors5ErrorEECsgkmnL3Ab2bX_24shade_oracles_multi_test
FNDA:88,_RINvXNvXNvNtNtCs7ttpGOJz6iy_13shade_oracles10interfaces6commonsh_1__NtB8_23InstantiateCommonConfigNtNtCs6CjExPaL98u_5serde2de11Deserialize11deserializeNtB3_14___FieldVisitorNtB1A_7Visitor9visit_strNtNtNtCs3JYPxoBuEj2_15serde_json_wasm2de6errors5ErrorECsgkmnL3Ab2bX_24shade_oracles_multi_test
FNDA:0,_RINvXNvNtNtCs7ttpGOJz6iy_13shade_oracles10interfaces6commonse_1__NtB5_13ConfigUpdatesNtNtCs6CjExPaL98u_5serde2de11Deserialize11deserializeINtNvNtNtB1p_9___private2de13missing_field24MissingFieldDeserializerNtNtNtCs3JYPxoBuEj2_15serde_json_wasm2de6errors5ErrorEECsgkmnL3Ab2bX_24shade_oracles_multi_test
FNDA:0,_RINvXs0_NvXNvNtNtCs7ttpGOJz6iy_13shade_oracles10interfaces6commons_1__NtBb_11OracleQueryNtNtCs6CjExPaL98u_5serde2de11Deserialize11deserializeNtB6_9___VisitorNtB1q_7Visitor10visit_enumNtNtNtCs3JYPxoBuEj2_15serde_json_wasm2de5enum_17UnitVariantAccessECsgkmnL3Ab2bX_24shade_oracles_multi_test
FNDA:0,_RINvXNvXs0_NvXNvNtNtCs7ttpGOJz6iy_13shade_oracles10interfaces6commonsb_1__NtBe_10ExecuteMsgNtNtCs6CjExPaL98u_5serde2de11Deserialize11deserializeNtB9_9___VisitorNtB1t_7Visitor10visit_enumNtB3_14___FieldVisitorB2y_9visit_strNtNtNtCs3JYPxoBuEj2_15serde_json_wasm2de6errors5ErrorECsgkmnL3Ab2bX_24shade_oracles_multi_test
FNDA:0,_RINvXNvNtNtCs7ttpGOJz6iy_13shade_oracles10interfaces6commonse_1__NtB5_13ConfigUpdatesNtNtCs6CjExPaL98u_5serde2de11Deserialize11deserializeQNtNtCs3JYPxoBuEj2_15serde_json_wasm2de12DeserializerECsgkmnL3Ab2bX_24shade_oracles_multi_test
FNDA:30,_RINvXs0_NvXNvNtNtCs7ttpGOJz6iy_13shade_oracles10interfaces6commons_1__NtBb_11OracleQueryNtNtCs6CjExPaL98u_5serde2de11Deserialize11deserializeNtB6_9___VisitorNtB1q_7Visitor10visit_enumNtNtNtCs3JYPxoBuEj2_15serde_json_wasm2de5enum_19StructVariantAccessECsgkmnL3Ab2bX_24shade_oracles_multi_test
FNDA:0,_RINvXs_NvXNvNtNtCs7ttpGOJz6iy_13shade_oracles10interfaces6commonsb_1__NtBa_10ExecuteMsgNtNtCs6CjExPaL98u_5serde2de11Deserialize11deserializeNtB5_7___FieldB1n_11deserializeQNtNtCs3JYPxoBuEj2_15serde_json_wasm2de12DeserializerECsgkmnL3Ab2bX_24shade_oracles_multi_test
FNDA:30,_RINvXs_NvXNvNtNtCs7ttpGOJz6iy_13shade_oracles10interfaces6commons_1__NtBa_11OracleQueryNtNtCs6CjExPaL98u_5serde2de11Deserialize11deserializeNtB5_7___FieldB1n_11deserializeQNtNtCs3JYPxoBuEj2_15serde_json_wasm2de12DeserializerECsgkmnL3Ab2bX_24shade_oracles_multi_test
FNDA:0,_RINvXs_NvXs0_NvXNvNtNtCs7ttpGOJz6iy_13shade_oracles10interfaces6commonsb_1__NtBg_10ExecuteMsgNtNtCs6CjExPaL98u_5serde2de11Deserialize11deserializeNtBb_9___VisitorNtB1v_7Visitor10visit_enumNtB5_7___FieldB1t_11deserializeNtNtNtCs3JYPxoBuEj2_15serde_json_wasm2de3map6MapKeyECsgkmnL3Ab2bX_24shade_oracles_multi_test
FNDA:21,_RINvXs1_NvXs0_NvXNvNtNtCs7ttpGOJz6iy_13shade_oracles10interfaces6commons_1__NtBh_11OracleQueryNtNtCs6CjExPaL98u_5serde2de11Deserialize11deserializeNtBc_9___VisitorNtB1w_7Visitor10visit_enumNtB6_s_14___FieldVisitorB2B_9visit_strNtNtNtCs3JYPxoBuEj2_15serde_json_wasm2de6errors5ErrorECsgkmnL3Ab2bX_24shade_oracles_multi_test
FNDA:9,_RINvXs4_NvXs0_NvXNvNtNtCs7ttpGOJz6iy_13shade_oracles10interfaces6commons_1__NtBh_11OracleQueryNtNtCs6CjExPaL98u_5serde2de11Deserialize11deserializeNtBc_9___VisitorNtB1w_7Visitor10visit_enumNtB6_s0_14___FieldVisitorB2B_9visit_strNtNtNtCs3JYPxoBuEj2_15serde_json_wasm2de6errors5ErrorECsgkmnL3Ab2bX_24shade_oracles_multi_test
FNDA:0,_RINvNtNtCs7ttpGOJz6iy_13shade_oracles10interfaces6common12oracle_queryNtNtCs6Kli61lKT0n_31shade_staking_derivative_oracle8contract28ShadeStakingDerivativeOracleEB1a_
FNDA:0,_RINvXNvNtNtCs7ttpGOJz6iy_13shade_oracles10interfaces6commonsj_1__NtB5_12CommonConfigNtNtCs6CjExPaL98u_5serde3ser9Serialize9serializeQNtNtCs3JYPxoBuEj2_15serde_json_wasm3ser10SerializerECs6Kli61lKT0n_31shade_staking_derivative_oracle
FNDA:0,_RINvNtNtCs7ttpGOJz6iy_13shade_oracles10interfaces6common11oracle_execNtNtCs6Kli61lKT0n_31shade_staking_derivative_oracle8contract28ShadeStakingDerivativeOracleEB19_
FNDA:0,_RINvXNvNtNtCs7ttpGOJz6iy_13shade_oracles10interfaces6commons4_1__NtB5_13PriceResponseNtNtCs6CjExPaL98u_5serde3ser9Serialize9serializeQNtNtCs3JYPxoBuEj2_15serde_json_wasm3ser10SerializerECs6Kli61lKT0n_31shade_staking_derivative_oracle
FNDA:0,_RINvXs_NvXNvNtNtCs7ttpGOJz6iy_13shade_oracles10interfaces6commonsk_1__NtBa_12CommonConfigNtNtCs6CjExPaL98u_5serde2de11Deserialize11deserializeNtB5_7___FieldB1p_11deserializeNtNtNtCs3JYPxoBuEj2_15serde_json_wasm2de3map6MapKeyECs6Kli61lKT0n_31shade_staking_derivative_oracle
FNDA:0,_RINvXNvNtNtCs7ttpGOJz6iy_13shade_oracles10interfaces6commonsk_1__NtB5_12CommonConfigNtNtCs6CjExPaL98u_5serde2de11Deserialize11deserializeQNtNtCs3JYPxoBuEj2_15serde_json_wasm2de12DeserializerECs6Kli61lKT0n_31shade_staking_derivative_oracle
FNDA:0,_RINvXNvXNvNtNtCs7ttpGOJz6iy_13shade_oracles10interfaces6commonsk_1__NtB8_12CommonConfigNtNtCs6CjExPaL98u_5serde2de11Deserialize11deserializeNtB3_14___FieldVisitorNtB1p_7Visitor9visit_strNtNtNtCs3JYPxoBuEj2_15serde_json_wasm2de6errors5ErrorECs6Kli61lKT0n_31shade_staking_derivative_oracle
FNDA:0,_RNCNvYNtNtCs6Kli61lKT0n_31shade_staking_derivative_oracle8contract28ShadeStakingDerivativeOracleNtNtNtCs7ttpGOJz6iy_13shade_oracles10interfaces6common6Oracle16can_query_prices0B8_
FNDA:0,_RINvXNvNtNtCs7ttpGOJz6iy_13shade_oracles10interfaces6commonsm_1__NtB5_12HandleAnswerNtNtCs6CjExPaL98u_5serde3ser9Serialize9serializeQNtNtCs3JYPxoBuEj2_15serde_json_wasm3ser10SerializerECs6Kli61lKT0n_31shade_staking_derivative_oracle
FNDA:0,_RINvXs0_NvXNvNtNtCs7ttpGOJz6iy_13shade_oracles10interfaces6commonsk_1__NtBb_12CommonConfigNtNtCs6CjExPaL98u_5serde2de11Deserialize11deserializeNtB6_9___VisitorNtB1s_7Visitor9visit_mapNtNtNtCs3JYPxoBuEj2_15serde_json_wasm2de3map9MapAccessECs6Kli61lKT0n_31shade_staking_derivative_oracle
FNDA:0,_RINvXNvNtNtCs7ttpGOJz6iy_13shade_oracles10interfaces6commonsp_1__NtB5_11OraclePriceNtNtCs6CjExPaL98u_5serde3ser9Serialize9serializeQNtNtCs3JYPxoBuEj2_15serde_json_wasm3ser10SerializerECs6Kli61lKT0n_31shade_staking_derivative_oracle
FNDA:0,_RINvXNvNtNtCs7ttpGOJz6iy_13shade_oracles10interfaces6commons1_1__NtB5_14ConfigResponseNtNtCs6CjExPaL98u_5serde3ser9Serialize9serializeQNtNtCs3JYPxoBuEj2_15serde_json_wasm3ser10SerializerECs6Kli61lKT0n_31shade_staking_derivative_oracle
FNDA:0,_RNCNvYNtNtCs6Kli61lKT0n_31shade_staking_derivative_oracle8contract28ShadeStakingDerivativeOracleNtNtNtCs7ttpGOJz6iy_13shade_oracles10interfaces6common6Oracle17try_update_config0B8_
FNDA:0,_RINvXNvNtNtCs7ttpGOJz6iy_13shade_oracles10interfaces6commons7_1__NtB5_14PricesResponseNtNtCs6CjExPaL98u_5serde3ser9Serialize9serializeQNtNtCs3JYPxoBuEj2_15serde_json_wasm3ser10SerializerECs6Kli61lKT0n_31shade_staking_derivative_oracle
FNDA:0,_RNvYNtNtCs6Kli61lKT0n_31shade_staking_derivative_oracle8contract28ShadeStakingDerivativeOracleNtNtNtCs7ttpGOJz6iy_13shade_oracles10interfaces6common6Oracle15can_query_priceB6_
FNDA:0,_RNvYNtNtCs6Kli61lKT0n_31shade_staking_derivative_oracle8contract28ShadeStakingDerivativeOracleNtNtNtCs7ttpGOJz6iy_13shade_oracles10interfaces6common6Oracle11init_configB6_
FNDA:0,_RNvYNtNtCs6Kli61lKT0n_31shade_staking_derivative_oracle8contract28ShadeStakingDerivativeOracleNtNtNtCs7ttpGOJz6iy_13shade_oracles10interfaces6common6Oracle17try_update_configB6_
FNDA:0,_RNvYNtNtCs6Kli61lKT0n_31shade_staking_derivative_oracle8contract28ShadeStakingDerivativeOracleNtNtNtCs7ttpGOJz6iy_13shade_oracles10interfaces6common6Oracle11config_respB6_
FNDA:0,_RNvYNtNtCs6Kli61lKT0n_31shade_staking_derivative_oracle8contract28ShadeStakingDerivativeOracleNtNtNtCs7ttpGOJz6iy_13shade_oracles10interfaces6common6Oracle12verify_adminB6_
FNDA:0,_RNvYNtNtCs6Kli61lKT0n_31shade_staking_derivative_oracle8contract28ShadeStakingDerivativeOracleNtNtNtCs7ttpGOJz6iy_13shade_oracles10interfaces6common6Oracle16try_query_pricesB6_
FNDA:0,_RNvYNtNtCs6Kli61lKT0n_31shade_staking_derivative_oracle8contract28ShadeStakingDerivativeOracleNtNtNtCs7ttpGOJz6iy_13shade_oracles10interfaces6common6Oracle11prices_respB6_
FNDA:0,_RNvYNtNtCs6Kli61lKT0n_31shade_staking_derivative_oracle8contract28ShadeStakingDerivativeOracleNtNtNtCs7ttpGOJz6iy_13shade_oracles10interfaces6common6Oracle16can_query_pricesB6_
FNDA:0,_RNvYNtNtCs6Kli61lKT0n_31shade_staking_derivative_oracle8contract28ShadeStakingDerivativeOracleNtNtNtCs7ttpGOJz6iy_13shade_oracles10interfaces6common6Oracle10price_respB6_
FNDA:0,_RNvYNtNtCsl4rh8uzcDWC_20siennaswap_lp_oracle8contract18SiennaswapLpOracleNtNtNtCs7ttpGOJz6iy_13shade_oracles10interfaces6common6Oracle15can_query_priceB6_
FNDA:0,_RNvYNtNtCsl4rh8uzcDWC_20siennaswap_lp_oracle8contract18SiennaswapLpOracleNtNtNtCs7ttpGOJz6iy_13shade_oracles10interfaces6common6Oracle11init_configB6_
FNDA:0,_RNvYNtNtCsl4rh8uzcDWC_20siennaswap_lp_oracle8contract18SiennaswapLpOracleNtNtNtCs7ttpGOJz6iy_13shade_oracles10interfaces6common6Oracle17try_update_configB6_
FNDA:0,_RNvYNtNtCsl4rh8uzcDWC_20siennaswap_lp_oracle8contract18SiennaswapLpOracleNtNtNtCs7ttpGOJz6iy_13shade_oracles10interfaces6common6Oracle12verify_adminB6_
FNDA:0,_RNvYNtNtCsl4rh8uzcDWC_20siennaswap_lp_oracle8contract18SiennaswapLpOracleNtNtNtCs7ttpGOJz6iy_13shade_oracles10interfaces6common6Oracle16try_query_pricesB6_
FNDA:0,_RNvYNtNtCsl4rh8uzcDWC_20siennaswap_lp_oracle8contract18SiennaswapLpOracleNtNtNtCs7ttpGOJz6iy_13shade_oracles10interfaces6common6Oracle11prices_respB6_
FNDA:0,_RNvYNtNtCsl4rh8uzcDWC_20siennaswap_lp_oracle8contract18SiennaswapLpOracleNtNtNtCs7ttpGOJz6iy_13shade_oracles10interfaces6common6Oracle16can_query_pricesB6_
FNDA:0,_RNvYNtNtCsl4rh8uzcDWC_20siennaswap_lp_oracle8contract18SiennaswapLpOracleNtNtNtCs7ttpGOJz6iy_13shade_oracles10interfaces6common6Oracle10price_respB6_
FNDA:0,_RINvXNvNtNtCs7ttpGOJz6iy_13shade_oracles10interfaces6commonsj_1__NtB5_12CommonConfigNtNtCs6CjExPaL98u_5serde3ser9Serialize9serializeQNtNtCs3JYPxoBuEj2_15serde_json_wasm3ser10SerializerECsl4rh8uzcDWC_20siennaswap_lp_oracle
FNDA:0,_RINvNtNtCs7ttpGOJz6iy_13shade_oracles10interfaces6common11oracle_execNtNtCsl4rh8uzcDWC_20siennaswap_lp_oracle8contract18SiennaswapLpOracleEB19_
FNDA:0,_RINvXNvNtNtCs7ttpGOJz6iy_13shade_oracles10interfaces6commons4_1__NtB5_13PriceResponseNtNtCs6CjExPaL98u_5serde3ser9Serialize9serializeQNtNtCs3JYPxoBuEj2_15serde_json_wasm3ser10SerializerECsl4rh8uzcDWC_20siennaswap_lp_oracle
FNDA:0,_RINvXNvXNvNtNtCs7ttpGOJz6iy_13shade_oracles10interfaces6commonsk_1__NtB8_12CommonConfigNtNtCs6CjExPaL98u_5serde2de11Deserialize11deserializeNtB3_14___FieldVisitorNtB1p_7Visitor9visit_strNtNtNtCs3JYPxoBuEj2_15serde_json_wasm2de6errors5ErrorECsl4rh8uzcDWC_20siennaswap_lp_oracle
FNDA:0,_RNvXsH_NtNtCs7ttpGOJz6iy_13shade_oracles10interfaces6commonNtB5_11OraclePriceNtNtCs59N989QkIgV_4core5clone5Clone5cloneCsl4rh8uzcDWC_20siennaswap_lp_oracle
FNDA:0,_RINvXNvNtNtCs7ttpGOJz6iy_13shade_oracles10interfaces6commonsm_1__NtB5_12HandleAnswerNtNtCs6CjExPaL98u_5serde3ser9Serialize9serializeQNtNtCs3JYPxoBuEj2_15serde_json_wasm3ser10SerializerECsl4rh8uzcDWC_20siennaswap_lp_oracle
FNDA:0,_RINvXs0_NvXNvNtNtCs7ttpGOJz6iy_13shade_oracles10interfaces6commonsk_1__NtBb_12CommonConfigNtNtCs6CjExPaL98u_5serde2de11Deserialize11deserializeNtB6_9___VisitorNtB1s_7Visitor9visit_mapNtNtNtCs3JYPxoBuEj2_15serde_json_wasm2de3map9MapAccessECsl4rh8uzcDWC_20siennaswap_lp_oracle
FNDA:0,_RINvXNvNtNtCs7ttpGOJz6iy_13shade_oracles10interfaces6commonsp_1__NtB5_11OraclePriceNtNtCs6CjExPaL98u_5serde3ser9Serialize9serializeQNtNtCs3JYPxoBuEj2_15serde_json_wasm3ser10SerializerECsl4rh8uzcDWC_20siennaswap_lp_oracle
FNDA:0,_RINvXs_NvXNvNtNtCs7ttpGOJz6iy_13shade_oracles10interfaces6commonsk_1__NtBa_12CommonConfigNtNtCs6CjExPaL98u_5serde2de11Deserialize11deserializeNtB5_7___FieldB1p_11deserializeNtNtNtCs3JYPxoBuEj2_15serde_json_wasm2de3map6MapKeyECsl4rh8uzcDWC_20siennaswap_lp_oracle
FNDA:0,_RNCNvYNtNtCsl4rh8uzcDWC_20siennaswap_lp_oracle8contract18SiennaswapLpOracleNtNtNtCs7ttpGOJz6iy_13shade_oracles10interfaces6common6Oracle16can_query_prices0B8_
FNDA:0,_RNCNvYNtNtCsl4rh8uzcDWC_20siennaswap_lp_oracle8contract18SiennaswapLpOracleNtNtNtCs7ttpGOJz6iy_13shade_oracles10interfaces6common6Oracle17try_update_config0B8_
FNDA:0,_RINvXNvNtNtCs7ttpGOJz6iy_13shade_oracles10interfaces6commonsk_1__NtB5_12CommonConfigNtNtCs6CjExPaL98u_5serde2de11Deserialize11deserializeQNtNtCs3JYPxoBuEj2_15serde_json_wasm2de12DeserializerECsl4rh8uzcDWC_20siennaswap_lp_oracle
FNDA:0,_RINvXNvNtNtCs7ttpGOJz6iy_13shade_oracles10interfaces6commons7_1__NtB5_14PricesResponseNtNtCs6CjExPaL98u_5serde3ser9Serialize9serializeQNtNtCs3JYPxoBuEj2_15serde_json_wasm3ser10SerializerECsl4rh8uzcDWC_20siennaswap_lp_oracle
FNDA:0,_RNvYNtNtCs8soImV1O5bu_25siennaswap_lp_spot_oracle8contract18SiennaswapLpOracleNtNtNtCs7ttpGOJz6iy_13shade_oracles10interfaces6common6Oracle15can_query_priceB6_
FNDA:0,_RNvYNtNtCs8soImV1O5bu_25siennaswap_lp_spot_oracle8contract18SiennaswapLpOracleNtNtNtCs7ttpGOJz6iy_13shade_oracles10interfaces6common6Oracle11init_configB6_
FNDA:0,_RNvYNtNtCs8soImV1O5bu_25siennaswap_lp_spot_oracle8contract18SiennaswapLpOracleNtNtNtCs7ttpGOJz6iy_13shade_oracles10interfaces6common6Oracle17try_update_configB6_
FNDA:0,_RNvYNtNtCs8soImV1O5bu_25siennaswap_lp_spot_oracle8contract18SiennaswapLpOracleNtNtNtCs7ttpGOJz6iy_13shade_oracles10interfaces6common6Oracle12verify_adminB6_
FNDA:0,_RNvYNtNtCs8soImV1O5bu_25siennaswap_lp_spot_oracle8contract18SiennaswapLpOracleNtNtNtCs7ttpGOJz6iy_13shade_oracles10interfaces6common6Oracle16try_query_pricesB6_
FNDA:0,_RNvYNtNtCs8soImV1O5bu_25siennaswap_lp_spot_oracle8contract18SiennaswapLpOracleNtNtNtCs7ttpGOJz6iy_13shade_oracles10interfaces6common6Oracle11prices_respB6_
FNDA:0,_RNvYNtNtCs8soImV1O5bu_25siennaswap_lp_spot_oracle8contract18SiennaswapLpOracleNtNtNtCs7ttpGOJz6iy_13shade_oracles10interfaces6common6Oracle16can_query_pricesB6_
FNDA:0,_RNvYNtNtCs8soImV1O5bu_25siennaswap_lp_spot_oracle8contract18SiennaswapLpOracleNtNtNtCs7ttpGOJz6iy_13shade_oracles10interfaces6common6Oracle10price_respB6_
FNDA:0,_RINvXNvNtNtCs7ttpGOJz6iy_13shade_oracles10interfaces6commonsj_1__NtB5_12CommonConfigNtNtCs6CjExPaL98u_5serde3ser9Serialize9serializeQNtNtCs3JYPxoBuEj2_15serde_json_wasm3ser10SerializerECs8soImV1O5bu_25siennaswap_lp_spot_oracle
FNDA:0,_RINvNtNtCs7ttpGOJz6iy_13shade_oracles10interfaces6common11oracle_execNtNtCs8soImV1O5bu_25siennaswap_lp_spot_oracle8contract18SiennaswapLpOracleEB19_
FNDA:0,_RINvXNvNtNtCs7ttpGOJz6iy_13shade_oracles10interfaces6commons4_1__NtB5_13PriceResponseNtNtCs6CjExPaL98u_5serde3ser9Serialize9serializeQNtNtCs3JYPxoBuEj2_15serde_json_wasm3ser10SerializerECs8soImV1O5bu_25siennaswap_lp_spot_oracle
FNDA:0,_RINvXNvXNvNtNtCs7ttpGOJz6iy_13shade_oracles10interfaces6commonsk_1__NtB8_12CommonConfigNtNtCs6CjExPaL98u_5serde2de11Deserialize11deserializeNtB3_14___FieldVisitorNtB1p_7Visitor9visit_strNtNtNtCs3JYPxoBuEj2_15serde_json_wasm2de6errors5ErrorECs8soImV1O5bu_25siennaswap_lp_spot_oracle
FNDA:0,_RNvXsH_NtNtCs7ttpGOJz6iy_13shade_oracles10interfaces6commonNtB5_11OraclePriceNtNtCs59N989QkIgV_4core5clone5Clone5cloneCs8soImV1O5bu_25siennaswap_lp_spot_oracle
FNDA:0,_RINvXNvNtNtCs7ttpGOJz6iy_13shade_oracles10interfaces6commonsm_1__NtB5_12HandleAnswerNtNtCs6CjExPaL98u_5serde3ser9Serialize9serializeQNtNtCs3JYPxoBuEj2_15serde_json_wasm3ser10SerializerECs8soImV1O5bu_25siennaswap_lp_spot_oracle
FNDA:0,_RINvXs0_NvXNvNtNtCs7ttpGOJz6iy_13shade_oracles10interfaces6commonsk_1__NtBb_12CommonConfigNtNtCs6CjExPaL98u_5serde2de11Deserialize11deserializeNtB6_9___VisitorNtB1s_7Visitor9visit_mapNtNtNtCs3JYPxoBuEj2_15serde_json_wasm2de3map9MapAccessECs8soImV1O5bu_25siennaswap_lp_spot_oracle
FNDA:0,_RINvXNvNtNtCs7ttpGOJz6iy_13shade_oracles10interfaces6commonsp_1__NtB5_11OraclePriceNtNtCs6CjExPaL98u_5serde3ser9Serialize9serializeQNtNtCs3JYPxoBuEj2_15serde_json_wasm3ser10SerializerECs8soImV1O5bu_25siennaswap_lp_spot_oracle
FNDA:0,_RINvXs_NvXNvNtNtCs7ttpGOJz6iy_13shade_oracles10interfaces6commonsk_1__NtBa_12CommonConfigNtNtCs6CjExPaL98u_5serde2de11Deserialize11deserializeNtB5_7___FieldB1p_11deserializeNtNtNtCs3JYPxoBuEj2_15serde_json_wasm2de3map6MapKeyECs8soImV1O5bu_25siennaswap_lp_spot_oracle
FNDA:0,_RNCNvYNtNtCs8soImV1O5bu_25siennaswap_lp_spot_oracle8contract18SiennaswapLpOracleNtNtNtCs7ttpGOJz6iy_13shade_oracles10interfaces6common6Oracle16can_query_prices0B8_
FNDA:0,_RNCNvYNtNtCs8soImV1O5bu_25siennaswap_lp_spot_oracle8contract18SiennaswapLpOracleNtNtNtCs7ttpGOJz6iy_13shade_oracles10interfaces6common6Oracle17try_update_config0B8_
FNDA:0,_RINvXNvNtNtCs7ttpGOJz6iy_13shade_oracles10interfaces6commonsk_1__NtB5_12CommonConfigNtNtCs6CjExPaL98u_5serde2de11Deserialize11deserializeQNtNtCs3JYPxoBuEj2_15serde_json_wasm2de12DeserializerECs8soImV1O5bu_25siennaswap_lp_spot_oracle
FNDA:0,_RINvXNvNtNtCs7ttpGOJz6iy_13shade_oracles10interfaces6commons7_1__NtB5_14PricesResponseNtNtCs6CjExPaL98u_5serde3ser9Serialize9serializeQNtNtCs3JYPxoBuEj2_15serde_json_wasm3ser10SerializerECs8soImV1O5bu_25siennaswap_lp_spot_oracle
FNDA:3,_RNvYNtNtCseKCZb5Dbj8H_23shadeswap_market_oracle8contract21ShadeswapMarketOracleNtNtNtCs7ttpGOJz6iy_13shade_oracles10interfaces6common6Oracle15can_query_priceB6_
FNDA:3,_RNvYNtNtCseKCZb5Dbj8H_23shadeswap_market_oracle8contract21ShadeswapMarketOracleNtNtNtCs7ttpGOJz6iy_13shade_oracles10interfaces6common6Oracle11init_configB6_
FNDA:0,_RNvYNtNtCseKCZb5Dbj8H_23shadeswap_market_oracle8contract21ShadeswapMarketOracleNtNtNtCs7ttpGOJz6iy_13shade_oracles10interfaces6common6Oracle17try_update_configB6_
FNDA:0,_RNvYNtNtCseKCZb5Dbj8H_23shadeswap_market_oracle8contract21ShadeswapMarketOracleNtNtNtCs7ttpGOJz6iy_13shade_oracles10interfaces6common6Oracle11config_respB6_
FNDA:0,_RNvYNtNtCseKCZb5Dbj8H_23shadeswap_market_oracle8contract21ShadeswapMarketOracleNtNtNtCs7ttpGOJz6iy_13shade_oracles10interfaces6common6Oracle16try_query_pricesB6_
FNDA:3,_RNvYNtNtCseKCZb5Dbj8H_23shadeswap_market_oracle8contract21ShadeswapMarketOracleNtNtNtCs7ttpGOJz6iy_13shade_oracles10interfaces6common6Oracle10price_respB6_
FNDA:0,_RNvYNtNtCseKCZb5Dbj8H_23shadeswap_market_oracle8contract21ShadeswapMarketOracleNtNtNtCs7ttpGOJz6iy_13shade_oracles10interfaces6common6Oracle12verify_adminB6_
FNDA:0,_RNvYNtNtCseKCZb5Dbj8H_23shadeswap_market_oracle8contract21ShadeswapMarketOracleNtNtNtCs7ttpGOJz6iy_13shade_oracles10interfaces6common6Oracle11prices_respB6_
FNDA:0,_RNvYNtNtCseKCZb5Dbj8H_23shadeswap_market_oracle8contract21ShadeswapMarketOracleNtNtNtCs7ttpGOJz6iy_13shade_oracles10interfaces6common6Oracle16can_query_pricesB6_
FNDA:0,_RINvXNvNtNtCs7ttpGOJz6iy_13shade_oracles10interfaces6commonsm_1__NtB5_12HandleAnswerNtNtCs6CjExPaL98u_5serde3ser9Serialize9serializeQNtNtCs3JYPxoBuEj2_15serde_json_wasm3ser10SerializerECseKCZb5Dbj8H_23shadeswap_market_oracle
FNDA:0,_RNCNvYNtNtCseKCZb5Dbj8H_23shadeswap_market_oracle8contract21ShadeswapMarketOracleNtNtNtCs7ttpGOJz6iy_13shade_oracles10interfaces6common6Oracle16can_query_prices0B8_
FNDA:3,_RINvXNvNtNtCs7ttpGOJz6iy_13shade_oracles10interfaces6commonsp_1__NtB5_11OraclePriceNtNtCs6CjExPaL98u_5serde3ser9Serialize9serializeQNtNtCs3JYPxoBuEj2_15serde_json_wasm3ser10SerializerECseKCZb5Dbj8H_23shadeswap_market_oracle
FNDA:0,_RINvXNvNtNtCs7ttpGOJz6iy_13shade_oracles10interfaces6commons1_1__NtB5_14ConfigResponseNtNtCs6CjExPaL98u_5serde3ser9Serialize9serializeQNtNtCs3JYPxoBuEj2_15serde_json_wasm3ser10SerializerECseKCZb5Dbj8H_23shadeswap_market_oracle
FNDA:0,_RINvNtNtCs7ttpGOJz6iy_13shade_oracles10interfaces6common11oracle_execNtNtCseKCZb5Dbj8H_23shadeswap_market_oracle8contract21ShadeswapMarketOracleEB19_
FNDA:3,_RINvXNvNtNtCs7ttpGOJz6iy_13shade_oracles10interfaces6commonsk_1__NtB5_12CommonConfigNtNtCs6CjExPaL98u_5serde2de11Deserialize11deserializeQNtNtCs3JYPxoBuEj2_15serde_json_wasm2de12DeserializerECseKCZb5Dbj8H_23shadeswap_market_oracle
FNDA:0,_RINvXNvNtNtCs7ttpGOJz6iy_13shade_oracles10interfaces6commons7_1__NtB5_14PricesResponseNtNtCs6CjExPaL98u_5serde3ser9Serialize9serializeQNtNtCs3JYPxoBuEj2_15serde_json_wasm3ser10SerializerECseKCZb5Dbj8H_23shadeswap_market_oracle
FNDA:3,_RINvXNvNtNtCs7ttpGOJz6iy_13shade_oracles10interfaces6commonsj_1__NtB5_12CommonConfigNtNtCs6CjExPaL98u_5serde3ser9Serialize9serializeQNtNtCs3JYPxoBuEj2_15serde_json_wasm3ser10SerializerECseKCZb5Dbj8H_23shadeswap_market_oracle
FNDA:0,_RNCNvYNtNtCseKCZb5Dbj8H_23shadeswap_market_oracle8contract21ShadeswapMarketOracleNtNtNtCs7ttpGOJz6iy_13shade_oracles10interfaces6common6Oracle17try_update_config0B8_
FNDA:3,_RINvXNvNtNtCs7ttpGOJz6iy_13shade_oracles10interfaces6commons4_1__NtB5_13PriceResponseNtNtCs6CjExPaL98u_5serde3ser9Serialize9serializeQNtNtCs3JYPxoBuEj2_15serde_json_wasm3ser10SerializerECseKCZb5Dbj8H_23shadeswap_market_oracle
FNDA:15,_RINvXs0_NvXNvNtNtCs7ttpGOJz6iy_13shade_oracles10interfaces6commonsk_1__NtBb_12CommonConfigNtNtCs6CjExPaL98u_5serde2de11Deserialize11deserializeNtB6_9___VisitorNtB1s_7Visitor9visit_mapNtNtNtCs3JYPxoBuEj2_15serde_json_wasm2de3map9MapAccessECseKCZb5Dbj8H_23shadeswap_market_oracle
FNDA:12,_RINvXs_NvXNvNtNtCs7ttpGOJz6iy_13shade_oracles10interfaces6commonsk_1__NtBa_12CommonConfigNtNtCs6CjExPaL98u_5serde2de11Deserialize11deserializeNtB5_7___FieldB1p_11deserializeNtNtNtCs3JYPxoBuEj2_15serde_json_wasm2de3map6MapKeyECseKCZb5Dbj8H_23shadeswap_market_oracle
FNDA:12,_RINvXNvXNvNtNtCs7ttpGOJz6iy_13shade_oracles10interfaces6commonsk_1__NtB8_12CommonConfigNtNtCs6CjExPaL98u_5serde2de11Deserialize11deserializeNtB3_14___FieldVisitorNtB1p_7Visitor9visit_strNtNtNtCs3JYPxoBuEj2_15serde_json_wasm2de6errors5ErrorECseKCZb5Dbj8H_23shadeswap_market_oracle
FNDA:3,_RINvNtNtCs7ttpGOJz6iy_13shade_oracles10interfaces6common12oracle_queryNtNtCseKCZb5Dbj8H_23shadeswap_market_oracle8contract21ShadeswapMarketOracleEB1a_
FNDA:3,_RNvYNtNtCs5sRKHz6Zcgz_24siennaswap_market_oracle8contract22SiennaswapMarketOracleNtNtNtCs7ttpGOJz6iy_13shade_oracles10interfaces6common6Oracle15can_query_priceB6_
FNDA:3,_RNvYNtNtCs5sRKHz6Zcgz_24siennaswap_market_oracle8contract22SiennaswapMarketOracleNtNtNtCs7ttpGOJz6iy_13shade_oracles10interfaces6common6Oracle11init_configB6_
FNDA:0,_RNvYNtNtCs5sRKHz6Zcgz_24siennaswap_market_oracle8contract22SiennaswapMarketOracleNtNtNtCs7ttpGOJz6iy_13shade_oracles10interfaces6common6Oracle17try_update_configB6_
FNDA:0,_RNvYNtNtCs5sRKHz6Zcgz_24siennaswap_market_oracle8contract22SiennaswapMarketOracleNtNtNtCs7ttpGOJz6iy_13shade_oracles10interfaces6common6Oracle11config_respB6_
FNDA:0,_RNvYNtNtCs5sRKHz6Zcgz_24siennaswap_market_oracle8contract22SiennaswapMarketOracleNtNtNtCs7ttpGOJz6iy_13shade_oracles10interfaces6common6Oracle16try_query_pricesB6_
FNDA:3,_RNvYNtNtCs5sRKHz6Zcgz_24siennaswap_market_oracle8contract22SiennaswapMarketOracleNtNtNtCs7ttpGOJz6iy_13shade_oracles10interfaces6common6Oracle10price_respB6_
FNDA:0,_RNvYNtNtCs5sRKHz6Zcgz_24siennaswap_market_oracle8contract22SiennaswapMarketOracleNtNtNtCs7ttpGOJz6iy_13shade_oracles10interfaces6common6Oracle12verify_adminB6_
FNDA:0,_RNvYNtNtCs5sRKHz6Zcgz_24siennaswap_market_oracle8contract22SiennaswapMarketOracleNtNtNtCs7ttpGOJz6iy_13shade_oracles10interfaces6common6Oracle11prices_respB6_
FNDA:0,_RNvYNtNtCs5sRKHz6Zcgz_24siennaswap_market_oracle8contract22SiennaswapMarketOracleNtNtNtCs7ttpGOJz6iy_13shade_oracles10interfaces6common6Oracle16can_query_pricesB6_
FNDA:3,_RINvXNvNtNtCs7ttpGOJz6iy_13shade_oracles10interfaces6commonsj_1__NtB5_12CommonConfigNtNtCs6CjExPaL98u_5serde3ser9Serialize9serializeQNtNtCs3JYPxoBuEj2_15serde_json_wasm3ser10SerializerECs5sRKHz6Zcgz_24siennaswap_market_oracle
FNDA:0,_RNCNvYNtNtCs5sRKHz6Zcgz_24siennaswap_market_oracle8contract22SiennaswapMarketOracleNtNtNtCs7ttpGOJz6iy_13shade_oracles10interfaces6common6Oracle16can_query_prices0B8_
FNDA:0,_RINvNtNtCs7ttpGOJz6iy_13shade_oracles10interfaces6common11oracle_execNtNtCs5sRKHz6Zcgz_24siennaswap_market_oracle8contract22SiennaswapMarketOracleEB19_
FNDA:3,_RINvXNvNtNtCs7ttpGOJz6iy_13shade_oracles10interfaces6commons4_1__NtB5_13PriceResponseNtNtCs6CjExPaL98u_5serde3ser9Serialize9serializeQNtNtCs3JYPxoBuEj2_15serde_json_wasm3ser10SerializerECs5sRKHz6Zcgz_24siennaswap_market_oracle
FNDA:15,_RINvXs0_NvXNvNtNtCs7ttpGOJz6iy_13shade_oracles10interfaces6commonsk_1__NtBb_12CommonConfigNtNtCs6CjExPaL98u_5serde2de11Deserialize11deserializeNtB6_9___VisitorNtB1s_7Visitor9visit_mapNtNtNtCs3JYPxoBuEj2_15serde_json_wasm2de3map9MapAccessECs5sRKHz6Zcgz_24siennaswap_market_oracle
FNDA:12,_RINvXs_NvXNvNtNtCs7ttpGOJz6iy_13shade_oracles10interfaces6commonsk_1__NtBa_12CommonConfigNtNtCs6CjExPaL98u_5serde2de11Deserialize11deserializeNtB5_7___FieldB1p_11deserializeNtNtNtCs3JYPxoBuEj2_15serde_json_wasm2de3map6MapKeyECs5sRKHz6Zcgz_24siennaswap_market_oracle
FNDA:12,_RINvXNvXNvNtNtCs7ttpGOJz6iy_13shade_oracles10interfaces6commonsk_1__NtB8_12CommonConfigNtNtCs6CjExPaL98u_5serde2de11Deserialize11deserializeNtB3_14___FieldVisitorNtB1p_7Visitor9visit_strNtNtNtCs3JYPxoBuEj2_15serde_json_wasm2de6errors5ErrorECs5sRKHz6Zcgz_24siennaswap_market_oracle
FNDA:0,_RINvXNvNtNtCs7ttpGOJz6iy_13shade_oracles10interfaces6commonsm_1__NtB5_12HandleAnswerNtNtCs6CjExPaL98u_5serde3ser9Serialize9serializeQNtNtCs3JYPxoBuEj2_15serde_json_wasm3ser10SerializerECs5sRKHz6Zcgz_24siennaswap_market_oracle
FNDA:0,_RNCNvYNtNtCs5sRKHz6Zcgz_24siennaswap_market_oracle8contract22SiennaswapMarketOracleNtNtNtCs7ttpGOJz6iy_13shade_oracles10interfaces6common6Oracle17try_update_config0B8_
FNDA:3,_RINvXNvNtNtCs7ttpGOJz6iy_13shade_oracles10interfaces6commonsp_1__NtB5_11OraclePriceNtNtCs6CjExPaL98u_5serde3ser9Serialize9serializeQNtNtCs3JYPxoBuEj2_15serde_json_wasm3ser10SerializerECs5sRKHz6Zcgz_24siennaswap_market_oracle
FNDA:0,_RINvXNvNtNtCs7ttpGOJz6iy_13shade_oracles10interfaces6commons1_1__NtB5_14ConfigResponseNtNtCs6CjExPaL98u_5serde3ser9Serialize9serializeQNtNtCs3JYPxoBuEj2_15serde_json_wasm3ser10SerializerECs5sRKHz6Zcgz_24siennaswap_market_oracle
FNDA:3,_RINvXNvNtNtCs7ttpGOJz6iy_13shade_oracles10interfaces6commonsk_1__NtB5_12CommonConfigNtNtCs6CjExPaL98u_5serde2de11Deserialize11deserializeQNtNtCs3JYPxoBuEj2_15serde_json_wasm2de12DeserializerECs5sRKHz6Zcgz_24siennaswap_market_oracle
FNDA:0,_RINvXNvNtNtCs7ttpGOJz6iy_13shade_oracles10interfaces6commons7_1__NtB5_14PricesResponseNtNtCs6CjExPaL98u_5serde3ser9Serialize9serializeQNtNtCs3JYPxoBuEj2_15serde_json_wasm3ser10SerializerECs5sRKHz6Zcgz_24siennaswap_market_oracle
FNDA:3,_RINvNtNtCs7ttpGOJz6iy_13shade_oracles10interfaces6common12oracle_queryNtNtCs5sRKHz6Zcgz_24siennaswap_market_oracle8contract22SiennaswapMarketOracleEB1a_
FNDA:9,_RNvYNtNtCs5hPCVRE3j1J_12index_oracle8contract11IndexOracleNtNtNtCs7ttpGOJz6iy_13shade_oracles10interfaces6common6Oracle10price_respB6_
FNDA:5,_RNvYNtNtCs5hPCVRE3j1J_12index_oracle8contract11IndexOracleNtNtNtCs7ttpGOJz6iy_13shade_oracles10interfaces6common6Oracle11init_configB6_
FNDA:0,_RNvYNtNtCs5hPCVRE3j1J_12index_oracle8contract11IndexOracleNtNtNtCs7ttpGOJz6iy_13shade_oracles10interfaces6common6Oracle17try_update_configB6_
FNDA:0,_RNvYNtNtCs5hPCVRE3j1J_12index_oracle8contract11IndexOracleNtNtNtCs7ttpGOJz6iy_13shade_oracles10interfaces6common6Oracle16try_query_pricesB6_
FNDA:0,_RNvYNtNtCs5hPCVRE3j1J_12index_oracle8contract11IndexOracleNtNtNtCs7ttpGOJz6iy_13shade_oracles10interfaces6common6Oracle11prices_respB6_
FNDA:0,_RNvYNtNtCs5hPCVRE3j1J_12index_oracle8contract11IndexOracleNtNtNtCs7ttpGOJz6iy_13shade_oracles10interfaces6common6Oracle16can_query_pricesB6_
FNDA:9,_RNvYNtNtCs5hPCVRE3j1J_12index_oracle8contract11IndexOracleNtNtNtCs7ttpGOJz6iy_13shade_oracles10interfaces6common6Oracle15can_query_priceB6_
FNDA:0,_RNvYNtNtCs5hPCVRE3j1J_12index_oracle8contract11IndexOracleNtNtNtCs7ttpGOJz6iy_13shade_oracles10interfaces6common6Oracle11config_respB6_
FNDA:2,_RNvYNtNtCs5hPCVRE3j1J_12index_oracle8contract11IndexOracleNtNtNtCs7ttpGOJz6iy_13shade_oracles10interfaces6common6Oracle12verify_adminB6_
FNDA:0,_RINvXNvNtNtCs7ttpGOJz6iy_13shade_oracles10interfaces6commonsm_1__NtB5_12HandleAnswerNtNtCs6CjExPaL98u_5serde3ser9Serialize9serializeQNtNtCs3JYPxoBuEj2_15serde_json_wasm3ser10SerializerECs5hPCVRE3j1J_12index_oracle
FNDA:9,_RINvXNvNtNtCs7ttpGOJz6iy_13shade_oracles10interfaces6commonsp_1__NtB5_11OraclePriceNtNtCs6CjExPaL98u_5serde3ser9Serialize9serializeQNtNtCs3JYPxoBuEj2_15serde_json_wasm3ser10SerializerECs5hPCVRE3j1J_12index_oracle
FNDA:0,_RINvXNvNtNtCs7ttpGOJz6iy_13shade_oracles10interfaces6commons1_1__NtB5_14ConfigResponseNtNtCs6CjExPaL98u_5serde3ser9Serialize9serializeQNtNtCs3JYPxoBuEj2_15serde_json_wasm3ser10SerializerECs5hPCVRE3j1J_12index_oracle
FNDA:13,_RINvXNvNtNtCs7ttpGOJz6iy_13shade_oracles10interfaces6commonsk_1__NtB5_12CommonConfigNtNtCs6CjExPaL98u_5serde2de11Deserialize11deserializeQNtNtCs3JYPxoBuEj2_15serde_json_wasm2de12DeserializerECs5hPCVRE3j1J_12index_oracle
FNDA:0,_RINvXNvNtNtCs7ttpGOJz6iy_13shade_oracles10interfaces6commons7_1__NtB5_14PricesResponseNtNtCs6CjExPaL98u_5serde3ser9Serialize9serializeQNtNtCs3JYPxoBuEj2_15serde_json_wasm3ser10SerializerECs5hPCVRE3j1J_12index_oracle
FNDA:0,_RNCNvYNtNtCs5hPCVRE3j1J_12index_oracle8contract11IndexOracleNtNtNtCs7ttpGOJz6iy_13shade_oracles10interfaces6common6Oracle16can_query_prices0B8_
FNDA:5,_RINvXNvNtNtCs7ttpGOJz6iy_13shade_oracles10interfaces6commonsj_1__NtB5_12CommonConfigNtNtCs6CjExPaL98u_5serde3ser9Serialize9serializeQNtNtCs3JYPxoBuEj2_15serde_json_wasm3ser10SerializerECs5hPCVRE3j1J_12index_oracle
FNDA:0,_RNCNvYNtNtCs5hPCVRE3j1J_12index_oracle8contract11IndexOracleNtNtNtCs7ttpGOJz6iy_13shade_oracles10interfaces6common6Oracle17try_update_config0B8_
FNDA:65,_RINvXs0_NvXNvNtNtCs7ttpGOJz6iy_13shade_oracles10interfaces6commonsk_1__NtBb_12CommonConfigNtNtCs6CjExPaL98u_5serde2de11Deserialize11deserializeNtB6_9___VisitorNtB1s_7Visitor9visit_mapNtNtNtCs3JYPxoBuEj2_15serde_json_wasm2de3map9MapAccessECs5hPCVRE3j1J_12index_oracle
FNDA:52,_RINvXs_NvXNvNtNtCs7ttpGOJz6iy_13shade_oracles10interfaces6commonsk_1__NtBa_12CommonConfigNtNtCs6CjExPaL98u_5serde2de11Deserialize11deserializeNtB5_7___FieldB1p_11deserializeNtNtNtCs3JYPxoBuEj2_15serde_json_wasm2de3map6MapKeyECs5hPCVRE3j1J_12index_oracle
FNDA:9,_RINvXNvNtNtCs7ttpGOJz6iy_13shade_oracles10interfaces6commons4_1__NtB5_13PriceResponseNtNtCs6CjExPaL98u_5serde3ser9Serialize9serializeQNtNtCs3JYPxoBuEj2_15serde_json_wasm3ser10SerializerECs5hPCVRE3j1J_12index_oracle
FNDA:52,_RINvXNvXNvNtNtCs7ttpGOJz6iy_13shade_oracles10interfaces6commonsk_1__NtB8_12CommonConfigNtNtCs6CjExPaL98u_5serde2de11Deserialize11deserializeNtB3_14___FieldVisitorNtB1p_7Visitor9visit_strNtNtNtCs3JYPxoBuEj2_15serde_json_wasm2de6errors5ErrorECs5hPCVRE3j1J_12index_oracle
FNDA:24,_RINvXNvNtNtCs7ttpGOJz6iy_13shade_oracles10interfaces6commonsk_1__NtB5_12CommonConfigNtNtCs6CjExPaL98u_5serde2de11Deserialize11deserializeQNtNtCs3JYPxoBuEj2_15serde_json_wasm2de12DeserializerECs5J3WLKJaAzT_17proxy_band_oracle
FNDA:96,_RINvXs_NvXNvNtNtCs7ttpGOJz6iy_13shade_oracles10interfaces6commonsk_1__NtBa_12CommonConfigNtNtCs6CjExPaL98u_5serde2de11Deserialize11deserializeNtB5_7___FieldB1p_11deserializeNtNtNtCs3JYPxoBuEj2_15serde_json_wasm2de3map6MapKeyECs5J3WLKJaAzT_17proxy_band_oracle
FNDA:0,_RINvXNvNtNtCs7ttpGOJz6iy_13shade_oracles10interfaces6commonsm_1__NtB5_12HandleAnswerNtNtCs6CjExPaL98u_5serde3ser9Serialize9serializeQNtNtCs3JYPxoBuEj2_15serde_json_wasm3ser10SerializerECs5J3WLKJaAzT_17proxy_band_oracle
FNDA:11,_RINvXNvNtNtCs7ttpGOJz6iy_13shade_oracles10interfaces6commonsj_1__NtB5_12CommonConfigNtNtCs6CjExPaL98u_5serde3ser9Serialize9serializeQNtNtCs3JYPxoBuEj2_15serde_json_wasm3ser10SerializerECs5J3WLKJaAzT_17proxy_band_oracle
FNDA:120,_RINvXs0_NvXNvNtNtCs7ttpGOJz6iy_13shade_oracles10interfaces6commonsk_1__NtBb_12CommonConfigNtNtCs6CjExPaL98u_5serde2de11Deserialize11deserializeNtB6_9___VisitorNtB1s_7Visitor9visit_mapNtNtNtCs3JYPxoBuEj2_15serde_json_wasm2de3map9MapAccessECs5J3WLKJaAzT_17proxy_band_oracle
FNDA:68,_RINvXNvNtNtCs7ttpGOJz6iy_13shade_oracles10interfaces6commonsp_1__NtB5_11OraclePriceNtNtCs6CjExPaL98u_5serde3ser9Serialize9serializeQNtNtCs3JYPxoBuEj2_15serde_json_wasm3ser10SerializerECs5J3WLKJaAzT_17proxy_band_oracle
FNDA:0,_RNCNvYNtNtCs5J3WLKJaAzT_17proxy_band_oracle8contract15ProxyBandOracleNtNtNtCs7ttpGOJz6iy_13shade_oracles10interfaces6common6Oracle16can_query_prices0B8_
FNDA:24,_RINvNtNtCs7ttpGOJz6iy_13shade_oracles10interfaces6common12oracle_queryNtNtCs5J3WLKJaAzT_17proxy_band_oracle8contract15ProxyBandOracleEB1a_
FNDA:15,_RINvXNvNtNtCs7ttpGOJz6iy_13shade_oracles10interfaces6commons4_1__NtB5_13PriceResponseNtNtCs6CjExPaL98u_5serde3ser9Serialize9serializeQNtNtCs3JYPxoBuEj2_15serde_json_wasm3ser10SerializerECs5J3WLKJaAzT_17proxy_band_oracle
FNDA:96,_RINvXNvXNvNtNtCs7ttpGOJz6iy_13shade_oracles10interfaces6commonsk_1__NtB8_12CommonConfigNtNtCs6CjExPaL98u_5serde2de11Deserialize11deserializeNtB3_14___FieldVisitorNtB1p_7Visitor9visit_strNtNtNtCs3JYPxoBuEj2_15serde_json_wasm2de6errors5ErrorECs5J3WLKJaAzT_17proxy_band_oracle
FNDA:0,_RNCNvYNtNtCs5J3WLKJaAzT_17proxy_band_oracle8contract15ProxyBandOracleNtNtNtCs7ttpGOJz6iy_13shade_oracles10interfaces6common6Oracle17try_update_config0B8_
FNDA:9,_RINvXNvNtNtCs7ttpGOJz6iy_13shade_oracles10interfaces6commons7_1__NtB5_14PricesResponseNtNtCs6CjExPaL98u_5serde3ser9Serialize9serializeQNtNtCs3JYPxoBuEj2_15serde_json_wasm3ser10SerializerECs5J3WLKJaAzT_17proxy_band_oracle
FNDA:0,_RINvNtNtCs7ttpGOJz6iy_13shade_oracles10interfaces6common11oracle_execNtNtCs5J3WLKJaAzT_17proxy_band_oracle8contract15ProxyBandOracleEB19_
FNDA:0,_RINvXNvNtNtCs7ttpGOJz6iy_13shade_oracles10interfaces6commons1_1__NtB5_14ConfigResponseNtNtCs6CjExPaL98u_5serde3ser9Serialize9serializeQNtNtCs3JYPxoBuEj2_15serde_json_wasm3ser10SerializerECs5J3WLKJaAzT_17proxy_band_oracle
FNDA:15,_RNvYNtNtCs5J3WLKJaAzT_17proxy_band_oracle8contract15ProxyBandOracleNtNtNtCs7ttpGOJz6iy_13shade_oracles10interfaces6common6Oracle15can_query_priceB6_
FNDA:11,_RNvYNtNtCs5J3WLKJaAzT_17proxy_band_oracle8contract15ProxyBandOracleNtNtNtCs7ttpGOJz6iy_13shade_oracles10interfaces6common6Oracle11init_configB6_
FNDA:0,_RNvYNtNtCs5J3WLKJaAzT_17proxy_band_oracle8contract15ProxyBandOracleNtNtNtCs7ttpGOJz6iy_13shade_oracles10interfaces6common6Oracle17try_update_configB6_
FNDA:0,_RNvYNtNtCs5J3WLKJaAzT_17proxy_band_oracle8contract15ProxyBandOracleNtNtNtCs7ttpGOJz6iy_13shade_oracles10interfaces6common6Oracle11config_respB6_
FNDA:0,_RNvYNtNtCs5J3WLKJaAzT_17proxy_band_oracle8contract15ProxyBandOracleNtNtNtCs7ttpGOJz6iy_13shade_oracles10interfaces6common6Oracle12verify_adminB6_
FNDA:9,_RNvYNtNtCs5J3WLKJaAzT_17proxy_band_oracle8contract15ProxyBandOracleNtNtNtCs7ttpGOJz6iy_13shade_oracles10interfaces6common6Oracle11prices_respB6_
FNDA:9,_RNvYNtNtCs5J3WLKJaAzT_17proxy_band_oracle8contract15ProxyBandOracleNtNtNtCs7ttpGOJz6iy_13shade_oracles10interfaces6common6Oracle16can_query_pricesB6_
FNDA:15,_RNvYNtNtCs5J3WLKJaAzT_17proxy_band_oracle8contract15ProxyBandOracleNtNtNtCs7ttpGOJz6iy_13shade_oracles10interfaces6common6Oracle10price_respB6_
FNDA:9,_RINvXNvNtNtCs7ttpGOJz6iy_13shade_oracles10interfaces6commons4_1__NtB5_13PriceResponseNtNtCs6CjExPaL98u_5serde3ser9Serialize9serializeQNtNtCs3JYPxoBuEj2_15serde_json_wasm3ser10SerializerECs6Knm8LX4JT4_13oracle_router
FNDA:9,_RINvXNvNtNtCs7ttpGOJz6iy_13shade_oracles10interfaces6commonsp_1__NtB5_11OraclePriceNtNtCs6CjExPaL98u_5serde3ser9Serialize9serializeQNtNtCs3JYPxoBuEj2_15serde_json_wasm3ser10SerializerECs6Knm8LX4JT4_13oracle_router
FNDA:0,_RINvXNvNtNtCs7ttpGOJz6iy_13shade_oracles10interfaces6commons7_1__NtB5_14PricesResponseNtNtCs6CjExPaL98u_5serde3ser9Serialize9serializeQNtNtCs3JYPxoBuEj2_15serde_json_wasm3ser10SerializerECs6Knm8LX4JT4_13oracle_router
FNDA:0,_RINvXs_NvXNvNtNtCs7ttpGOJz6iy_13shade_oracles10interfaces6commonsk_1__NtBa_12CommonConfigNtNtCs6CjExPaL98u_5serde2de11Deserialize11deserializeNtB5_7___FieldB1p_11deserializepEBe_
FNDA:0,_RNvXsy_NtNtCs7ttpGOJz6iy_13shade_oracles10interfaces6commonNtB5_23InstantiateCommonConfigNtNtCs59N989QkIgV_4core3cmp9PartialEq2neB9_
FNDA:0,_RINvXs_NvXs0_NvXNvNtNtCs7ttpGOJz6iy_13shade_oracles10interfaces6commonsb_1__NtBg_10ExecuteMsgNtNtCs6CjExPaL98u_5serde2de11Deserialize11deserializeNtBb_9___VisitorNtB1v_7Visitor10visit_enumNtB5_7___FieldB1t_11deserializepEBk_
FNDA:0,_RNvXsb_NtNtCs7ttpGOJz6iy_13shade_oracles10interfaces6commonNtB5_14ConfigResponseNtNtCs59N989QkIgV_4core5clone5Clone5cloneB9_
FNDA:0,_RINvXNvXs0_NvXNvNtNtCs7ttpGOJz6iy_13shade_oracles10interfaces6commons_1__NtBe_11OracleQueryNtNtCs6CjExPaL98u_5serde2de11Deserialize11deserializeNtB9_9___VisitorNtB1t_7Visitor10visit_enumNtB3_14___FieldVisitorB2y_9visit_strpEBi_
FNDA:0,_RINvXNvXNvNtNtCs7ttpGOJz6iy_13shade_oracles10interfaces6commons_1__NtB8_11OracleQueryNtNtCs6CjExPaL98u_5serde2de11Deserialize11deserializeNtB3_14___FieldVisitorNtB1n_7Visitor11visit_bytespEBc_
FNDA:0,_RNvXsC_NtNtCs7ttpGOJz6iy_13shade_oracles10interfaces6commonNtB5_12CommonConfigNtNtCs59N989QkIgV_4core3cmp9PartialEq2neB9_
FNDA:0,_RNvXsK_NtNtCs7ttpGOJz6iy_13shade_oracles10interfaces6commonNtB5_11OraclePriceNtNtCs59N989QkIgV_4core3cmp9PartialEq2eqB9_
FNDA:0,_RINvXs0_NvXNvNtNtCs7ttpGOJz6iy_13shade_oracles10interfaces6commons_1__NtBb_11OracleQueryNtNtCs6CjExPaL98u_5serde2de11Deserialize11deserializeNtB6_9___VisitorNtB1q_7Visitor10visit_enumpEBf_
FNDA:0,_RNvYpNtNtNtCs7ttpGOJz6iy_13shade_oracles10interfaces6common6Oracle10price_respB9_
FNDA:0,_RNvXs9_NtNtCs7ttpGOJz6iy_13shade_oracles10interfaces6commonNtB5_11OracleQueryNtNtCs59N989QkIgV_4core3cmp9PartialEq2neB9_
FNDA:0,_RINvXs0_NvXNvNtNtCs7ttpGOJz6iy_13shade_oracles10interfaces6commons5_1__NtBb_13PriceResponseNtNtCs6CjExPaL98u_5serde2de11Deserialize11deserializeNtB6_9___VisitorNtB1t_7Visitor9visit_seqpEBf_
FNDA:0,_RNvXsn_NtNtCs7ttpGOJz6iy_13shade_oracles10interfaces6commonNtB5_10ExecuteMsgNtNtCs59N989QkIgV_4core5clone5Clone5cloneB9_
FNDA:0,_RNvXsu_NtNtCs7ttpGOJz6iy_13shade_oracles10interfaces6commonNtB5_13ConfigUpdatesNtNtCs59N989QkIgV_4core3cmp9PartialEq2eqB9_
FNDA:0,_RINvXs0_NvXNvNtNtCs7ttpGOJz6iy_13shade_oracles10interfaces6commonse_1__NtBb_13ConfigUpdatesNtNtCs6CjExPaL98u_5serde2de11Deserialize11deserializeNtB6_9___VisitorNtB1t_7Visitor9visit_mappEBf_
FNDA:0,_RINvXNvXNvNtNtCs7ttpGOJz6iy_13shade_oracles10interfaces6commons2_1__NtB8_14ConfigResponseNtNtCs6CjExPaL98u_5serde2de11Deserialize11deserializeNtB3_14___FieldVisitorNtB1r_7Visitor9visit_u64pEBc_
FNDA:0,_RINvXNvXNvNtNtCs7ttpGOJz6iy_13shade_oracles10interfaces6commons_1__NtB8_11OracleQueryNtNtCs6CjExPaL98u_5serde2de11Deserialize11deserializeNtB3_14___FieldVisitorNtB1n_7Visitor9visit_u64pEBc_
FNDA:0,_RINvXs4_NvXs0_NvXNvNtNtCs7ttpGOJz6iy_13shade_oracles10interfaces6commons_1__NtBh_11OracleQueryNtNtCs6CjExPaL98u_5serde2de11Deserialize11deserializeNtBc_9___VisitorNtB1w_7Visitor10visit_enumNtB6_s0_14___FieldVisitorB2B_11visit_bytespEBl_
FNDA:0,_RNvXsv_NtNtCs7ttpGOJz6iy_13shade_oracles10interfaces6commonNtB5_23InstantiateCommonConfigNtNtCs59N989QkIgV_4core5clone5Clone5cloneB9_
FNDA:0,_RNvXsm_NtNtCs7ttpGOJz6iy_13shade_oracles10interfaces6commonNtB5_14PricesResponseNtNtCs59N989QkIgV_4core3cmp9PartialEq2eqB9_
FNDA:0,_RNvXsz_NtNtCs7ttpGOJz6iy_13shade_oracles10interfaces6commonNtB5_12CommonConfigNtNtCs59N989QkIgV_4core5clone5Clone5cloneB9_
FNDA:0,_RINvXs0_NvXNvNtNtCs7ttpGOJz6iy_13shade_oracles10interfaces6commonsh_1__NtBb_23InstantiateCommonConfigNtNtCs6CjExPaL98u_5serde2de11Deserialize11deserializeNtB6_9___VisitorNtB1D_7Visitor9visit_seqpEBf_
FNDA:0,_RNvXs6_NtNtCs7ttpGOJz6iy_13shade_oracles10interfaces6commonNtB5_11OracleQueryNtNtCs59N989QkIgV_4core5clone5Clone5cloneB9_
FNDA:0,_RINvXs0_NvXs0_NvXNvNtNtCs7ttpGOJz6iy_13shade_oracles10interfaces6commonsb_1__NtBh_10ExecuteMsgNtNtCs6CjExPaL98u_5serde2de11Deserialize11deserializeNtBc_9___VisitorNtB1w_7Visitor10visit_enumNtB6_9___VisitorB2B_9visit_seqpEBl_
FNDA:0,_RNvXsm_NtNtCs7ttpGOJz6iy_13shade_oracles10interfaces6commonNtB5_14PricesResponseNtNtCs59N989QkIgV_4core3cmp9PartialEq2neB9_
FNDA:0,_RINvXNvXNvNtNtCs7ttpGOJz6iy_13shade_oracles10interfaces6commonsh_1__NtB8_23InstantiateCommonConfigNtNtCs6CjExPaL98u_5serde2de11Deserialize11deserializeNtB3_14___FieldVisitorNtB1A_7Visitor9visit_u64pEBc_
FNDA:0,_RINvXs6_NvXs0_NvXNvNtNtCs7ttpGOJz6iy_13shade_oracles10interfaces6commons_1__NtBh_11OracleQueryNtNtCs6CjExPaL98u_5serde2de11Deserialize11deserializeNtBc_9___VisitorNtB1w_7Visitor10visit_enumNtB6_s0_9___VisitorB2B_9visit_mappEBl_
FNDA:0,_RNvXsK_NtNtCs7ttpGOJz6iy_13shade_oracles10interfaces6commonNtB5_11OraclePriceNtNtCs59N989QkIgV_4core3cmp9PartialEq2neB9_
FNDA:0,_RINvXs1_NvXs0_NvXNvNtNtCs7ttpGOJz6iy_13shade_oracles10interfaces6commons_1__NtBh_11OracleQueryNtNtCs6CjExPaL98u_5serde2de11Deserialize11deserializeNtBc_9___VisitorNtB1w_7Visitor10visit_enumNtB6_s_14___FieldVisitorB2B_9visit_strpEBl_
FNDA:0,_RNvYpNtNtNtCs7ttpGOJz6iy_13shade_oracles10interfaces6common6Oracle16can_query_pricesB9_
FNDA:0,_RINvXNvNtNtCs7ttpGOJz6iy_13shade_oracles10interfaces6commonsd_1__NtB5_13ConfigUpdatesNtNtCs6CjExPaL98u_5serde3ser9Serialize9serializepEB9_
FNDA:0,_RINvXNvNtNtCs7ttpGOJz6iy_13shade_oracles10interfaces6commons7_1__NtB5_14PricesResponseNtNtCs6CjExPaL98u_5serde3ser9Serialize9serializepEB9_
FNDA:0,_RINvXNvNtNtCs7ttpGOJz6iy_13shade_oracles10interfaces6commonsn_1__NtB5_12HandleAnswerNtNtCs6CjExPaL98u_5serde2de11Deserialize11deserializepEB9_
FNDA:0,_RINvXNvXNvNtNtCs7ttpGOJz6iy_13shade_oracles10interfaces6commons5_1__NtB8_13PriceResponseNtNtCs6CjExPaL98u_5serde2de11Deserialize11deserializeNtB3_14___FieldVisitorNtB1q_7Visitor11visit_bytespEBc_
FNDA:0,_RINvXNvNtNtCs7ttpGOJz6iy_13shade_oracles10interfaces6commonsj_1__NtB5_12CommonConfigNtNtCs6CjExPaL98u_5serde3ser9Serialize9serializepEB9_
FNDA:0,_RINvXNvXs0_NvXNvNtNtCs7ttpGOJz6iy_13shade_oracles10interfaces6commons_1__NtBe_11OracleQueryNtNtCs6CjExPaL98u_5serde2de11Deserialize11deserializeNtB9_9___VisitorNtB1t_7Visitor10visit_enumNtB3_14___FieldVisitorB2y_9visit_u64pEBi_
FNDA:0,_RINvXNvNtNtCs7ttpGOJz6iy_13shade_oracles10interfaces6commonsb_1__NtB5_10ExecuteMsgNtNtCs6CjExPaL98u_5serde2de11Deserialize11deserializepEB9_
FNDA:0,_RINvXs_NvXs0_NvXNvNtNtCs7ttpGOJz6iy_13shade_oracles10interfaces6commons_1__NtBg_11OracleQueryNtNtCs6CjExPaL98u_5serde2de11Deserialize11deserializeNtBb_9___VisitorNtB1v_7Visitor10visit_enumNtB5_7___FieldB1t_11deserializepEBk_
FNDA:0,_RINvXNvXNvNtNtCs7ttpGOJz6iy_13shade_oracles10interfaces6commons8_1__NtB8_14PricesResponseNtNtCs6CjExPaL98u_5serde2de11Deserialize11deserializeNtB3_14___FieldVisitorNtB1r_7Visitor9visit_u64pEBc_
FNDA:0,_RINvXs0_NvXNvNtNtCs7ttpGOJz6iy_13shade_oracles10interfaces6commonsb_1__NtBb_10ExecuteMsgNtNtCs6CjExPaL98u_5serde2de11Deserialize11deserializeNtB6_9___VisitorNtB1q_7Visitor10visit_enumpEBf_
FNDA:0,_RINvXNvNtNtCs7ttpGOJz6iy_13shade_oracles10interfaces6commonsp_1__NtB5_11OraclePriceNtNtCs6CjExPaL98u_5serde3ser9Serialize9serializepEB9_
FNDA:0,_RINvXs0_NvXs0_NvXNvNtNtCs7ttpGOJz6iy_13shade_oracles10interfaces6commonsn_1__NtBh_12HandleAnswerNtNtCs6CjExPaL98u_5serde2de11Deserialize11deserializeNtBc_9___VisitorNtB1y_7Visitor10visit_enumNtB6_9___VisitorB2D_9visit_mappEBl_
FNDA:0,_RNvYpNtNtNtCs7ttpGOJz6iy_13shade_oracles10interfaces6common6Oracle11init_configB9_
FNDA:0,_RINvXNvXNvNtNtCs7ttpGOJz6iy_13shade_oracles10interfaces6commonsn_1__NtB8_12HandleAnswerNtNtCs6CjExPaL98u_5serde2de11Deserialize11deserializeNtB3_14___FieldVisitorNtB1p_7Visitor9visit_u64pEBc_
FNDA:0,_RINvXs2_NvXs0_NvXNvNtNtCs7ttpGOJz6iy_13shade_oracles10interfaces6commons_1__NtBh_11OracleQueryNtNtCs6CjExPaL98u_5serde2de11Deserialize11deserializeNtBc_9___VisitorNtB1w_7Visitor10visit_enumNtB6_s_7___FieldB1u_11deserializepEBl_
FNDA:0,_RNvXse_NtNtCs7ttpGOJz6iy_13shade_oracles10interfaces6commonNtB5_14ConfigResponseNtNtCs59N989QkIgV_4core3cmp9PartialEq2eqB9_
FNDA:0,_RINvNtNtCs7ttpGOJz6iy_13shade_oracles10interfaces6common12oracle_querypEB6_
FNDA:0,_RINvXNvXNvNtNtCs7ttpGOJz6iy_13shade_oracles10interfaces6commons2_1__NtB8_14ConfigResponseNtNtCs6CjExPaL98u_5serde2de11Deserialize11deserializeNtB3_14___FieldVisitorNtB1r_7Visitor11visit_bytespEBc_
FNDA:0,_RINvXNvXs0_NvXNvNtNtCs7ttpGOJz6iy_13shade_oracles10interfaces6commonsb_1__NtBe_10ExecuteMsgNtNtCs6CjExPaL98u_5serde2de11Deserialize11deserializeNtB9_9___VisitorNtB1t_7Visitor10visit_enumNtB3_14___FieldVisitorB2y_11visit_bytespEBi_
FNDA:0,_RINvXs3_NvXs0_NvXNvNtNtCs7ttpGOJz6iy_13shade_oracles10interfaces6commons_1__NtBh_11OracleQueryNtNtCs6CjExPaL98u_5serde2de11Deserialize11deserializeNtBc_9___VisitorNtB1w_7Visitor10visit_enumNtB6_s_9___VisitorB2B_9visit_mappEBl_
FNDA:0,_RINvXNvXs0_NvXNvNtNtCs7ttpGOJz6iy_13shade_oracles10interfaces6commonsn_1__NtBe_12HandleAnswerNtNtCs6CjExPaL98u_5serde2de11Deserialize11deserializeNtB9_9___VisitorNtB1v_7Visitor10visit_enumNtB3_14___FieldVisitorB2A_11visit_bytespEBi_
FNDA:0,_RINvXs0_NvXNvNtNtCs7ttpGOJz6iy_13shade_oracles10interfaces6commonsh_1__NtBb_23InstantiateCommonConfigNtNtCs6CjExPaL98u_5serde2de11Deserialize11deserializeNtB6_9___VisitorNtB1D_7Visitor9visit_mappEBf_
FNDA:0,_RNvXsq_NtNtCs7ttpGOJz6iy_13shade_oracles10interfaces6commonNtB5_10ExecuteMsgNtNtCs59N989QkIgV_4core3cmp9PartialEq2neB9_
FNDA:0,_RINvXNvNtNtCs7ttpGOJz6iy_13shade_oracles10interfaces6commons1_1__NtB5_14ConfigResponseNtNtCs6CjExPaL98u_5serde3ser9Serialize9serializepEB9_
FNDA:0,_RINvXs0_NvXs0_NvXNvNtNtCs7ttpGOJz6iy_13shade_oracles10interfaces6commonsn_1__NtBh_12HandleAnswerNtNtCs6CjExPaL98u_5serde2de11Deserialize11deserializeNtBc_9___VisitorNtB1y_7Visitor10visit_enumNtB6_9___VisitorB2D_9visit_seqpEBl_
FNDA:0,_RINvXNvXNvNtNtCs7ttpGOJz6iy_13shade_oracles10interfaces6commons5_1__NtB8_13PriceResponseNtNtCs6CjExPaL98u_5serde2de11Deserialize11deserializeNtB3_14___FieldVisitorNtB1q_7Visitor9visit_u64pEBc_
FNDA:0,_RNvXsq_NtNtCs7ttpGOJz6iy_13shade_oracles10interfaces6commonNtB5_10ExecuteMsgNtNtCs59N989QkIgV_4core3cmp9PartialEq2eqB9_
FNDA:0,_RNCNvYpNtNtNtCs7ttpGOJz6iy_13shade_oracles10interfaces6common6Oracle17try_update_config0Bb_
FNDA:0,_RINvXNvXNvNtNtCs7ttpGOJz6iy_13shade_oracles10interfaces6commonsq_1__NtB8_11OraclePriceNtNtCs6CjExPaL98u_5serde2de11Deserialize11deserializeNtB3_14___FieldVisitorNtB1o_7Visitor9visit_u64pEBc_
FNDA:0,_RINvXs_NvXNvNtNtCs7ttpGOJz6iy_13shade_oracles10interfaces6commonsn_1__NtBa_12HandleAnswerNtNtCs6CjExPaL98u_5serde2de11Deserialize11deserializeNtB5_7___FieldB1p_11deserializepEBe_
FNDA:0,_RINvXs_NvXNvNtNtCs7ttpGOJz6iy_13shade_oracles10interfaces6commonse_1__NtBa_13ConfigUpdatesNtNtCs6CjExPaL98u_5serde2de11Deserialize11deserializeNtB5_7___FieldB1q_11deserializepEBe_
FNDA:0,_RINvXNvXNvNtNtCs7ttpGOJz6iy_13shade_oracles10interfaces6commonse_1__NtB8_13ConfigUpdatesNtNtCs6CjExPaL98u_5serde2de11Deserialize11deserializeNtB3_14___FieldVisitorNtB1q_7Visitor11visit_bytespEBc_
FNDA:0,_RINvXNvNtNtCs7ttpGOJz6iy_13shade_oracles10interfaces6commons4_1__NtB5_13PriceResponseNtNtCs6CjExPaL98u_5serde3ser9Serialize9serializepEB9_
FNDA:0,_RNvXsr_NtNtCs7ttpGOJz6iy_13shade_oracles10interfaces6commonNtB5_13ConfigUpdatesNtNtCs59N989QkIgV_4core5clone5Clone5cloneB9_
FNDA:0,_RINvXs1_NvXs0_NvXNvNtNtCs7ttpGOJz6iy_13shade_oracles10interfaces6commons_1__NtBh_11OracleQueryNtNtCs6CjExPaL98u_5serde2de11Deserialize11deserializeNtBc_9___VisitorNtB1w_7Visitor10visit_enumNtB6_s_14___FieldVisitorB2B_9visit_u64pEBl_
FNDA:0,_RNvXsG_NtNtCs7ttpGOJz6iy_13shade_oracles10interfaces6commonNtB5_12HandleAnswerNtNtCs59N989QkIgV_4core3cmp9PartialEq2neB9_
FNDA:0,_RINvXNvXNvNtNtCs7ttpGOJz6iy_13shade_oracles10interfaces6commonsb_1__NtB8_10ExecuteMsgNtNtCs6CjExPaL98u_5serde2de11Deserialize11deserializeNtB3_14___FieldVisitorNtB1n_7Visitor9visit_strpEBc_
FNDA:0,_RNvYpNtNtNtCs7ttpGOJz6iy_13shade_oracles10interfaces6common6Oracle17try_update_configB9_
FNDA:0,_RINvXNvXNvNtNtCs7ttpGOJz6iy_13shade_oracles10interfaces6commons_1__NtB8_11OracleQueryNtNtCs6CjExPaL98u_5serde2de11Deserialize11deserializeNtB3_14___FieldVisitorNtB1n_7Visitor9visit_strpEBc_
FNDA:0,_RINvXs0_NvXNvNtNtCs7ttpGOJz6iy_13shade_oracles10interfaces6commonse_1__NtBb_13ConfigUpdatesNtNtCs6CjExPaL98u_5serde2de11Deserialize11deserializeNtB6_9___VisitorNtB1t_7Visitor9visit_seqpEBf_
FNDA:0,_RINvXs_NvXNvNtNtCs7ttpGOJz6iy_13shade_oracles10interfaces6commons_1__NtBa_11OracleQueryNtNtCs6CjExPaL98u_5serde2de11Deserialize11deserializeNtB5_7___FieldB1n_11deserializepEBe_
FNDA:0,_RINvXs0_NvXNvNtNtCs7ttpGOJz6iy_13shade_oracles10interfaces6commons2_1__NtBb_14ConfigResponseNtNtCs6CjExPaL98u_5serde2de11Deserialize11deserializeNtB6_9___VisitorNtB1u_7Visitor9visit_seqpEBf_
FNDA:0,_RINvXNvXs0_NvXNvNtNtCs7ttpGOJz6iy_13shade_oracles10interfaces6commons_1__NtBe_11OracleQueryNtNtCs6CjExPaL98u_5serde2de11Deserialize11deserializeNtB9_9___VisitorNtB1t_7Visitor10visit_enumNtB3_14___FieldVisitorB2y_11visit_bytespEBi_
FNDA:0,_RINvXNvXNvNtNtCs7ttpGOJz6iy_13shade_oracles10interfaces6commonsk_1__NtB8_12CommonConfigNtNtCs6CjExPaL98u_5serde2de11Deserialize11deserializeNtB3_14___FieldVisitorNtB1p_7Visitor9visit_u64pEBc_
FNDA:0,_RNvXsD_NtNtCs7ttpGOJz6iy_13shade_oracles10interfaces6commonNtB5_12HandleAnswerNtNtCs59N989QkIgV_4core5clone5Clone5cloneB9_
FNDA:0,_RNvXsi_NtNtCs7ttpGOJz6iy_13shade_oracles10interfaces6commonNtB5_13PriceResponseNtNtCs59N989QkIgV_4core3cmp9PartialEq2neB9_
FNDA:0,_RNvXsi_NtNtCs7ttpGOJz6iy_13shade_oracles10interfaces6commonNtB5_13PriceResponseNtNtCs59N989QkIgV_4core3cmp9PartialEq2eqB9_
FNDA:0,_RINvXs4_NvXs0_NvXNvNtNtCs7ttpGOJz6iy_13shade_oracles10interfaces6commons_1__NtBh_11OracleQueryNtNtCs6CjExPaL98u_5serde2de11Deserialize11deserializeNtBc_9___VisitorNtB1w_7Visitor10visit_enumNtB6_s0_14___FieldVisitorB2B_9visit_u64pEBl_
FNDA:0,_RINvXNvXNvNtNtCs7ttpGOJz6iy_13shade_oracles10interfaces6commons2_1__NtB8_14ConfigResponseNtNtCs6CjExPaL98u_5serde2de11Deserialize11deserializeNtB3_14___FieldVisitorNtB1r_7Visitor9visit_strpEBc_
FNDA:0,_RINvXs3_NvXs0_NvXNvNtNtCs7ttpGOJz6iy_13shade_oracles10interfaces6commons_1__NtBh_11OracleQueryNtNtCs6CjExPaL98u_5serde2de11Deserialize11deserializeNtBc_9___VisitorNtB1w_7Visitor10visit_enumNtB6_s_9___VisitorB2B_9visit_seqpEBl_
FNDA:0,_RNvXse_NtNtCs7ttpGOJz6iy_13shade_oracles10interfaces6commonNtB5_14ConfigResponseNtNtCs59N989QkIgV_4core3cmp9PartialEq2neB9_
FNDA:0,_RINvXNvNtNtCs7ttpGOJz6iy_13shade_oracles10interfaces6commons_1__NtB5_11OracleQueryNtNtCs6CjExPaL98u_5serde2de11Deserialize11deserializepEB9_
FNDA:0,_RNvXsy_NtNtCs7ttpGOJz6iy_13shade_oracles10interfaces6commonNtB5_23InstantiateCommonConfigNtNtCs59N989QkIgV_4core3cmp9PartialEq2eqB9_
FNDA:0,_RNvXsH_NtNtCs7ttpGOJz6iy_13shade_oracles10interfaces6commonNtB5_11OraclePriceNtNtCs59N989QkIgV_4core5clone5Clone5cloneB9_
FNDA:0,_RNvXsf_NtNtCs7ttpGOJz6iy_13shade_oracles10interfaces6commonNtB5_13PriceResponseNtNtCs59N989QkIgV_4core5clone5Clone5cloneB9_
FNDA:0,_RINvXNvXNvNtNtCs7ttpGOJz6iy_13shade_oracles10interfaces6commonsn_1__NtB8_12HandleAnswerNtNtCs6CjExPaL98u_5serde2de11Deserialize11deserializeNtB3_14___FieldVisitorNtB1p_7Visitor9visit_strpEBc_
FNDA:0,_RINvXNvXNvNtNtCs7ttpGOJz6iy_13shade_oracles10interfaces6commonse_1__NtB8_13ConfigUpdatesNtNtCs6CjExPaL98u_5serde2de11Deserialize11deserializeNtB3_14___FieldVisitorNtB1q_7Visitor9visit_strpEBc_
FNDA:0,_RINvXNvNtNtCs7ttpGOJz6iy_13shade_oracles10interfaces6commonse_1__NtB5_13ConfigUpdatesNtNtCs6CjExPaL98u_5serde2de11Deserialize11deserializepEB9_
FNDA:0,_RINvXNvXNvNtNtCs7ttpGOJz6iy_13shade_oracles10interfaces6commonsk_1__NtB8_12CommonConfigNtNtCs6CjExPaL98u_5serde2de11Deserialize11deserializeNtB3_14___FieldVisitorNtB1p_7Visitor11visit_bytespEBc_
FNDA:0,_RINvXs0_NvXs0_NvXNvNtNtCs7ttpGOJz6iy_13shade_oracles10interfaces6commons_1__NtBh_11OracleQueryNtNtCs6CjExPaL98u_5serde2de11Deserialize11deserializeNtBc_9___VisitorNtB1w_7Visitor10visit_enumNtB6_9___VisitorB2B_9visit_seqpEBl_
FNDA:0,_RINvXNvXNvNtNtCs7ttpGOJz6iy_13shade_oracles10interfaces6commonsk_1__NtB8_12CommonConfigNtNtCs6CjExPaL98u_5serde2de11Deserialize11deserializeNtB3_14___FieldVisitorNtB1p_7Visitor9visit_strpEBc_
FNDA:0,_RINvXs0_NvXNvNtNtCs7ttpGOJz6iy_13shade_oracles10interfaces6commonsq_1__NtBb_11OraclePriceNtNtCs6CjExPaL98u_5serde2de11Deserialize11deserializeNtB6_9___VisitorNtB1r_7Visitor9visit_seqpEBf_
FNDA:0,_RINvXNvNtNtCs7ttpGOJz6iy_13shade_oracles10interfaces6commonsg_1__NtB5_23InstantiateCommonConfigNtNtCs6CjExPaL98u_5serde3ser9Serialize9serializepEB9_
FNDA:0,_RNvXsu_NtNtCs7ttpGOJz6iy_13shade_oracles10interfaces6commonNtB5_13ConfigUpdatesNtNtCs59N989QkIgV_4core3cmp9PartialEq2neB9_
FNDA:0,_RINvXs0_NvXNvNtNtCs7ttpGOJz6iy_13shade_oracles10interfaces6commons8_1__NtBb_14PricesResponseNtNtCs6CjExPaL98u_5serde2de11Deserialize11deserializeNtB6_9___VisitorNtB1u_7Visitor9visit_seqpEBf_
FNDA:0,_RINvXNvNtNtCs7ttpGOJz6iy_13shade_oracles10interfaces6commonsh_1__NtB5_23InstantiateCommonConfigNtNtCs6CjExPaL98u_5serde2de11Deserialize11deserializepEB9_
FNDA:0,_RINvXNvXs0_NvXNvNtNtCs7ttpGOJz6iy_13shade_oracles10interfaces6commonsb_1__NtBe_10ExecuteMsgNtNtCs6CjExPaL98u_5serde2de11Deserialize11deserializeNtB9_9___VisitorNtB1t_7Visitor10visit_enumNtB3_14___FieldVisitorB2y_9visit_strpEBi_
FNDA:0,_RNvXsG_NtNtCs7ttpGOJz6iy_13shade_oracles10interfaces6commonNtB5_12HandleAnswerNtNtCs59N989QkIgV_4core3cmp9PartialEq2eqB9_
FNDA:0,_RINvXs_NvXs0_NvXNvNtNtCs7ttpGOJz6iy_13shade_oracles10interfaces6commonsn_1__NtBg_12HandleAnswerNtNtCs6CjExPaL98u_5serde2de11Deserialize11deserializeNtBb_9___VisitorNtB1x_7Visitor10visit_enumNtB5_7___FieldB1v_11deserializepEBk_
FNDA:0,_RNvYpNtNtNtCs7ttpGOJz6iy_13shade_oracles10interfaces6common6Oracle12verify_adminB9_
FNDA:0,_RINvNtNtCs7ttpGOJz6iy_13shade_oracles10interfaces6common11oracle_execpEB6_
FNDA:0,_RNCNvYpNtNtNtCs7ttpGOJz6iy_13shade_oracles10interfaces6common6Oracle16can_query_prices0Bb_
FNDA:0,_RINvXs0_NvXNvNtNtCs7ttpGOJz6iy_13shade_oracles10interfaces6commonsn_1__NtBb_12HandleAnswerNtNtCs6CjExPaL98u_5serde2de11Deserialize11deserializeNtB6_9___VisitorNtB1s_7Visitor10visit_enumpEBf_
FNDA:0,_RNvYpNtNtNtCs7ttpGOJz6iy_13shade_oracles10interfaces6common6Oracle11prices_respB9_
FNDA:0,_RINvXs0_NvXNvNtNtCs7ttpGOJz6iy_13shade_oracles10interfaces6commonsk_1__NtBb_12CommonConfigNtNtCs6CjExPaL98u_5serde2de11Deserialize11deserializeNtB6_9___VisitorNtB1s_7Visitor9visit_seqpEBf_
FNDA:0,_RINvXNvXNvNtNtCs7ttpGOJz6iy_13shade_oracles10interfaces6commonsh_1__NtB8_23InstantiateCommonConfigNtNtCs6CjExPaL98u_5serde2de11Deserialize11deserializeNtB3_14___FieldVisitorNtB1A_7Visitor11visit_bytespEBc_
FNDA:0,_RINvXs5_NvXs0_NvXNvNtNtCs7ttpGOJz6iy_13shade_oracles10interfaces6commons_1__NtBh_11OracleQueryNtNtCs6CjExPaL98u_5serde2de11Deserialize11deserializeNtBc_9___VisitorNtB1w_7Visitor10visit_enumNtB6_s0_7___FieldB1u_11deserializepEBl_
FNDA:0,_RNvYpNtNtNtCs7ttpGOJz6iy_13shade_oracles10interfaces6common6Oracle15can_query_priceB9_
FNDA:0,_RINvXNvXNvNtNtCs7ttpGOJz6iy_13shade_oracles10interfaces6commonsb_1__NtB8_10ExecuteMsgNtNtCs6CjExPaL98u_5serde2de11Deserialize11deserializeNtB3_14___FieldVisitorNtB1n_7Visitor11visit_bytespEBc_
FNDA:0,_RINvXNvNtNtCs7ttpGOJz6iy_13shade_oracles10interfaces6commons2_1__NtB5_14ConfigResponseNtNtCs6CjExPaL98u_5serde2de11Deserialize11deserializepEB9_
FNDA:0,_RINvXs_NvXNvNtNtCs7ttpGOJz6iy_13shade_oracles10interfaces6commonsh_1__NtBa_23InstantiateCommonConfigNtNtCs6CjExPaL98u_5serde2de11Deserialize11deserializeNtB5_7___FieldB1A_11deserializepEBe_
FNDA:0,_RINvXs0_NvXs0_NvXNvNtNtCs7ttpGOJz6iy_13shade_oracles10interfaces6commonsb_1__NtBh_10ExecuteMsgNtNtCs6CjExPaL98u_5serde2de11Deserialize11deserializeNtBc_9___VisitorNtB1w_7Visitor10visit_enumNtB6_9___VisitorB2B_9visit_mappEBl_
FNDA:0,_RNvYpNtNtNtCs7ttpGOJz6iy_13shade_oracles10interfaces6common6Oracle16try_query_pricesB9_
FNDA:0,_RINvXs6_NvXs0_NvXNvNtNtCs7ttpGOJz6iy_13shade_oracles10interfaces6commons_1__NtBh_11OracleQueryNtNtCs6CjExPaL98u_5serde2de11Deserialize11deserializeNtBc_9___VisitorNtB1w_7Visitor10visit_enumNtB6_s0_9___VisitorB2B_9visit_seqpEBl_
FNDA:0,_RINvXNvXNvNtNtCs7ttpGOJz6iy_13shade_oracles10interfaces6commons8_1__NtB8_14PricesResponseNtNtCs6CjExPaL98u_5serde2de11Deserialize11deserializeNtB3_14___FieldVisitorNtB1r_7Visitor11visit_bytespEBc_
FNDA:0,_RINvXs0_NvXNvNtNtCs7ttpGOJz6iy_13shade_oracles10interfaces6commonsk_1__NtBb_12CommonConfigNtNtCs6CjExPaL98u_5serde2de11Deserialize11deserializeNtB6_9___VisitorNtB1s_7Visitor9visit_mappEBf_
FNDA:0,_RINvXNvXNvNtNtCs7ttpGOJz6iy_13shade_oracles10interfaces6commonsb_1__NtB8_10ExecuteMsgNtNtCs6CjExPaL98u_5serde2de11Deserialize11deserializeNtB3_14___FieldVisitorNtB1n_7Visitor9visit_u64pEBc_
FNDA:0,_RINvXNvXNvNtNtCs7ttpGOJz6iy_13shade_oracles10interfaces6commonsn_1__NtB8_12HandleAnswerNtNtCs6CjExPaL98u_5serde2de11Deserialize11deserializeNtB3_14___FieldVisitorNtB1p_7Visitor11visit_bytespEBc_
FNDA:0,_RINvXNvXNvNtNtCs7ttpGOJz6iy_13shade_oracles10interfaces6commonsq_1__NtB8_11OraclePriceNtNtCs6CjExPaL98u_5serde2de11Deserialize11deserializeNtB3_14___FieldVisitorNtB1o_7Visitor11visit_bytespEBc_
FNDA:0,_RINvXNvXNvNtNtCs7ttpGOJz6iy_13shade_oracles10interfaces6commonse_1__NtB8_13ConfigUpdatesNtNtCs6CjExPaL98u_5serde2de11Deserialize11deserializeNtB3_14___FieldVisitorNtB1q_7Visitor9visit_u64pEBc_
FNDA:0,_RINvXNvNtNtCs7ttpGOJz6iy_13shade_oracles10interfaces6commonsm_1__NtB5_12HandleAnswerNtNtCs6CjExPaL98u_5serde3ser9Serialize9serializepEB9_
FNDA:0,_RINvXs4_NvXs0_NvXNvNtNtCs7ttpGOJz6iy_13shade_oracles10interfaces6commons_1__NtBh_11OracleQueryNtNtCs6CjExPaL98u_5serde2de11Deserialize11deserializeNtBc_9___VisitorNtB1w_7Visitor10visit_enumNtB6_s0_14___FieldVisitorB2B_9visit_strpEBl_
FNDA:0,_RINvXNvXs0_NvXNvNtNtCs7ttpGOJz6iy_13shade_oracles10interfaces6commonsb_1__NtBe_10ExecuteMsgNtNtCs6CjExPaL98u_5serde2de11Deserialize11deserializeNtB9_9___VisitorNtB1t_7Visitor10visit_enumNtB3_14___FieldVisitorB2y_9visit_u64pEBi_
FNDA:0,_RINvXs0_NvXNvNtNtCs7ttpGOJz6iy_13shade_oracles10interfaces6commons2_1__NtBb_14ConfigResponseNtNtCs6CjExPaL98u_5serde2de11Deserialize11deserializeNtB6_9___VisitorNtB1u_7Visitor9visit_mappEBf_
FNDA:0,_RINvXs_NvXNvNtNtCs7ttpGOJz6iy_13shade_oracles10interfaces6commonsb_1__NtBa_10ExecuteMsgNtNtCs6CjExPaL98u_5serde2de11Deserialize11deserializeNtB5_7___FieldB1n_11deserializepEBe_
FNDA:0,_RINvXNvXs0_NvXNvNtNtCs7ttpGOJz6iy_13shade_oracles10interfaces6commonsn_1__NtBe_12HandleAnswerNtNtCs6CjExPaL98u_5serde2de11Deserialize11deserializeNtB9_9___VisitorNtB1v_7Visitor10visit_enumNtB3_14___FieldVisitorB2A_9visit_u64pEBi_
FNDA:0,_RINvXNvNtNtCs7ttpGOJz6iy_13shade_oracles10interfaces6commonsk_1__NtB5_12CommonConfigNtNtCs6CjExPaL98u_5serde2de11Deserialize11deserializepEB9_
FNDA:0,_RNvXsj_NtNtCs7ttpGOJz6iy_13shade_oracles10interfaces6commonNtB5_14PricesResponseNtNtCs59N989QkIgV_4core5clone5Clone5cloneB9_
FNDA:0,_RINvXNvNtNtCs7ttpGOJz6iy_13shade_oracles10interfaces6commonsa_1__NtB5_10ExecuteMsgNtNtCs6CjExPaL98u_5serde3ser9Serialize9serializepEB9_
FNDA:0,_RINvXNvXNvNtNtCs7ttpGOJz6iy_13shade_oracles10interfaces6commonsh_1__NtB8_23InstantiateCommonConfigNtNtCs6CjExPaL98u_5serde2de11Deserialize11deserializeNtB3_14___FieldVisitorNtB1A_7Visitor9visit_strpEBc_
FNDA:0,_RINvXs_NvXNvNtNtCs7ttpGOJz6iy_13shade_oracles10interfaces6commons2_1__NtBa_14ConfigResponseNtNtCs6CjExPaL98u_5serde2de11Deserialize11deserializeNtB5_7___FieldB1r_11deserializepEBe_
FNDA:0,_RINvXs1_NvXs0_NvXNvNtNtCs7ttpGOJz6iy_13shade_oracles10interfaces6commons_1__NtBh_11OracleQueryNtNtCs6CjExPaL98u_5serde2de11Deserialize11deserializeNtBc_9___VisitorNtB1w_7Visitor10visit_enumNtB6_s_14___FieldVisitorB2B_11visit_bytespEBl_
FNDA:0,_RNvXsC_NtNtCs7ttpGOJz6iy_13shade_oracles10interfaces6commonNtB5_12CommonConfigNtNtCs59N989QkIgV_4core3cmp9PartialEq2eqB9_
FNDA:0,_RINvXNvXs0_NvXNvNtNtCs7ttpGOJz6iy_13shade_oracles10interfaces6commonsn_1__NtBe_12HandleAnswerNtNtCs6CjExPaL98u_5serde2de11Deserialize11deserializeNtB9_9___VisitorNtB1v_7Visitor10visit_enumNtB3_14___FieldVisitorB2A_9visit_strpEBi_
FNDA:0,_RINvXs0_NvXs0_NvXNvNtNtCs7ttpGOJz6iy_13shade_oracles10interfaces6commons_1__NtBh_11OracleQueryNtNtCs6CjExPaL98u_5serde2de11Deserialize11deserializeNtBc_9___VisitorNtB1w_7Visitor10visit_enumNtB6_9___VisitorB2B_9visit_mappEBl_
FNDA:0,_RNvYpNtNtNtCs7ttpGOJz6iy_13shade_oracles10interfaces6common6Oracle11config_respB9_
FNDA:0,_RNvXs9_NtNtCs7ttpGOJz6iy_13shade_oracles10interfaces6commonNtB5_11OracleQueryNtNtCs59N989QkIgV_4core3cmp9PartialEq2eqB9_
FNDA:0,_RNvXNvNtNtCs7ttpGOJz6iy_13shade_oracles10interfaces6commons6_1__NtB4_13PriceResponseNtCs8g2TqZEio7D_8schemars10JsonSchema11schema_name
FNDA:0,_RNvXs0_NvXs0_NvXNvNtNtCs7ttpGOJz6iy_13shade_oracles10interfaces6commonsb_1__NtBg_10ExecuteMsgNtNtCs6CjExPaL98u_5serde2de11Deserialize11deserializeNtBb_9___VisitorNtB1v_7Visitor10visit_enumNtB5_9___VisitorB2A_9expecting
FNDA:0,_RNvXsa_NtNtCs7ttpGOJz6iy_13shade_oracles10interfaces6commonNtB5_11OracleQueryNtNtCs6wB797emF0g_15cosmwasm_schema14query_response14QueryResponses21response_schemas_impl
FNDA:0,_RNvXNvNtNtCs7ttpGOJz6iy_13shade_oracles10interfaces6commonsf_1__NtB4_13ConfigUpdatesNtCs8g2TqZEio7D_8schemars10JsonSchema11json_schema
FNDA:0,_RNvXNvXs0_NvXNvNtNtCs7ttpGOJz6iy_13shade_oracles10interfaces6commonsn_1__NtBd_12HandleAnswerNtNtCs6CjExPaL98u_5serde2de11Deserialize11deserializeNtB8_9___VisitorNtB1u_7Visitor10visit_enumNtB2_14___FieldVisitorB2z_9expecting
FNDA:16,_RNvMs_NtNtCs7ttpGOJz6iy_13shade_oracles10interfaces6commonNtB4_23InstantiateCommonConfig3new
FNDA:0,_RNvXNvXNvNtNtCs7ttpGOJz6iy_13shade_oracles10interfaces6commonsk_1__NtB7_12CommonConfigNtNtCs6CjExPaL98u_5serde2de11Deserialize11deserializeNtB2_14___FieldVisitorNtB1o_7Visitor9expecting
FNDA:0,_RNvXs0_NvXNvNtNtCs7ttpGOJz6iy_13shade_oracles10interfaces6commonsb_1__NtBa_10ExecuteMsgNtNtCs6CjExPaL98u_5serde2de11Deserialize11deserializeNtB5_9___VisitorNtB1p_7Visitor9expecting
FNDA:0,_RNvMs3_NtNtCs7ttpGOJz6iy_13shade_oracles10interfaces6commonNtB5_14BtrOraclePrice10calc_value
FNDA:0,_RNvXNvNtNtCs7ttpGOJz6iy_13shade_oracles10interfaces6commonsl_1__NtB4_12CommonConfigNtCs8g2TqZEio7D_8schemars10JsonSchema11json_schema
FNDA:0,_RNvXs0_NvXNvNtNtCs7ttpGOJz6iy_13shade_oracles10interfaces6commonsh_1__NtBa_23InstantiateCommonConfigNtNtCs6CjExPaL98u_5serde2de11Deserialize11deserializeNtB5_9___VisitorNtB1C_7Visitor9expecting
FNDA:0,_RNvXsI_NtNtCs7ttpGOJz6iy_13shade_oracles10interfaces6commonNtB5_11OraclePriceNtNtCs59N989QkIgV_4core3fmt5Debug3fmt
FNDA:0,_RNvXNvNtNtCs7ttpGOJz6iy_13shade_oracles10interfaces6commonsr_1__NtB4_11OraclePriceNtCs8g2TqZEio7D_8schemars10JsonSchema11json_schema
FNDA:0,_RNvXso_NtNtCs7ttpGOJz6iy_13shade_oracles10interfaces6commonNtB5_10ExecuteMsgNtNtCs59N989QkIgV_4core3fmt5Debug3fmt
FNDA:9,_RINvXs_NvXNvNtNtCs7ttpGOJz6iy_13shade_oracles10interfaces6commons8_1__NtBa_14PricesResponseNtNtCs6CjExPaL98u_5serde2de11Deserialize11deserializeNtB5_7___FieldB1r_11deserializeNtNtNtCs3JYPxoBuEj2_15serde_json_wasm2de3map6MapKeyEBe_
FNDA:0,_RNvXNvNtNtCs7ttpGOJz6iy_13shade_oracles10interfaces6commonsi_1__NtB4_23InstantiateCommonConfigNtCs8g2TqZEio7D_8schemars10JsonSchema11json_schema
FNDA:0,_RNvMs3_NtNtCs7ttpGOJz6iy_13shade_oracles10interfaces6commonNtB5_14BtrOraclePrice4data
FNDA:0,_RNvXs0_NvXNvNtNtCs7ttpGOJz6iy_13shade_oracles10interfaces6commons8_1__NtBa_14PricesResponseNtNtCs6CjExPaL98u_5serde2de11Deserialize11deserializeNtB5_9___VisitorNtB1t_7Visitor9expecting
FNDA:39,_RINvXNvNtNtCs7ttpGOJz6iy_13shade_oracles10interfaces6common1__NtB5_11OracleQueryNtNtCs6CjExPaL98u_5serde3ser9Serialize9serializeQNtNtCs3JYPxoBuEj2_15serde_json_wasm3ser10SerializerEB9_
FNDA:0,_RNvXs2_NtNtCs7ttpGOJz6iy_13shade_oracles10interfaces6commonNtB5_14BtrOraclePriceINtNtCs59N989QkIgV_4core7convert4FromNtB5_11OraclePriceE4from
FNDA:0,_RNvXsA_NtNtCs7ttpGOJz6iy_13shade_oracles10interfaces6commonNtB5_12CommonConfigNtNtCs59N989QkIgV_4core3fmt5Debug3fmt
FNDA:0,_RNvXNvXNvNtNtCs7ttpGOJz6iy_13shade_oracles10interfaces6commons8_1__NtB7_14PricesResponseNtNtCs6CjExPaL98u_5serde2de11Deserialize11deserializeNtB2_14___FieldVisitorNtB1q_7Visitor9expecting
FNDA:0,_RNvXNvNtNtCs7ttpGOJz6iy_13shade_oracles10interfaces6commonsl_1__NtB4_12CommonConfigNtCs8g2TqZEio7D_8schemars10JsonSchema11schema_name
FNDA:0,_RNvXNvNtNtCs7ttpGOJz6iy_13shade_oracles10interfaces6commons9_1__NtB4_14PricesResponseNtCs8g2TqZEio7D_8schemars10JsonSchema11json_schema
FNDA:0,_RNvXNvXNvNtNtCs7ttpGOJz6iy_13shade_oracles10interfaces6commons_1__NtB7_11OracleQueryNtNtCs6CjExPaL98u_5serde2de11Deserialize11deserializeNtB2_14___FieldVisitorNtB1m_7Visitor9expecting
FNDA:0,_RNvXs0_NvXNvNtNtCs7ttpGOJz6iy_13shade_oracles10interfaces6commonse_1__NtBa_13ConfigUpdatesNtNtCs6CjExPaL98u_5serde2de11Deserialize11deserializeNtB5_9___VisitorNtB1s_7Visitor9expecting
FNDA:0,_RNvXNvNtNtCs7ttpGOJz6iy_13shade_oracles10interfaces6commonsi_1__NtB4_23InstantiateCommonConfigNtCs8g2TqZEio7D_8schemars10JsonSchema11schema_name
FNDA:0,_RINvXNvNtNtCs7ttpGOJz6iy_13shade_oracles10interfaces6commonsq_1__NtB5_11OraclePriceNtNtCs6CjExPaL98u_5serde2de11Deserialize11deserializeINtNvNtNtB1n_9___private2de13missing_field24MissingFieldDeserializerNtNtNtCs3JYPxoBuEj2_15serde_json_wasm2de6errors5ErrorEEB9_
FNDA:0,_RNvXNvNtNtCs7ttpGOJz6iy_13shade_oracles10interfaces6commonsr_1__NtB4_11OraclePriceNtCs8g2TqZEio7D_8schemars10JsonSchema11schema_name
FNDA:9,_RINvXs0_NvXNvNtNtCs7ttpGOJz6iy_13shade_oracles10interfaces6commons8_1__NtBb_14PricesResponseNtNtCs6CjExPaL98u_5serde2de11Deserialize11deserializeNtB6_9___VisitorNtB1u_7Visitor9visit_mapNtNtNtCs3JYPxoBuEj2_15serde_json_wasm2de3map9MapAccessEBf_
FNDA:0,_RNvXNvXNvNtNtCs7ttpGOJz6iy_13shade_oracles10interfaces6commons5_1__NtB7_13PriceResponseNtNtCs6CjExPaL98u_5serde2de11Deserialize11deserializeNtB2_14___FieldVisitorNtB1p_7Visitor9expecting
FNDA:0,_RNvMs3_NtNtCs7ttpGOJz6iy_13shade_oracles10interfaces6commonNtB5_14BtrOraclePrice14is_stale_price
FNDA:0,_RNvXs0_NvXNvNtNtCs7ttpGOJz6iy_13shade_oracles10interfaces6commons_1__NtBa_11OracleQueryNtNtCs6CjExPaL98u_5serde2de11Deserialize11deserializeNtB5_9___VisitorNtB1p_7Visitor9expecting
FNDA:0,_RNvXNvXNvNtNtCs7ttpGOJz6iy_13shade_oracles10interfaces6commonse_1__NtB7_13ConfigUpdatesNtNtCs6CjExPaL98u_5serde2de11Deserialize11deserializeNtB2_14___FieldVisitorNtB1p_7Visitor9expecting
FNDA:9,_RINvXNvNtNtCs7ttpGOJz6iy_13shade_oracles10interfaces6commons8_1__NtB5_14PricesResponseNtNtCs6CjExPaL98u_5serde2de11Deserialize11deserializeQNtNtCs3JYPxoBuEj2_15serde_json_wasm2de12DeserializerEB9_
FNDA:9,_RINvXNvXNvNtNtCs7ttpGOJz6iy_13shade_oracles10interfaces6commons8_1__NtB8_14PricesResponseNtNtCs6CjExPaL98u_5serde2de11Deserialize11deserializeNtB3_14___FieldVisitorNtB1r_7Visitor9visit_strNtNtNtCs3JYPxoBuEj2_15serde_json_wasm2de6errors5ErrorEBc_
FNDA:0,_RNvXsk_NtNtCs7ttpGOJz6iy_13shade_oracles10interfaces6commonNtB5_14PricesResponseNtNtCs59N989QkIgV_4core3fmt5Debug3fmt
FNDA:0,_RNvXNvNtNtCs7ttpGOJz6iy_13shade_oracles10interfaces6commonsc_1__NtB4_10ExecuteMsgNtCs8g2TqZEio7D_8schemars10JsonSchema11json_schema
FNDA:0,_RNvXNvNtNtCs7ttpGOJz6iy_13shade_oracles10interfaces6commons3_1__NtB4_14ConfigResponseNtCs8g2TqZEio7D_8schemars10JsonSchema11json_schema
FNDA:0,_RNvNtNtCs7ttpGOJz6iy_13shade_oracles10interfaces6common30throw_unsupported_symbol_error
FNDA:0,_RNvXNvXNvNtNtCs7ttpGOJz6iy_13shade_oracles10interfaces6commons2_1__NtB7_14ConfigResponseNtNtCs6CjExPaL98u_5serde2de11Deserialize11deserializeNtB2_14___FieldVisitorNtB1q_7Visitor9expecting
FNDA:0,_RNvXNvNtNtCs7ttpGOJz6iy_13shade_oracles10interfaces6commonsf_1__NtB4_13ConfigUpdatesNtCs8g2TqZEio7D_8schemars10JsonSchema11schema_name
FNDA:0,_RNvXNvNtNtCs7ttpGOJz6iy_13shade_oracles10interfaces6commonso_1__NtB4_12HandleAnswerNtCs8g2TqZEio7D_8schemars10JsonSchema11json_schema
FNDA:0,_RNvXs0_NvXNvNtNtCs7ttpGOJz6iy_13shade_oracles10interfaces6commonsq_1__NtBa_11OraclePriceNtNtCs6CjExPaL98u_5serde2de11Deserialize11deserializeNtB5_9___VisitorNtB1q_7Visitor9expecting
FNDA:95,_RNvMs1_NtNtCs7ttpGOJz6iy_13shade_oracles10interfaces6commonNtB5_11OraclePrice4data
FNDA:0,_RNvXsE_NtNtCs7ttpGOJz6iy_13shade_oracles10interfaces6commonNtB5_12HandleAnswerNtNtCs59N989QkIgV_4core3fmt5Debug3fmt
FNDA:0,_RNvXs0_NvXs0_NvXNvNtNtCs7ttpGOJz6iy_13shade_oracles10interfaces6commonsn_1__NtBg_12HandleAnswerNtNtCs6CjExPaL98u_5serde2de11Deserialize11deserializeNtBb_9___VisitorNtB1x_7Visitor10visit_enumNtB5_9___VisitorB2C_9expecting
FNDA:0,_RNvMs3_NtNtCs7ttpGOJz6iy_13shade_oracles10interfaces6commonNtB5_14BtrOraclePrice11calc_amount
FNDA:0,_RNvXNvNtNtCs7ttpGOJz6iy_13shade_oracles10interfaces6commonso_1__NtB4_12HandleAnswerNtCs8g2TqZEio7D_8schemars10JsonSchema11schema_name
FNDA:92,_RINvXNvNtNtCs7ttpGOJz6iy_13shade_oracles10interfaces6commonsq_1__NtB5_11OraclePriceNtNtCs6CjExPaL98u_5serde2de11Deserialize11deserializeQNtNtCs3JYPxoBuEj2_15serde_json_wasm2de12DeserializerEB9_
FNDA:0,_RNvXNvXNvNtNtCs7ttpGOJz6iy_13shade_oracles10interfaces6commonsq_1__NtB7_11OraclePriceNtNtCs6CjExPaL98u_5serde2de11Deserialize11deserializeNtB2_14___FieldVisitorNtB1n_7Visitor9expecting
FNDA:0,_RNvXsc_NtNtCs7ttpGOJz6iy_13shade_oracles10interfaces6commonNtB5_14ConfigResponseNtNtCs59N989QkIgV_4core3fmt5Debug3fmt
FNDA:0,_RNvXNvNtNtCs7ttpGOJz6iy_13shade_oracles10interfaces6commonsc_1__NtB4_10ExecuteMsgNtCs8g2TqZEio7D_8schemars10JsonSchema11schema_name
FNDA:0,_RNvXs0_NvXNvNtNtCs7ttpGOJz6iy_13shade_oracles10interfaces6commonsk_1__NtBa_12CommonConfigNtNtCs6CjExPaL98u_5serde2de11Deserialize11deserializeNtB5_9___VisitorNtB1r_7Visitor9expecting
FNDA:0,_RNvXs7_NtNtCs7ttpGOJz6iy_13shade_oracles10interfaces6commonNtB5_11OracleQueryNtNtCs59N989QkIgV_4core3fmt5Debug3fmt
FNDA:0,_RNvXs5_NtNtCs7ttpGOJz6iy_13shade_oracles10interfaces6commonNtB5_10OracleImplNtB5_6Oracle15try_query_price
FNDA:62,_RNvMs1_NtNtCs7ttpGOJz6iy_13shade_oracles10interfaces6commonNtB5_11OraclePrice3key
FNDA:39,_RINvXNvNtNtCs7ttpGOJz6iy_13shade_oracles10interfaces6commons5_1__NtB5_13PriceResponseNtNtCs6CjExPaL98u_5serde2de11Deserialize11deserializeQNtNtCs3JYPxoBuEj2_15serde_json_wasm2de12DeserializerEB9_
FNDA:39,_RINvXNvXNvNtNtCs7ttpGOJz6iy_13shade_oracles10interfaces6commons5_1__NtB8_13PriceResponseNtNtCs6CjExPaL98u_5serde2de11Deserialize11deserializeNtB3_14___FieldVisitorNtB1q_7Visitor9visit_strNtNtNtCs3JYPxoBuEj2_15serde_json_wasm2de6errors5ErrorEBc_
FNDA:0,_RNvXNvXs0_NvXNvNtNtCs7ttpGOJz6iy_13shade_oracles10interfaces6commonsb_1__NtBd_10ExecuteMsgNtNtCs6CjExPaL98u_5serde2de11Deserialize11deserializeNtB8_9___VisitorNtB1s_7Visitor10visit_enumNtB2_14___FieldVisitorB2x_9expecting
FNDA:0,_RNvXNvNtNtCs7ttpGOJz6iy_13shade_oracles10interfaces6commons0_1__NtB4_11OracleQueryNtCs8g2TqZEio7D_8schemars10JsonSchema11json_schema
FNDA:0,_RNvXNvXNvNtNtCs7ttpGOJz6iy_13shade_oracles10interfaces6commonsn_1__NtB7_12HandleAnswerNtNtCs6CjExPaL98u_5serde2de11Deserialize11deserializeNtB2_14___FieldVisitorNtB1o_7Visitor9expecting
FNDA:184,_RINvXNvXNvNtNtCs7ttpGOJz6iy_13shade_oracles10interfaces6commonsq_1__NtB8_11OraclePriceNtNtCs6CjExPaL98u_5serde2de11Deserialize11deserializeNtB3_14___FieldVisitorNtB1o_7Visitor9visit_strNtNtNtCs3JYPxoBuEj2_15serde_json_wasm2de6errors5ErrorEBc_
FNDA:22,_RNvMs_NtNtCs7ttpGOJz6iy_13shade_oracles10interfaces6commonNtB4_23InstantiateCommonConfig10into_valid
FNDA:39,_RINvXs_NvXNvNtNtCs7ttpGOJz6iy_13shade_oracles10interfaces6commons5_1__NtBa_13PriceResponseNtNtCs6CjExPaL98u_5serde2de11Deserialize11deserializeNtB5_7___FieldB1q_11deserializeNtNtNtCs3JYPxoBuEj2_15serde_json_wasm2de3map6MapKeyEBe_
FNDA:0,_RNvXNvNtNtCs7ttpGOJz6iy_13shade_oracles10interfaces6commons9_1__NtB4_14PricesResponseNtCs8g2TqZEio7D_8schemars10JsonSchema11schema_name
FNDA:0,_RNvXNvXNvNtNtCs7ttpGOJz6iy_13shade_oracles10interfaces6commonsh_1__NtB7_23InstantiateCommonConfigNtNtCs6CjExPaL98u_5serde2de11Deserialize11deserializeNtB2_14___FieldVisitorNtB1z_7Visitor9expecting
FNDA:89,_RNvMs1_NtNtCs7ttpGOJz6iy_13shade_oracles10interfaces6commonNtB5_11OraclePrice3new
FNDA:0,_RNvXs0_NvXNvNtNtCs7ttpGOJz6iy_13shade_oracles10interfaces6commons5_1__NtBa_13PriceResponseNtNtCs6CjExPaL98u_5serde2de11Deserialize11deserializeNtB5_9___VisitorNtB1s_7Visitor9expecting
FNDA:0,_RNvXs0_NvXNvNtNtCs7ttpGOJz6iy_13shade_oracles10interfaces6commonsn_1__NtBa_12HandleAnswerNtNtCs6CjExPaL98u_5serde2de11Deserialize11deserializeNtB5_9___VisitorNtB1r_7Visitor9expecting
FNDA:0,_RNvXNvNtNtCs7ttpGOJz6iy_13shade_oracles10interfaces6commons6_1__NtB4_13PriceResponseNtCs8g2TqZEio7D_8schemars10JsonSchema11json_schema
FNDA:0,_RNvXNvNtNtCs7ttpGOJz6iy_13shade_oracles10interfaces6commons3_1__NtB4_14ConfigResponseNtCs8g2TqZEio7D_8schemars10JsonSchema11schema_name
FNDA:0,_RNvXs1_NvXs0_NvXNvNtNtCs7ttpGOJz6iy_13shade_oracles10interfaces6commons_1__NtBg_11OracleQueryNtNtCs6CjExPaL98u_5serde2de11Deserialize11deserializeNtBb_9___VisitorNtB1v_7Visitor10visit_enumNtB5_s_14___FieldVisitorB2A_9expecting
FNDA:0,_RNvMs3_NtNtCs7ttpGOJz6iy_13shade_oracles10interfaces6commonNtB5_14BtrOraclePrice3key
FNDA:0,_RNvXs4_NvXs0_NvXNvNtNtCs7ttpGOJz6iy_13shade_oracles10interfaces6commons_1__NtBg_11OracleQueryNtNtCs6CjExPaL98u_5serde2de11Deserialize11deserializeNtBb_9___VisitorNtB1v_7Visitor10visit_enumNtB5_s0_14___FieldVisitorB2A_9expecting
FNDA:0,_RNvXNvXs0_NvXNvNtNtCs7ttpGOJz6iy_13shade_oracles10interfaces6commons_1__NtBd_11OracleQueryNtNtCs6CjExPaL98u_5serde2de11Deserialize11deserializeNtB8_9___VisitorNtB1s_7Visitor10visit_enumNtB2_14___FieldVisitorB2x_9expecting
FNDA:39,_RINvXs0_NvXNvNtNtCs7ttpGOJz6iy_13shade_oracles10interfaces6commons5_1__NtBb_13PriceResponseNtNtCs6CjExPaL98u_5serde2de11Deserialize11deserializeNtB6_9___VisitorNtB1t_7Visitor9visit_mapNtNtNtCs3JYPxoBuEj2_15serde_json_wasm2de3map9MapAccessEBf_
FNDA:39,_RNvNtNtCs7ttpGOJz6iy_13shade_oracles10interfaces6common11is_disabled
FNDA:0,_RNvXs0_NvXNvNtNtCs7ttpGOJz6iy_13shade_oracles10interfaces6commons2_1__NtBa_14ConfigResponseNtNtCs6CjExPaL98u_5serde2de11Deserialize11deserializeNtB5_9___VisitorNtB1t_7Visitor9expecting
FNDA:0,_RNvXsw_NtNtCs7ttpGOJz6iy_13shade_oracles10interfaces6commonNtB5_23InstantiateCommonConfigNtNtCs59N989QkIgV_4core3fmt5Debug3fmt
FNDA:0,_RNvXs3_NvXs0_NvXNvNtNtCs7ttpGOJz6iy_13shade_oracles10interfaces6commons_1__NtBg_11OracleQueryNtNtCs6CjExPaL98u_5serde2de11Deserialize11deserializeNtBb_9___VisitorNtB1v_7Visitor10visit_enumNtB5_s_9___VisitorB2A_9expecting
FNDA:184,_RINvXs_NvXNvNtNtCs7ttpGOJz6iy_13shade_oracles10interfaces6commonsq_1__NtBa_11OraclePriceNtNtCs6CjExPaL98u_5serde2de11Deserialize11deserializeNtB5_7___FieldB1o_11deserializeNtNtNtCs3JYPxoBuEj2_15serde_json_wasm2de3map6MapKeyEBe_
FNDA:0,_RNvXss_NtNtCs7ttpGOJz6iy_13shade_oracles10interfaces6commonNtB5_13ConfigUpdatesNtNtCs59N989QkIgV_4core3fmt5Debug3fmt
FNDA:92,_RINvXs0_NvXNvNtNtCs7ttpGOJz6iy_13shade_oracles10interfaces6commonsq_1__NtBb_11OraclePriceNtNtCs6CjExPaL98u_5serde2de11Deserialize11deserializeNtB6_9___VisitorNtB1r_7Visitor9visit_mapNtNtNtCs3JYPxoBuEj2_15serde_json_wasm2de3map9MapAccessEBf_
FNDA:0,_RNvXsg_NtNtCs7ttpGOJz6iy_13shade_oracles10interfaces6commonNtB5_13PriceResponseNtNtCs59N989QkIgV_4core3fmt5Debug3fmt
FNDA:0,_RNvXs6_NvXs0_NvXNvNtNtCs7ttpGOJz6iy_13shade_oracles10interfaces6commons_1__NtBg_11OracleQueryNtNtCs6CjExPaL98u_5serde2de11Deserialize11deserializeNtBb_9___VisitorNtB1v_7Visitor10visit_enumNtB5_s0_9___VisitorB2A_9expecting
FNDA:0,_RNvXNvNtNtCs7ttpGOJz6iy_13shade_oracles10interfaces6commons0_1__NtB4_11OracleQueryNtCs8g2TqZEio7D_8schemars10JsonSchema11schema_name
FNDA:0,_RNvXNvXNvNtNtCs7ttpGOJz6iy_13shade_oracles10interfaces6commonsb_1__NtB7_10ExecuteMsgNtNtCs6CjExPaL98u_5serde2de11Deserialize11deserializeNtB2_14___FieldVisitorNtB1m_7Visitor9expecting
FNDA:0,_RNvXs0_NvXs0_NvXNvNtNtCs7ttpGOJz6iy_13shade_oracles10interfaces6commons_1__NtBg_11OracleQueryNtNtCs6CjExPaL98u_5serde2de11Deserialize11deserializeNtBb_9___VisitorNtB1v_7Visitor10visit_enumNtB5_9___VisitorB2A_9expecting
FNDA:0,_RNvMs3_NtNtCs7ttpGOJz6iy_13shade_oracles10interfaces6commonNtB5_14BtrOraclePrice18time_since_updated
FNDA:0,_RINvXNvNtNtCs7ttpGOJz6iy_13shade_oracles10interfaces6commonsd_1__NtB5_13ConfigUpdatesNtNtCs6CjExPaL98u_5serde3ser9Serialize9serializeQNtNtCs3JYPxoBuEj2_15serde_json_wasm3ser10SerializerECsbzkiAqBzvMp_11integration
FNDA:0,_RNvXsb_NtNtCs5yQHJDQE64T_13shade_oracles10interfaces6commonNtB5_14ConfigResponseNtNtCs59N989QkIgV_4core5clone5Clone5cloneB9_
FNDA:0,_RNvXsy_NtNtCs5yQHJDQE64T_13shade_oracles10interfaces6commonNtB5_23InstantiateCommonConfigNtNtCs59N989QkIgV_4core3cmp9PartialEq2neB9_
FNDA:0,_RINvXNvXs0_NvXNvNtNtCs5yQHJDQE64T_13shade_oracles10interfaces6commonsb_1__NtBe_10ExecuteMsgNtNtCs6CjExPaL98u_5serde2de11Deserialize11deserializeNtB9_9___VisitorNtB1t_7Visitor10visit_enumNtB3_14___FieldVisitorB2y_11visit_bytespEBi_
FNDA:0,_RINvXNvXNvNtNtCs5yQHJDQE64T_13shade_oracles10interfaces6commons2_1__NtB8_14ConfigResponseNtNtCs6CjExPaL98u_5serde2de11Deserialize11deserializeNtB3_14___FieldVisitorNtB1r_7Visitor11visit_bytespEBc_
FNDA:0,_RINvXNvNtNtCs5yQHJDQE64T_13shade_oracles10interfaces6commonsp_1__NtB5_11OraclePriceNtNtCs6CjExPaL98u_5serde3ser9Serialize9serializepEB9_
FNDA:0,_RINvXNvXNvNtNtCs5yQHJDQE64T_13shade_oracles10interfaces6commonsq_1__NtB8_11OraclePriceNtNtCs6CjExPaL98u_5serde2de11Deserialize11deserializeNtB3_14___FieldVisitorNtB1o_7Visitor9visit_strpEBc_
FNDA:0,_RNvXsC_NtNtCs5yQHJDQE64T_13shade_oracles10interfaces6commonNtB5_12CommonConfigNtNtCs59N989QkIgV_4core3cmp9PartialEq2neB9_
FNDA:0,_RINvXs0_NvXNvNtNtCs5yQHJDQE64T_13shade_oracles10interfaces6commonsn_1__NtBb_12HandleAnswerNtNtCs6CjExPaL98u_5serde2de11Deserialize11deserializeNtB6_9___VisitorNtB1s_7Visitor10visit_enumpEBf_
FNDA:0,_RNvYpNtNtNtCs5yQHJDQE64T_13shade_oracles10interfaces6common6Oracle16try_query_pricesB9_
FNDA:0,_RNvYpNtNtNtCs5yQHJDQE64T_13shade_oracles10interfaces6common6Oracle17try_update_configB9_
FNDA:0,_RINvXs_NvXs0_NvXNvNtNtCs5yQHJDQE64T_13shade_oracles10interfaces6commons_1__NtBg_11OracleQueryNtNtCs6CjExPaL98u_5serde2de11Deserialize11deserializeNtBb_9___VisitorNtB1v_7Visitor10visit_enumNtB5_7___FieldB1t_11deserializepEBk_
FNDA:0,_RNvXsK_NtNtCs5yQHJDQE64T_13shade_oracles10interfaces6commonNtB5_11OraclePriceNtNtCs59N989QkIgV_4core3cmp9PartialEq2eqB9_
FNDA:0,_RINvXNvXNvNtNtCs5yQHJDQE64T_13shade_oracles10interfaces6commons5_1__NtB8_13PriceResponseNtNtCs6CjExPaL98u_5serde2de11Deserialize11deserializeNtB3_14___FieldVisitorNtB1q_7Visitor9visit_u64pEBc_
FNDA:0,_RINvXs_NvXNvNtNtCs5yQHJDQE64T_13shade_oracles10interfaces6commonsq_1__NtBa_11OraclePriceNtNtCs6CjExPaL98u_5serde2de11Deserialize11deserializeNtB5_7___FieldB1o_11deserializepEBe_
FNDA:0,_RNvXs9_NtNtCs5yQHJDQE64T_13shade_oracles10interfaces6commonNtB5_11OracleQueryNtNtCs59N989QkIgV_4core3cmp9PartialEq2neB9_
FNDA:0,_RINvXNvXNvNtNtCs5yQHJDQE64T_13shade_oracles10interfaces6commonsh_1__NtB8_23InstantiateCommonConfigNtNtCs6CjExPaL98u_5serde2de11Deserialize11deserializeNtB3_14___FieldVisitorNtB1A_7Visitor11visit_bytespEBc_
FNDA:0,_RINvXs1_NvXs0_NvXNvNtNtCs5yQHJDQE64T_13shade_oracles10interfaces6commons_1__NtBh_11OracleQueryNtNtCs6CjExPaL98u_5serde2de11Deserialize11deserializeNtBc_9___VisitorNtB1w_7Visitor10visit_enumNtB6_s_14___FieldVisitorB2B_11visit_bytespEBl_
FNDA:0,_RNvXsn_NtNtCs5yQHJDQE64T_13shade_oracles10interfaces6commonNtB5_10ExecuteMsgNtNtCs59N989QkIgV_4core5clone5Clone5cloneB9_
FNDA:0,_RNvXNvNtNtCs5yQHJDQE64T_13shade_oracles10interfaces6commons3_1__NtB4_14ConfigResponseNtCs8g2TqZEio7D_8schemars10JsonSchema11schema_name
FNDA:0,_RNvNtNtCs5yQHJDQE64T_13shade_oracles10interfaces6common11is_disabled
FNDA:0,_RNvXsu_NtNtCs5yQHJDQE64T_13shade_oracles10interfaces6commonNtB5_13ConfigUpdatesNtNtCs59N989QkIgV_4core3cmp9PartialEq2eqB9_
FNDA:0,_RINvXs0_NvXs0_NvXNvNtNtCs5yQHJDQE64T_13shade_oracles10interfaces6commonsb_1__NtBh_10ExecuteMsgNtNtCs6CjExPaL98u_5serde2de11Deserialize11deserializeNtBc_9___VisitorNtB1w_7Visitor10visit_enumNtB6_9___VisitorB2B_9visit_mappEBl_
FNDA:0,_RINvXNvXNvNtNtCs5yQHJDQE64T_13shade_oracles10interfaces6commons_1__NtB8_11OracleQueryNtNtCs6CjExPaL98u_5serde2de11Deserialize11deserializeNtB3_14___FieldVisitorNtB1n_7Visitor9visit_strpEBc_
FNDA:0,_RINvXs0_NvXs0_NvXNvNtNtCs5yQHJDQE64T_13shade_oracles10interfaces6commonsb_1__NtBh_10ExecuteMsgNtNtCs6CjExPaL98u_5serde2de11Deserialize11deserializeNtBc_9___VisitorNtB1w_7Visitor10visit_enumNtB6_9___VisitorB2B_9visit_seqpEBl_
FNDA:0,_RNvXsA_NtNtCs5yQHJDQE64T_13shade_oracles10interfaces6commonNtB5_12CommonConfigNtNtCs59N989QkIgV_4core3fmt5Debug3fmt
FNDA:0,_RINvXs2_NvXs0_NvXNvNtNtCs5yQHJDQE64T_13shade_oracles10interfaces6commons_1__NtBh_11OracleQueryNtNtCs6CjExPaL98u_5serde2de11Deserialize11deserializeNtBc_9___VisitorNtB1w_7Visitor10visit_enumNtB6_s_7___FieldB1u_11deserializepEBl_
FNDA:0,_RNvXsv_NtNtCs5yQHJDQE64T_13shade_oracles10interfaces6commonNtB5_23InstantiateCommonConfigNtNtCs59N989QkIgV_4core5clone5Clone5cloneB9_
FNDA:0,_RNvXs0_NvXNvNtNtCs5yQHJDQE64T_13shade_oracles10interfaces6commonse_1__NtBa_13ConfigUpdatesNtNtCs6CjExPaL98u_5serde2de11Deserialize11deserializeNtB5_9___VisitorNtB1s_7Visitor9expecting
FNDA:0,_RINvXNvXNvNtNtCs5yQHJDQE64T_13shade_oracles10interfaces6commonsn_1__NtB8_12HandleAnswerNtNtCs6CjExPaL98u_5serde2de11Deserialize11deserializeNtB3_14___FieldVisitorNtB1p_7Visitor11visit_bytespEBc_
FNDA:0,_RNvXsm_NtNtCs5yQHJDQE64T_13shade_oracles10interfaces6commonNtB5_14PricesResponseNtNtCs59N989QkIgV_4core3cmp9PartialEq2eqB9_
FNDA:0,_RNvXs3_NvXs0_NvXNvNtNtCs5yQHJDQE64T_13shade_oracles10interfaces6commons_1__NtBg_11OracleQueryNtNtCs6CjExPaL98u_5serde2de11Deserialize11deserializeNtBb_9___VisitorNtB1v_7Visitor10visit_enumNtB5_s_9___VisitorB2A_9expecting
FNDA:0,_RNvXsz_NtNtCs5yQHJDQE64T_13shade_oracles10interfaces6commonNtB5_12CommonConfigNtNtCs59N989QkIgV_4core5clone5Clone5cloneB9_
FNDA:0,_RNvXNvXs0_NvXNvNtNtCs5yQHJDQE64T_13shade_oracles10interfaces6commonsn_1__NtBd_12HandleAnswerNtNtCs6CjExPaL98u_5serde2de11Deserialize11deserializeNtB8_9___VisitorNtB1u_7Visitor10visit_enumNtB2_14___FieldVisitorB2z_9expecting
FNDA:0,_RNvYpNtNtNtCs5yQHJDQE64T_13shade_oracles10interfaces6common6Oracle10price_respB9_
FNDA:0,_RINvNtNtCs5yQHJDQE64T_13shade_oracles10interfaces6common12oracle_querypEB6_
FNDA:0,_RINvXNvNtNtCs5yQHJDQE64T_13shade_oracles10interfaces6commons_1__NtB5_11OracleQueryNtNtCs6CjExPaL98u_5serde2de11Deserialize11deserializepEB9_
FNDA:0,_RINvXNvXNvNtNtCs5yQHJDQE64T_13shade_oracles10interfaces6commons8_1__NtB8_14PricesResponseNtNtCs6CjExPaL98u_5serde2de11Deserialize11deserializeNtB3_14___FieldVisitorNtB1r_7Visitor11visit_bytespEBc_
FNDA:0,_RINvXNvNtNtCs5yQHJDQE64T_13shade_oracles10interfaces6commons7_1__NtB5_14PricesResponseNtNtCs6CjExPaL98u_5serde3ser9Serialize9serializepEB9_
FNDA:0,_RNvXs6_NtNtCs5yQHJDQE64T_13shade_oracles10interfaces6commonNtB5_11OracleQueryNtNtCs59N989QkIgV_4core5clone5Clone5cloneB9_
FNDA:0,_RNvXNvNtNtCs5yQHJDQE64T_13shade_oracles10interfaces6commonsi_1__NtB4_23InstantiateCommonConfigNtCs8g2TqZEio7D_8schemars10JsonSchema11schema_name
FNDA:0,_RINvXNvXNvNtNtCs5yQHJDQE64T_13shade_oracles10interfaces6commonsb_1__NtB8_10ExecuteMsgNtNtCs6CjExPaL98u_5serde2de11Deserialize11deserializeNtB3_14___FieldVisitorNtB1n_7Visitor9visit_u64pEBc_
FNDA:0,_RNvXNvXNvNtNtCs5yQHJDQE64T_13shade_oracles10interfaces6commonsk_1__NtB7_12CommonConfigNtNtCs6CjExPaL98u_5serde2de11Deserialize11deserializeNtB2_14___FieldVisitorNtB1o_7Visitor9expecting
FNDA:0,_RNvXNvNtNtCs5yQHJDQE64T_13shade_oracles10interfaces6commons3_1__NtB4_14ConfigResponseNtCs8g2TqZEio7D_8schemars10JsonSchema11json_schema
FNDA:0,_RNvXsm_NtNtCs5yQHJDQE64T_13shade_oracles10interfaces6commonNtB5_14PricesResponseNtNtCs59N989QkIgV_4core3cmp9PartialEq2neB9_
FNDA:0,_RINvXNvNtNtCs5yQHJDQE64T_13shade_oracles10interfaces6commonsq_1__NtB5_11OraclePriceNtNtCs6CjExPaL98u_5serde2de11Deserialize11deserializepEB9_
FNDA:0,_RINvXNvNtNtCs5yQHJDQE64T_13shade_oracles10interfaces6commonsa_1__NtB5_10ExecuteMsgNtNtCs6CjExPaL98u_5serde3ser9Serialize9serializepEB9_
FNDA:0,_RNvXNvXNvNtNtCs5yQHJDQE64T_13shade_oracles10interfaces6commonsb_1__NtB7_10ExecuteMsgNtNtCs6CjExPaL98u_5serde2de11Deserialize11deserializeNtB2_14___FieldVisitorNtB1m_7Visitor9expecting
FNDA:0,_RNvXsK_NtNtCs5yQHJDQE64T_13shade_oracles10interfaces6commonNtB5_11OraclePriceNtNtCs59N989QkIgV_4core3cmp9PartialEq2neB9_
FNDA:0,_RINvXNvXs0_NvXNvNtNtCs5yQHJDQE64T_13shade_oracles10interfaces6commonsn_1__NtBe_12HandleAnswerNtNtCs6CjExPaL98u_5serde2de11Deserialize11deserializeNtB9_9___VisitorNtB1v_7Visitor10visit_enumNtB3_14___FieldVisitorB2A_9visit_u64pEBi_
FNDA:0,_RINvXNvNtNtCs5yQHJDQE64T_13shade_oracles10interfaces6commons5_1__NtB5_13PriceResponseNtNtCs6CjExPaL98u_5serde2de11Deserialize11deserializepEB9_
FNDA:0,_RINvXNvXNvNtNtCs5yQHJDQE64T_13shade_oracles10interfaces6commonsk_1__NtB8_12CommonConfigNtNtCs6CjExPaL98u_5serde2de11Deserialize11deserializeNtB3_14___FieldVisitorNtB1p_7Visitor9visit_u64pEBc_
FNDA:0,_RINvXs_NvXNvNtNtCs5yQHJDQE64T_13shade_oracles10interfaces6commonsh_1__NtBa_23InstantiateCommonConfigNtNtCs6CjExPaL98u_5serde2de11Deserialize11deserializeNtB5_7___FieldB1A_11deserializepEBe_
FNDA:0,_RNvNtNtCs5yQHJDQE64T_13shade_oracles10interfaces6common30throw_unsupported_symbol_error
FNDA:0,_RINvXs0_NvXNvNtNtCs5yQHJDQE64T_13shade_oracles10interfaces6commons8_1__NtBb_14PricesResponseNtNtCs6CjExPaL98u_5serde2de11Deserialize11deserializeNtB6_9___VisitorNtB1u_7Visitor9visit_seqpEBf_
FNDA:0,_RNvXs0_NvXNvNtNtCs5yQHJDQE64T_13shade_oracles10interfaces6commonsk_1__NtBa_12CommonConfigNtNtCs6CjExPaL98u_5serde2de11Deserialize11deserializeNtB5_9___VisitorNtB1r_7Visitor9expecting
FNDA:0,_RNvXs2_NtNtCs5yQHJDQE64T_13shade_oracles10interfaces6commonNtB5_14BtrOraclePriceINtNtCs59N989QkIgV_4core7convert4FromNtB5_11OraclePriceE4from
FNDA:0,_RINvXNvXs0_NvXNvNtNtCs5yQHJDQE64T_13shade_oracles10interfaces6commonsb_1__NtBe_10ExecuteMsgNtNtCs6CjExPaL98u_5serde2de11Deserialize11deserializeNtB9_9___VisitorNtB1t_7Visitor10visit_enumNtB3_14___FieldVisitorB2y_9visit_u64pEBi_
FNDA:0,_RINvXNvXNvNtNtCs5yQHJDQE64T_13shade_oracles10interfaces6commonsk_1__NtB8_12CommonConfigNtNtCs6CjExPaL98u_5serde2de11Deserialize11deserializeNtB3_14___FieldVisitorNtB1p_7Visitor9visit_strpEBc_
FNDA:0,_RNvMs3_NtNtCs5yQHJDQE64T_13shade_oracles10interfaces6commonNtB5_14BtrOraclePrice14is_stale_price
FNDA:0,_RNvXs0_NvXNvNtNtCs5yQHJDQE64T_13shade_oracles10interfaces6commonsb_1__NtBa_10ExecuteMsgNtNtCs6CjExPaL98u_5serde2de11Deserialize11deserializeNtB5_9___VisitorNtB1p_7Visitor9expecting
FNDA:0,_RNvXNvXNvNtNtCs5yQHJDQE64T_13shade_oracles10interfaces6commons8_1__NtB7_14PricesResponseNtNtCs6CjExPaL98u_5serde2de11Deserialize11deserializeNtB2_14___FieldVisitorNtB1q_7Visitor9expecting
FNDA:0,_RNvXNvNtNtCs5yQHJDQE64T_13shade_oracles10interfaces6commonso_1__NtB4_12HandleAnswerNtCs8g2TqZEio7D_8schemars10JsonSchema11schema_name
FNDA:0,_RINvXNvXNvNtNtCs5yQHJDQE64T_13shade_oracles10interfaces6commonsn_1__NtB8_12HandleAnswerNtNtCs6CjExPaL98u_5serde2de11Deserialize11deserializeNtB3_14___FieldVisitorNtB1p_7Visitor9visit_strpEBc_
FNDA:0,_RNvYpNtNtNtCs5yQHJDQE64T_13shade_oracles10interfaces6common6Oracle15can_query_priceB9_
FNDA:0,_RINvXNvXNvNtNtCs5yQHJDQE64T_13shade_oracles10interfaces6commonse_1__NtB8_13ConfigUpdatesNtNtCs6CjExPaL98u_5serde2de11Deserialize11deserializeNtB3_14___FieldVisitorNtB1q_7Visitor9visit_strpEBc_
FNDA:0,_RINvXNvXNvNtNtCs5yQHJDQE64T_13shade_oracles10interfaces6commonsq_1__NtB8_11OraclePriceNtNtCs6CjExPaL98u_5serde2de11Deserialize11deserializeNtB3_14___FieldVisitorNtB1o_7Visitor9visit_u64pEBc_
FNDA:0,_RINvXNvXs0_NvXNvNtNtCs5yQHJDQE64T_13shade_oracles10interfaces6commonsn_1__NtBe_12HandleAnswerNtNtCs6CjExPaL98u_5serde2de11Deserialize11deserializeNtB9_9___VisitorNtB1v_7Visitor10visit_enumNtB3_14___FieldVisitorB2A_11visit_bytespEBi_
FNDA:0,_RNvXse_NtNtCs5yQHJDQE64T_13shade_oracles10interfaces6commonNtB5_14ConfigResponseNtNtCs59N989QkIgV_4core3cmp9PartialEq2eqB9_
FNDA:0,_RNvMs3_NtNtCs5yQHJDQE64T_13shade_oracles10interfaces6commonNtB5_14BtrOraclePrice3key
FNDA:0,_RINvXs0_NvXNvNtNtCs5yQHJDQE64T_13shade_oracles10interfaces6commonsh_1__NtBb_23InstantiateCommonConfigNtNtCs6CjExPaL98u_5serde2de11Deserialize11deserializeNtB6_9___VisitorNtB1D_7Visitor9visit_mappEBf_
FNDA:0,_RINvXNvXNvNtNtCs5yQHJDQE64T_13shade_oracles10interfaces6commonsk_1__NtB8_12CommonConfigNtNtCs6CjExPaL98u_5serde2de11Deserialize11deserializeNtB3_14___FieldVisitorNtB1p_7Visitor11visit_bytespEBc_
FNDA:0,_RNvXNvNtNtCs5yQHJDQE64T_13shade_oracles10interfaces6commons6_1__NtB4_13PriceResponseNtCs8g2TqZEio7D_8schemars10JsonSchema11schema_name
FNDA:0,_RINvXNvNtNtCs5yQHJDQE64T_13shade_oracles10interfaces6commons4_1__NtB5_13PriceResponseNtNtCs6CjExPaL98u_5serde3ser9Serialize9serializepEB9_
FNDA:0,_RNvXso_NtNtCs5yQHJDQE64T_13shade_oracles10interfaces6commonNtB5_10ExecuteMsgNtNtCs59N989QkIgV_4core3fmt5Debug3fmt
FNDA:0,_RINvXs_NvXNvNtNtCs5yQHJDQE64T_13shade_oracles10interfaces6commonsb_1__NtBa_10ExecuteMsgNtNtCs6CjExPaL98u_5serde2de11Deserialize11deserializeNtB5_7___FieldB1n_11deserializepEBe_
FNDA:0,_RNvXNvNtNtCs5yQHJDQE64T_13shade_oracles10interfaces6commons9_1__NtB4_14PricesResponseNtCs8g2TqZEio7D_8schemars10JsonSchema11json_schema
FNDA:0,_RNvXsq_NtNtCs5yQHJDQE64T_13shade_oracles10interfaces6commonNtB5_10ExecuteMsgNtNtCs59N989QkIgV_4core3cmp9PartialEq2neB9_
FNDA:0,_RINvXs6_NvXs0_NvXNvNtNtCs5yQHJDQE64T_13shade_oracles10interfaces6commons_1__NtBh_11OracleQueryNtNtCs6CjExPaL98u_5serde2de11Deserialize11deserializeNtBc_9___VisitorNtB1w_7Visitor10visit_enumNtB6_s0_9___VisitorB2B_9visit_mappEBl_
FNDA:0,_RNvXsq_NtNtCs5yQHJDQE64T_13shade_oracles10interfaces6commonNtB5_10ExecuteMsgNtNtCs59N989QkIgV_4core3cmp9PartialEq2eqB9_
FNDA:0,_RINvXNvXNvNtNtCs5yQHJDQE64T_13shade_oracles10interfaces6commons_1__NtB8_11OracleQueryNtNtCs6CjExPaL98u_5serde2de11Deserialize11deserializeNtB3_14___FieldVisitorNtB1n_7Visitor9visit_u64pEBc_
FNDA:0,_RNvMs1_NtNtCs5yQHJDQE64T_13shade_oracles10interfaces6commonNtB5_11OraclePrice3key
FNDA:0,_RINvXs_NvXNvNtNtCs5yQHJDQE64T_13shade_oracles10interfaces6commons8_1__NtBa_14PricesResponseNtNtCs6CjExPaL98u_5serde2de11Deserialize11deserializeNtB5_7___FieldB1r_11deserializepEBe_
FNDA:0,_RNvXNvNtNtCs5yQHJDQE64T_13shade_oracles10interfaces6commons6_1__NtB4_13PriceResponseNtCs8g2TqZEio7D_8schemars10JsonSchema11json_schema
FNDA:0,_RINvXNvNtNtCs5yQHJDQE64T_13shade_oracles10interfaces6commonsk_1__NtB5_12CommonConfigNtNtCs6CjExPaL98u_5serde2de11Deserialize11deserializepEB9_
FNDA:0,_RNvXs0_NvXNvNtNtCs5yQHJDQE64T_13shade_oracles10interfaces6commons8_1__NtBa_14PricesResponseNtNtCs6CjExPaL98u_5serde2de11Deserialize11deserializeNtB5_9___VisitorNtB1t_7Visitor9expecting
FNDA:0,_RNvYpNtNtNtCs5yQHJDQE64T_13shade_oracles10interfaces6common6Oracle11config_respB9_
FNDA:0,_RNvXsa_NtNtCs5yQHJDQE64T_13shade_oracles10interfaces6commonNtB5_11OracleQueryNtNtCs6wB797emF0g_15cosmwasm_schema14query_response14QueryResponses21response_schemas_impl
FNDA:0,_RNvXNvXNvNtNtCs5yQHJDQE64T_13shade_oracles10interfaces6commonsq_1__NtB7_11OraclePriceNtNtCs6CjExPaL98u_5serde2de11Deserialize11deserializeNtB2_14___FieldVisitorNtB1n_7Visitor9expecting
FNDA:0,_RINvXs3_NvXs0_NvXNvNtNtCs5yQHJDQE64T_13shade_oracles10interfaces6commons_1__NtBh_11OracleQueryNtNtCs6CjExPaL98u_5serde2de11Deserialize11deserializeNtBc_9___VisitorNtB1w_7Visitor10visit_enumNtB6_s_9___VisitorB2B_9visit_seqpEBl_
FNDA:0,_RNvXs0_NvXs0_NvXNvNtNtCs5yQHJDQE64T_13shade_oracles10interfaces6commonsb_1__NtBg_10ExecuteMsgNtNtCs6CjExPaL98u_5serde2de11Deserialize11deserializeNtBb_9___VisitorNtB1v_7Visitor10visit_enumNtB5_9___VisitorB2A_9expecting
FNDA:0,_RNvXsr_NtNtCs5yQHJDQE64T_13shade_oracles10interfaces6commonNtB5_13ConfigUpdatesNtNtCs59N989QkIgV_4core5clone5Clone5cloneB9_
FNDA:0,_RNvXNvNtNtCs5yQHJDQE64T_13shade_oracles10interfaces6commonsf_1__NtB4_13ConfigUpdatesNtCs8g2TqZEio7D_8schemars10JsonSchema11schema_name
FNDA:0,_RNvXsG_NtNtCs5yQHJDQE64T_13shade_oracles10interfaces6commonNtB5_12HandleAnswerNtNtCs59N989QkIgV_4core3cmp9PartialEq2neB9_
FNDA:0,_RINvXNvXNvNtNtCs5yQHJDQE64T_13shade_oracles10interfaces6commons8_1__NtB8_14PricesResponseNtNtCs6CjExPaL98u_5serde2de11Deserialize11deserializeNtB3_14___FieldVisitorNtB1r_7Visitor9visit_strpEBc_
FNDA:0,_RINvXNvNtNtCs5yQHJDQE64T_13shade_oracles10interfaces6commonse_1__NtB5_13ConfigUpdatesNtNtCs6CjExPaL98u_5serde2de11Deserialize11deserializepEB9_
FNDA:0,_RNvXsc_NtNtCs5yQHJDQE64T_13shade_oracles10interfaces6commonNtB5_14ConfigResponseNtNtCs59N989QkIgV_4core3fmt5Debug3fmt
FNDA:0,_RINvXNvXNvNtNtCs5yQHJDQE64T_13shade_oracles10interfaces6commons5_1__NtB8_13PriceResponseNtNtCs6CjExPaL98u_5serde2de11Deserialize11deserializeNtB3_14___FieldVisitorNtB1q_7Visitor9visit_strpEBc_
FNDA:0,_RNvXs5_NtNtCs5yQHJDQE64T_13shade_oracles10interfaces6commonNtB5_10OracleImplNtB5_6Oracle15try_query_price
FNDA:0,_RNCNvYpNtNtNtCs5yQHJDQE64T_13shade_oracles10interfaces6common6Oracle17try_update_config0Bb_
FNDA:0,_RINvXNvNtNtCs5yQHJDQE64T_13shade_oracles10interfaces6commonsd_1__NtB5_13ConfigUpdatesNtNtCs6CjExPaL98u_5serde3ser9Serialize9serializepEB9_
FNDA:0,_RINvXNvNtNtCs5yQHJDQE64T_13shade_oracles10interfaces6commonsb_1__NtB5_10ExecuteMsgNtNtCs6CjExPaL98u_5serde2de11Deserialize11deserializepEB9_
FNDA:0,_RINvXs0_NvXNvNtNtCs5yQHJDQE64T_13shade_oracles10interfaces6commons2_1__NtBb_14ConfigResponseNtNtCs6CjExPaL98u_5serde2de11Deserialize11deserializeNtB6_9___VisitorNtB1u_7Visitor9visit_seqpEBf_
FNDA:0,_RNvXNvNtNtCs5yQHJDQE64T_13shade_oracles10interfaces6commons0_1__NtB4_11OracleQueryNtCs8g2TqZEio7D_8schemars10JsonSchema11schema_name
FNDA:0,_RNvXNvXNvNtNtCs5yQHJDQE64T_13shade_oracles10interfaces6commons_1__NtB7_11OracleQueryNtNtCs6CjExPaL98u_5serde2de11Deserialize11deserializeNtB2_14___FieldVisitorNtB1m_7Visitor9expecting
FNDA:0,_RINvXNvXNvNtNtCs5yQHJDQE64T_13shade_oracles10interfaces6commonse_1__NtB8_13ConfigUpdatesNtNtCs6CjExPaL98u_5serde2de11Deserialize11deserializeNtB3_14___FieldVisitorNtB1q_7Visitor11visit_bytespEBc_
FNDA:0,_RNvMs3_NtNtCs5yQHJDQE64T_13shade_oracles10interfaces6commonNtB5_14BtrOraclePrice10calc_value
FNDA:0,_RNCNvYpNtNtNtCs5yQHJDQE64T_13shade_oracles10interfaces6common6Oracle16can_query_prices0Bb_
FNDA:0,_RINvXNvXNvNtNtCs5yQHJDQE64T_13shade_oracles10interfaces6commonsb_1__NtB8_10ExecuteMsgNtNtCs6CjExPaL98u_5serde2de11Deserialize11deserializeNtB3_14___FieldVisitorNtB1n_7Visitor9visit_strpEBc_
FNDA:0,_RNvYpNtNtNtCs5yQHJDQE64T_13shade_oracles10interfaces6common6Oracle11prices_respB9_
FNDA:0,_RINvXNvNtNtCs5yQHJDQE64T_13shade_oracles10interfaces6commons8_1__NtB5_14PricesResponseNtNtCs6CjExPaL98u_5serde2de11Deserialize11deserializepEB9_
FNDA:0,_RNvXs0_NvXNvNtNtCs5yQHJDQE64T_13shade_oracles10interfaces6commons5_1__NtBa_13PriceResponseNtNtCs6CjExPaL98u_5serde2de11Deserialize11deserializeNtB5_9___VisitorNtB1s_7Visitor9expecting
FNDA:0,_RNvXs0_NvXNvNtNtCs5yQHJDQE64T_13shade_oracles10interfaces6commons_1__NtBa_11OracleQueryNtNtCs6CjExPaL98u_5serde2de11Deserialize11deserializeNtB5_9___VisitorNtB1p_7Visitor9expecting
FNDA:0,_RINvXs0_NvXNvNtNtCs5yQHJDQE64T_13shade_oracles10interfaces6commons5_1__NtBb_13PriceResponseNtNtCs6CjExPaL98u_5serde2de11Deserialize11deserializeNtB6_9___VisitorNtB1t_7Visitor9visit_seqpEBf_
FNDA:0,_RNvXsD_NtNtCs5yQHJDQE64T_13shade_oracles10interfaces6commonNtB5_12HandleAnswerNtNtCs59N989QkIgV_4core5clone5Clone5cloneB9_
FNDA:0,_RNvYpNtNtNtCs5yQHJDQE64T_13shade_oracles10interfaces6common6Oracle11init_configB9_
FNDA:0,_RNvXNvXNvNtNtCs5yQHJDQE64T_13shade_oracles10interfaces6commonsn_1__NtB7_12HandleAnswerNtNtCs6CjExPaL98u_5serde2de11Deserialize11deserializeNtB2_14___FieldVisitorNtB1o_7Visitor9expecting
FNDA:0,_RNvXsi_NtNtCs5yQHJDQE64T_13shade_oracles10interfaces6commonNtB5_13PriceResponseNtNtCs59N989QkIgV_4core3cmp9PartialEq2neB9_
FNDA:0,_RNvXs4_NvXs0_NvXNvNtNtCs5yQHJDQE64T_13shade_oracles10interfaces6commons_1__NtBg_11OracleQueryNtNtCs6CjExPaL98u_5serde2de11Deserialize11deserializeNtBb_9___VisitorNtB1v_7Visitor10visit_enumNtB5_s0_14___FieldVisitorB2A_9expecting
FNDA:0,_RNvXsi_NtNtCs5yQHJDQE64T_13shade_oracles10interfaces6commonNtB5_13PriceResponseNtNtCs59N989QkIgV_4core3cmp9PartialEq2eqB9_
FNDA:0,_RINvXs5_NvXs0_NvXNvNtNtCs5yQHJDQE64T_13shade_oracles10interfaces6commons_1__NtBh_11OracleQueryNtNtCs6CjExPaL98u_5serde2de11Deserialize11deserializeNtBc_9___VisitorNtB1w_7Visitor10visit_enumNtB6_s0_7___FieldB1u_11deserializepEBl_
FNDA:0,_RINvXs0_NvXNvNtNtCs5yQHJDQE64T_13shade_oracles10interfaces6commonse_1__NtBb_13ConfigUpdatesNtNtCs6CjExPaL98u_5serde2de11Deserialize11deserializeNtB6_9___VisitorNtB1t_7Visitor9visit_seqpEBf_
FNDA:0,_RINvXNvNtNtCs5yQHJDQE64T_13shade_oracles10interfaces6common1__NtB5_11OracleQueryNtNtCs6CjExPaL98u_5serde3ser9Serialize9serializepEB9_
FNDA:0,_RNvXNvNtNtCs5yQHJDQE64T_13shade_oracles10interfaces6commonso_1__NtB4_12HandleAnswerNtCs8g2TqZEio7D_8schemars10JsonSchema11json_schema
FNDA:0,_RNvXNvNtNtCs5yQHJDQE64T_13shade_oracles10interfaces6commonsc_1__NtB4_10ExecuteMsgNtCs8g2TqZEio7D_8schemars10JsonSchema11json_schema
FNDA:0,_RNvXsE_NtNtCs5yQHJDQE64T_13shade_oracles10interfaces6commonNtB5_12HandleAnswerNtNtCs59N989QkIgV_4core3fmt5Debug3fmt
FNDA:0,_RNvXse_NtNtCs5yQHJDQE64T_13shade_oracles10interfaces6commonNtB5_14ConfigResponseNtNtCs59N989QkIgV_4core3cmp9PartialEq2neB9_
FNDA:0,_RINvXs3_NvXs0_NvXNvNtNtCs5yQHJDQE64T_13shade_oracles10interfaces6commons_1__NtBh_11OracleQueryNtNtCs6CjExPaL98u_5serde2de11Deserialize11deserializeNtBc_9___VisitorNtB1w_7Visitor10visit_enumNtB6_s_9___VisitorB2B_9visit_mappEBl_
FNDA:0,_RINvXs0_NvXNvNtNtCs5yQHJDQE64T_13shade_oracles10interfaces6commons8_1__NtBb_14PricesResponseNtNtCs6CjExPaL98u_5serde2de11Deserialize11deserializeNtB6_9___VisitorNtB1u_7Visitor9visit_mappEBf_
FNDA:0,_RINvXs_NvXNvNtNtCs5yQHJDQE64T_13shade_oracles10interfaces6commonsk_1__NtBa_12CommonConfigNtNtCs6CjExPaL98u_5serde2de11Deserialize11deserializeNtB5_7___FieldB1p_11deserializepEBe_
FNDA:0,_RNvXNvNtNtCs5yQHJDQE64T_13shade_oracles10interfaces6commons9_1__NtB4_14PricesResponseNtCs8g2TqZEio7D_8schemars10JsonSchema11schema_name
FNDA:0,_RINvXNvNtNtCs5yQHJDQE64T_13shade_oracles10interfaces6commons2_1__NtB5_14ConfigResponseNtNtCs6CjExPaL98u_5serde2de11Deserialize11deserializepEB9_
FNDA:0,_RINvXs_NvXs0_NvXNvNtNtCs5yQHJDQE64T_13shade_oracles10interfaces6commonsb_1__NtBg_10ExecuteMsgNtNtCs6CjExPaL98u_5serde2de11Deserialize11deserializeNtBb_9___VisitorNtB1v_7Visitor10visit_enumNtB5_7___FieldB1t_11deserializepEBk_
FNDA:0,_RNvXsw_NtNtCs5yQHJDQE64T_13shade_oracles10interfaces6commonNtB5_23InstantiateCommonConfigNtNtCs59N989QkIgV_4core3fmt5Debug3fmt
FNDA:0,_RINvXs6_NvXs0_NvXNvNtNtCs5yQHJDQE64T_13shade_oracles10interfaces6commons_1__NtBh_11OracleQueryNtNtCs6CjExPaL98u_5serde2de11Deserialize11deserializeNtBc_9___VisitorNtB1w_7Visitor10visit_enumNtB6_s0_9___VisitorB2B_9visit_seqpEBl_
FNDA:0,_RINvXs0_NvXs0_NvXNvNtNtCs5yQHJDQE64T_13shade_oracles10interfaces6commons_1__NtBh_11OracleQueryNtNtCs6CjExPaL98u_5serde2de11Deserialize11deserializeNtBc_9___VisitorNtB1w_7Visitor10visit_enumNtB6_9___VisitorB2B_9visit_seqpEBl_
FNDA:0,_RINvXNvXNvNtNtCs5yQHJDQE64T_13shade_oracles10interfaces6commonsn_1__NtB8_12HandleAnswerNtNtCs6CjExPaL98u_5serde2de11Deserialize11deserializeNtB3_14___FieldVisitorNtB1p_7Visitor9visit_u64pEBc_
FNDA:0,_RINvXNvXNvNtNtCs5yQHJDQE64T_13shade_oracles10interfaces6commons5_1__NtB8_13PriceResponseNtNtCs6CjExPaL98u_5serde2de11Deserialize11deserializeNtB3_14___FieldVisitorNtB1q_7Visitor11visit_bytespEBc_
FNDA:0,_RNvYpNtNtNtCs5yQHJDQE64T_13shade_oracles10interfaces6common6Oracle16can_query_pricesB9_
FNDA:0,_RINvXNvNtNtCs5yQHJDQE64T_13shade_oracles10interfaces6commons1_1__NtB5_14ConfigResponseNtNtCs6CjExPaL98u_5serde3ser9Serialize9serializepEB9_
FNDA:0,_RINvXs4_NvXs0_NvXNvNtNtCs5yQHJDQE64T_13shade_oracles10interfaces6commons_1__NtBh_11OracleQueryNtNtCs6CjExPaL98u_5serde2de11Deserialize11deserializeNtBc_9___VisitorNtB1w_7Visitor10visit_enumNtB6_s0_14___FieldVisitorB2B_9visit_u64pEBl_
FNDA:0,_RINvXNvXs0_NvXNvNtNtCs5yQHJDQE64T_13shade_oracles10interfaces6commonsn_1__NtBe_12HandleAnswerNtNtCs6CjExPaL98u_5serde2de11Deserialize11deserializeNtB9_9___VisitorNtB1v_7Visitor10visit_enumNtB3_14___FieldVisitorB2A_9visit_strpEBi_
FNDA:0,_RNvXsy_NtNtCs5yQHJDQE64T_13shade_oracles10interfaces6commonNtB5_23InstantiateCommonConfigNtNtCs59N989QkIgV_4core3cmp9PartialEq2eqB9_
FNDA:0,_RINvXNvXNvNtNtCs5yQHJDQE64T_13shade_oracles10interfaces6commons8_1__NtB8_14PricesResponseNtNtCs6CjExPaL98u_5serde2de11Deserialize11deserializeNtB3_14___FieldVisitorNtB1r_7Visitor9visit_u64pEBc_
FNDA:0,_RNvXsH_NtNtCs5yQHJDQE64T_13shade_oracles10interfaces6commonNtB5_11OraclePriceNtNtCs59N989QkIgV_4core5clone5Clone5cloneB9_
FNDA:0,_RINvXs0_NvXNvNtNtCs5yQHJDQE64T_13shade_oracles10interfaces6commonse_1__NtBb_13ConfigUpdatesNtNtCs6CjExPaL98u_5serde2de11Deserialize11deserializeNtB6_9___VisitorNtB1t_7Visitor9visit_mappEBf_
FNDA:0,_RINvXNvXs0_NvXNvNtNtCs5yQHJDQE64T_13shade_oracles10interfaces6commonsb_1__NtBe_10ExecuteMsgNtNtCs6CjExPaL98u_5serde2de11Deserialize11deserializeNtB9_9___VisitorNtB1t_7Visitor10visit_enumNtB3_14___FieldVisitorB2y_9visit_strpEBi_
FNDA:0,_RNvXsf_NtNtCs5yQHJDQE64T_13shade_oracles10interfaces6commonNtB5_13PriceResponseNtNtCs59N989QkIgV_4core5clone5Clone5cloneB9_
FNDA:0,_RINvXs0_NvXNvNtNtCs5yQHJDQE64T_13shade_oracles10interfaces6commonsq_1__NtBb_11OraclePriceNtNtCs6CjExPaL98u_5serde2de11Deserialize11deserializeNtB6_9___VisitorNtB1r_7Visitor9visit_seqpEBf_
FNDA:0,_RNvXs0_NvXs0_NvXNvNtNtCs5yQHJDQE64T_13shade_oracles10interfaces6commons_1__NtBg_11OracleQueryNtNtCs6CjExPaL98u_5serde2de11Deserialize11deserializeNtBb_9___VisitorNtB1v_7Visitor10visit_enumNtB5_9___VisitorB2A_9expecting
FNDA:0,_RNvYpNtNtNtCs5yQHJDQE64T_13shade_oracles10interfaces6common6Oracle12verify_adminB9_
FNDA:0,_RNvXs0_NvXNvNtNtCs5yQHJDQE64T_13shade_oracles10interfaces6commonsh_1__NtBa_23InstantiateCommonConfigNtNtCs6CjExPaL98u_5serde2de11Deserialize11deserializeNtB5_9___VisitorNtB1C_7Visitor9expecting
FNDA:0,_RNvXNvNtNtCs5yQHJDQE64T_13shade_oracles10interfaces6commonsr_1__NtB4_11OraclePriceNtCs8g2TqZEio7D_8schemars10JsonSchema11json_schema
FNDA:0,_RNvXsu_NtNtCs5yQHJDQE64T_13shade_oracles10interfaces6commonNtB5_13ConfigUpdatesNtNtCs59N989QkIgV_4core3cmp9PartialEq2neB9_
FNDA:0,_RNvXsI_NtNtCs5yQHJDQE64T_13shade_oracles10interfaces6commonNtB5_11OraclePriceNtNtCs59N989QkIgV_4core3fmt5Debug3fmt
FNDA:0,_RINvXs0_NvXNvNtNtCs5yQHJDQE64T_13shade_oracles10interfaces6commonsh_1__NtBb_23InstantiateCommonConfigNtNtCs6CjExPaL98u_5serde2de11Deserialize11deserializeNtB6_9___VisitorNtB1D_7Visitor9visit_seqpEBf_
FNDA:0,_RINvXs0_NvXNvNtNtCs5yQHJDQE64T_13shade_oracles10interfaces6commonsk_1__NtBb_12CommonConfigNtNtCs6CjExPaL98u_5serde2de11Deserialize11deserializeNtB6_9___VisitorNtB1s_7Visitor9visit_mappEBf_
FNDA:0,_RNvXsG_NtNtCs5yQHJDQE64T_13shade_oracles10interfaces6commonNtB5_12HandleAnswerNtNtCs59N989QkIgV_4core3cmp9PartialEq2eqB9_
FNDA:0,_RNvMs1_NtNtCs5yQHJDQE64T_13shade_oracles10interfaces6commonNtB5_11OraclePrice3new
FNDA:0,_RINvXNvXNvNtNtCs5yQHJDQE64T_13shade_oracles10interfaces6commonsb_1__NtB8_10ExecuteMsgNtNtCs6CjExPaL98u_5serde2de11Deserialize11deserializeNtB3_14___FieldVisitorNtB1n_7Visitor11visit_bytespEBc_
FNDA:0,_RINvXs0_NvXNvNtNtCs5yQHJDQE64T_13shade_oracles10interfaces6commonsk_1__NtBb_12CommonConfigNtNtCs6CjExPaL98u_5serde2de11Deserialize11deserializeNtB6_9___VisitorNtB1s_7Visitor9visit_seqpEBf_
FNDA:0,_RINvXNvNtNtCs5yQHJDQE64T_13shade_oracles10interfaces6commonsg_1__NtB5_23InstantiateCommonConfigNtNtCs6CjExPaL98u_5serde3ser9Serialize9serializepEB9_
FNDA:0,_RINvXs0_NvXs0_NvXNvNtNtCs5yQHJDQE64T_13shade_oracles10interfaces6commonsn_1__NtBh_12HandleAnswerNtNtCs6CjExPaL98u_5serde2de11Deserialize11deserializeNtBc_9___VisitorNtB1y_7Visitor10visit_enumNtB6_9___VisitorB2D_9visit_mappEBl_
FNDA:0,_RNvXNvXs0_NvXNvNtNtCs5yQHJDQE64T_13shade_oracles10interfaces6commons_1__NtBd_11OracleQueryNtNtCs6CjExPaL98u_5serde2de11Deserialize11deserializeNtB8_9___VisitorNtB1s_7Visitor10visit_enumNtB2_14___FieldVisitorB2x_9expecting
FNDA:0,_RNvXs0_NvXs0_NvXNvNtNtCs5yQHJDQE64T_13shade_oracles10interfaces6commonsn_1__NtBg_12HandleAnswerNtNtCs6CjExPaL98u_5serde2de11Deserialize11deserializeNtBb_9___VisitorNtB1x_7Visitor10visit_enumNtB5_9___VisitorB2C_9expecting
FNDA:0,_RINvXs_NvXNvNtNtCs5yQHJDQE64T_13shade_oracles10interfaces6commons5_1__NtBa_13PriceResponseNtNtCs6CjExPaL98u_5serde2de11Deserialize11deserializeNtB5_7___FieldB1q_11deserializepEBe_
FNDA:0,_RINvXs0_NvXs0_NvXNvNtNtCs5yQHJDQE64T_13shade_oracles10interfaces6commons_1__NtBh_11OracleQueryNtNtCs6CjExPaL98u_5serde2de11Deserialize11deserializeNtBc_9___VisitorNtB1w_7Visitor10visit_enumNtB6_9___VisitorB2B_9visit_mappEBl_
FNDA:0,_RINvXs0_NvXNvNtNtCs5yQHJDQE64T_13shade_oracles10interfaces6commons2_1__NtBb_14ConfigResponseNtNtCs6CjExPaL98u_5serde2de11Deserialize11deserializeNtB6_9___VisitorNtB1u_7Visitor9visit_mappEBf_
FNDA:0,_RNvXNvXNvNtNtCs5yQHJDQE64T_13shade_oracles10interfaces6commons2_1__NtB7_14ConfigResponseNtNtCs6CjExPaL98u_5serde2de11Deserialize11deserializeNtB2_14___FieldVisitorNtB1q_7Visitor9expecting
FNDA:0,_RINvXNvXNvNtNtCs5yQHJDQE64T_13shade_oracles10interfaces6commons_1__NtB8_11OracleQueryNtNtCs6CjExPaL98u_5serde2de11Deserialize11deserializeNtB3_14___FieldVisitorNtB1n_7Visitor11visit_bytespEBc_
FNDA:0,_RNvMs_NtNtCs5yQHJDQE64T_13shade_oracles10interfaces6commonNtB4_23InstantiateCommonConfig10into_valid
FNDA:0,_RINvXs0_NvXNvNtNtCs5yQHJDQE64T_13shade_oracles10interfaces6commonsq_1__NtBb_11OraclePriceNtNtCs6CjExPaL98u_5serde2de11Deserialize11deserializeNtB6_9___VisitorNtB1r_7Visitor9visit_mappEBf_
FNDA:0,_RINvXs_NvXNvNtNtCs5yQHJDQE64T_13shade_oracles10interfaces6commons2_1__NtBa_14ConfigResponseNtNtCs6CjExPaL98u_5serde2de11Deserialize11deserializeNtB5_7___FieldB1r_11deserializepEBe_
FNDA:0,_RNvXNvNtNtCs5yQHJDQE64T_13shade_oracles10interfaces6commonsf_1__NtB4_13ConfigUpdatesNtCs8g2TqZEio7D_8schemars10JsonSchema11json_schema
FNDA:0,_RNvXs1_NvXs0_NvXNvNtNtCs5yQHJDQE64T_13shade_oracles10interfaces6commons_1__NtBg_11OracleQueryNtNtCs6CjExPaL98u_5serde2de11Deserialize11deserializeNtBb_9___VisitorNtB1v_7Visitor10visit_enumNtB5_s_14___FieldVisitorB2A_9expecting
FNDA:0,_RINvXNvNtNtCs5yQHJDQE64T_13shade_oracles10interfaces6commonsn_1__NtB5_12HandleAnswerNtNtCs6CjExPaL98u_5serde2de11Deserialize11deserializepEB9_
FNDA:0,_RNvXNvNtNtCs5yQHJDQE64T_13shade_oracles10interfaces6commonsi_1__NtB4_23InstantiateCommonConfigNtCs8g2TqZEio7D_8schemars10JsonSchema11json_schema
FNDA:0,_RINvXNvNtNtCs5yQHJDQE64T_13shade_oracles10interfaces6commonsm_1__NtB5_12HandleAnswerNtNtCs6CjExPaL98u_5serde3ser9Serialize9serializepEB9_
FNDA:0,_RINvXs4_NvXs0_NvXNvNtNtCs5yQHJDQE64T_13shade_oracles10interfaces6commons_1__NtBh_11OracleQueryNtNtCs6CjExPaL98u_5serde2de11Deserialize11deserializeNtBc_9___VisitorNtB1w_7Visitor10visit_enumNtB6_s0_14___FieldVisitorB2B_11visit_bytespEBl_
FNDA:0,_RINvXs4_NvXs0_NvXNvNtNtCs5yQHJDQE64T_13shade_oracles10interfaces6commons_1__NtBh_11OracleQueryNtNtCs6CjExPaL98u_5serde2de11Deserialize11deserializeNtBc_9___VisitorNtB1w_7Visitor10visit_enumNtB6_s0_14___FieldVisitorB2B_9visit_strpEBl_
FNDA:0,_RINvXNvXNvNtNtCs5yQHJDQE64T_13shade_oracles10interfaces6commons2_1__NtB8_14ConfigResponseNtNtCs6CjExPaL98u_5serde2de11Deserialize11deserializeNtB3_14___FieldVisitorNtB1r_7Visitor9visit_u64pEBc_
FNDA:0,_RINvXs0_NvXNvNtNtCs5yQHJDQE64T_13shade_oracles10interfaces6commons5_1__NtBb_13PriceResponseNtNtCs6CjExPaL98u_5serde2de11Deserialize11deserializeNtB6_9___VisitorNtB1t_7Visitor9visit_mappEBf_
FNDA:0,_RINvXs0_NvXNvNtNtCs5yQHJDQE64T_13shade_oracles10interfaces6commonsb_1__NtBb_10ExecuteMsgNtNtCs6CjExPaL98u_5serde2de11Deserialize11deserializeNtB6_9___VisitorNtB1q_7Visitor10visit_enumpEBf_
FNDA:0,_RNvMs_NtNtCs5yQHJDQE64T_13shade_oracles10interfaces6commonNtB4_23InstantiateCommonConfig3new
FNDA:0,_RNvXNvXNvNtNtCs5yQHJDQE64T_13shade_oracles10interfaces6commonse_1__NtB7_13ConfigUpdatesNtNtCs6CjExPaL98u_5serde2de11Deserialize11deserializeNtB2_14___FieldVisitorNtB1p_7Visitor9expecting
FNDA:0,_RNvXs0_NvXNvNtNtCs5yQHJDQE64T_13shade_oracles10interfaces6commons2_1__NtBa_14ConfigResponseNtNtCs6CjExPaL98u_5serde2de11Deserialize11deserializeNtB5_9___VisitorNtB1t_7Visitor9expecting
FNDA:0,_RNvMs3_NtNtCs5yQHJDQE64T_13shade_oracles10interfaces6commonNtB5_14BtrOraclePrice4data
FNDA:0,_RNvXNvNtNtCs5yQHJDQE64T_13shade_oracles10interfaces6commonsl_1__NtB4_12CommonConfigNtCs8g2TqZEio7D_8schemars10JsonSchema11schema_name
FNDA:0,_RINvXNvXs0_NvXNvNtNtCs5yQHJDQE64T_13shade_oracles10interfaces6commons_1__NtBe_11OracleQueryNtNtCs6CjExPaL98u_5serde2de11Deserialize11deserializeNtB9_9___VisitorNtB1t_7Visitor10visit_enumNtB3_14___FieldVisitorB2y_9visit_u64pEBi_
FNDA:0,_RINvXs0_NvXNvNtNtCs5yQHJDQE64T_13shade_oracles10interfaces6commons_1__NtBb_11OracleQueryNtNtCs6CjExPaL98u_5serde2de11Deserialize11deserializeNtB6_9___VisitorNtB1q_7Visitor10visit_enumpEBf_
FNDA:0,_RINvXNvXNvNtNtCs5yQHJDQE64T_13shade_oracles10interfaces6commonsh_1__NtB8_23InstantiateCommonConfigNtNtCs6CjExPaL98u_5serde2de11Deserialize11deserializeNtB3_14___FieldVisitorNtB1A_7Visitor9visit_u64pEBc_
FNDA:0,_RINvXs_NvXNvNtNtCs5yQHJDQE64T_13shade_oracles10interfaces6commonsn_1__NtBa_12HandleAnswerNtNtCs6CjExPaL98u_5serde2de11Deserialize11deserializeNtB5_7___FieldB1p_11deserializepEBe_
FNDA:0,_RINvXs_NvXNvNtNtCs5yQHJDQE64T_13shade_oracles10interfaces6commonse_1__NtBa_13ConfigUpdatesNtNtCs6CjExPaL98u_5serde2de11Deserialize11deserializeNtB5_7___FieldB1q_11deserializepEBe_
FNDA:0,_RNvMs3_NtNtCs5yQHJDQE64T_13shade_oracles10interfaces6commonNtB5_14BtrOraclePrice11calc_amount
FNDA:0,_RNvXNvNtNtCs5yQHJDQE64T_13shade_oracles10interfaces6commonsc_1__NtB4_10ExecuteMsgNtCs8g2TqZEio7D_8schemars10JsonSchema11schema_name
FNDA:0,_RNvXs7_NtNtCs5yQHJDQE64T_13shade_oracles10interfaces6commonNtB5_11OracleQueryNtNtCs59N989QkIgV_4core3fmt5Debug3fmt
FNDA:0,_RINvXNvNtNtCs5yQHJDQE64T_13shade_oracles10interfaces6commonsh_1__NtB5_23InstantiateCommonConfigNtNtCs6CjExPaL98u_5serde2de11Deserialize11deserializepEB9_
FNDA:0,_RINvXNvXNvNtNtCs5yQHJDQE64T_13shade_oracles10interfaces6commons2_1__NtB8_14ConfigResponseNtNtCs6CjExPaL98u_5serde2de11Deserialize11deserializeNtB3_14___FieldVisitorNtB1r_7Visitor9visit_strpEBc_
FNDA:0,_RINvXNvXs0_NvXNvNtNtCs5yQHJDQE64T_13shade_oracles10interfaces6commons_1__NtBe_11OracleQueryNtNtCs6CjExPaL98u_5serde2de11Deserialize11deserializeNtB9_9___VisitorNtB1t_7Visitor10visit_enumNtB3_14___FieldVisitorB2y_11visit_bytespEBi_
FNDA:0,_RNvXss_NtNtCs5yQHJDQE64T_13shade_oracles10interfaces6commonNtB5_13ConfigUpdatesNtNtCs59N989QkIgV_4core3fmt5Debug3fmt
FNDA:0,_RINvXs1_NvXs0_NvXNvNtNtCs5yQHJDQE64T_13shade_oracles10interfaces6commons_1__NtBh_11OracleQueryNtNtCs6CjExPaL98u_5serde2de11Deserialize11deserializeNtBc_9___VisitorNtB1w_7Visitor10visit_enumNtB6_s_14___FieldVisitorB2B_9visit_strpEBl_
FNDA:0,_RNvMs3_NtNtCs5yQHJDQE64T_13shade_oracles10interfaces6commonNtB5_14BtrOraclePrice18time_since_updated
FNDA:0,_RNvXNvXNvNtNtCs5yQHJDQE64T_13shade_oracles10interfaces6commonsh_1__NtB7_23InstantiateCommonConfigNtNtCs6CjExPaL98u_5serde2de11Deserialize11deserializeNtB2_14___FieldVisitorNtB1z_7Visitor9expecting
FNDA:0,_RINvXs_NvXNvNtNtCs5yQHJDQE64T_13shade_oracles10interfaces6commons_1__NtBa_11OracleQueryNtNtCs6CjExPaL98u_5serde2de11Deserialize11deserializeNtB5_7___FieldB1n_11deserializepEBe_
FNDA:0,_RINvXs_NvXs0_NvXNvNtNtCs5yQHJDQE64T_13shade_oracles10interfaces6commonsn_1__NtBg_12HandleAnswerNtNtCs6CjExPaL98u_5serde2de11Deserialize11deserializeNtBb_9___VisitorNtB1x_7Visitor10visit_enumNtB5_7___FieldB1v_11deserializepEBk_
FNDA:0,_RINvNtNtCs5yQHJDQE64T_13shade_oracles10interfaces6common11oracle_execpEB6_
FNDA:0,_RNvXNvNtNtCs5yQHJDQE64T_13shade_oracles10interfaces6commonsl_1__NtB4_12CommonConfigNtCs8g2TqZEio7D_8schemars10JsonSchema11json_schema
FNDA:0,_RINvXNvXNvNtNtCs5yQHJDQE64T_13shade_oracles10interfaces6commonsq_1__NtB8_11OraclePriceNtNtCs6CjExPaL98u_5serde2de11Deserialize11deserializeNtB3_14___FieldVisitorNtB1o_7Visitor11visit_bytespEBc_
FNDA:0,_RNvXNvNtNtCs5yQHJDQE64T_13shade_oracles10interfaces6commonsr_1__NtB4_11OraclePriceNtCs8g2TqZEio7D_8schemars10JsonSchema11schema_name
FNDA:0,_RINvXs0_NvXs0_NvXNvNtNtCs5yQHJDQE64T_13shade_oracles10interfaces6commonsn_1__NtBh_12HandleAnswerNtNtCs6CjExPaL98u_5serde2de11Deserialize11deserializeNtBc_9___VisitorNtB1y_7Visitor10visit_enumNtB6_9___VisitorB2D_9visit_seqpEBl_
FNDA:0,_RINvXNvXNvNtNtCs5yQHJDQE64T_13shade_oracles10interfaces6commonse_1__NtB8_13ConfigUpdatesNtNtCs6CjExPaL98u_5serde2de11Deserialize11deserializeNtB3_14___FieldVisitorNtB1q_7Visitor9visit_u64pEBc_
FNDA:0,_RNvXs0_NvXNvNtNtCs5yQHJDQE64T_13shade_oracles10interfaces6commonsn_1__NtBa_12HandleAnswerNtNtCs6CjExPaL98u_5serde2de11Deserialize11deserializeNtB5_9___VisitorNtB1r_7Visitor9expecting
FNDA:0,_RNvXsj_NtNtCs5yQHJDQE64T_13shade_oracles10interfaces6commonNtB5_14PricesResponseNtNtCs59N989QkIgV_4core5clone5Clone5cloneB9_
FNDA:0,_RNvXs6_NvXs0_NvXNvNtNtCs5yQHJDQE64T_13shade_oracles10interfaces6commons_1__NtBg_11OracleQueryNtNtCs6CjExPaL98u_5serde2de11Deserialize11deserializeNtBb_9___VisitorNtB1v_7Visitor10visit_enumNtB5_s0_9___VisitorB2A_9expecting
FNDA:0,_RNvXNvXNvNtNtCs5yQHJDQE64T_13shade_oracles10interfaces6commons5_1__NtB7_13PriceResponseNtNtCs6CjExPaL98u_5serde2de11Deserialize11deserializeNtB2_14___FieldVisitorNtB1p_7Visitor9expecting
FNDA:0,_RNvXsk_NtNtCs5yQHJDQE64T_13shade_oracles10interfaces6commonNtB5_14PricesResponseNtNtCs59N989QkIgV_4core3fmt5Debug3fmt
FNDA:0,_RNvXNvXs0_NvXNvNtNtCs5yQHJDQE64T_13shade_oracles10interfaces6commonsb_1__NtBd_10ExecuteMsgNtNtCs6CjExPaL98u_5serde2de11Deserialize11deserializeNtB8_9___VisitorNtB1s_7Visitor10visit_enumNtB2_14___FieldVisitorB2x_9expecting
FNDA:0,_RNvXsC_NtNtCs5yQHJDQE64T_13shade_oracles10interfaces6commonNtB5_12CommonConfigNtNtCs59N989QkIgV_4core3cmp9PartialEq2eqB9_
FNDA:0,_RNvMs1_NtNtCs5yQHJDQE64T_13shade_oracles10interfaces6commonNtB5_11OraclePrice4data
FNDA:0,_RNvXs0_NvXNvNtNtCs5yQHJDQE64T_13shade_oracles10interfaces6commonsq_1__NtBa_11OraclePriceNtNtCs6CjExPaL98u_5serde2de11Deserialize11deserializeNtB5_9___VisitorNtB1q_7Visitor9expecting
FNDA:0,_RNvXNvNtNtCs5yQHJDQE64T_13shade_oracles10interfaces6commons0_1__NtB4_11OracleQueryNtCs8g2TqZEio7D_8schemars10JsonSchema11json_schema
FNDA:0,_RINvXNvXs0_NvXNvNtNtCs5yQHJDQE64T_13shade_oracles10interfaces6commons_1__NtBe_11OracleQueryNtNtCs6CjExPaL98u_5serde2de11Deserialize11deserializeNtB9_9___VisitorNtB1t_7Visitor10visit_enumNtB3_14___FieldVisitorB2y_9visit_strpEBi_
FNDA:0,_RINvXNvNtNtCs5yQHJDQE64T_13shade_oracles10interfaces6commonsj_1__NtB5_12CommonConfigNtNtCs6CjExPaL98u_5serde3ser9Serialize9serializepEB9_
FNDA:0,_RNvXs9_NtNtCs5yQHJDQE64T_13shade_oracles10interfaces6commonNtB5_11OracleQueryNtNtCs59N989QkIgV_4core3cmp9PartialEq2eqB9_
FNDA:0,_RINvXNvXNvNtNtCs5yQHJDQE64T_13shade_oracles10interfaces6commonsh_1__NtB8_23InstantiateCommonConfigNtNtCs6CjExPaL98u_5serde2de11Deserialize11deserializeNtB3_14___FieldVisitorNtB1A_7Visitor9visit_strpEBc_
FNDA:0,_RINvXs1_NvXs0_NvXNvNtNtCs5yQHJDQE64T_13shade_oracles10interfaces6commons_1__NtBh_11OracleQueryNtNtCs6CjExPaL98u_5serde2de11Deserialize11deserializeNtBc_9___VisitorNtB1w_7Visitor10visit_enumNtB6_s_14___FieldVisitorB2B_9visit_u64pEBl_
FNDA:0,_RNvXsg_NtNtCs5yQHJDQE64T_13shade_oracles10interfaces6commonNtB5_13PriceResponseNtNtCs59N989QkIgV_4core3fmt5Debug3fmt
FNF:39
FNH:19
DA:26,189
DA:27,0
DA:28,0
DA:39,0
DA:44,156
DA:49,36
DA:58,0
DA:63,0
DA:80,220
DA:98,16
DA:99,16
DA:100,16
DA:101,16
DA:102,16
DA:103,16
DA:104,16
DA:105,16
DA:106,16
DA:107,16
DA:108,16
DA:109,16
DA:110,16
DA:111,22
DA:112,22
DA:113,22
DA:114,22
DA:115,22
DA:116,22
DA:118,22
DA:130,409
DA:143,0
DA:148,552
DA:155,89
DA:156,89
DA:157,89
DA:158,89
DA:159,89
DA:160,89
DA:161,62
DA:162,62
DA:163,62
DA:164,95
DA:165,95
DA:166,95
DA:176,0
DA:177,0
DA:178,0
DA:179,0
DA:180,0
DA:181,0
DA:185,0
DA:186,0
DA:187,0
DA:188,0
DA:189,0
DA:190,0
DA:191,0
DA:192,0
DA:193,0
DA:194,0
DA:195,0
DA:196,0
DA:197,0
DA:198,0
DA:199,0
DA:203,0
DA:204,0
DA:205,0
DA:206,0
DA:208,0
DA:209,0
DA:210,0
DA:211,0
DA:212,0
DA:213,0
DA:214,0
DA:215,0
DA:216,0
DA:218,0
